 arclite

 Timestamp is 5f5c3dbf (Sat Sep 12 04:17:19 2020)

 Preferred load address is 10000000

 Start         Length     Name                   Class
 0001:00000000 00000510H .text$di                CODE
 0001:00000510 000957a0H .text$mn                CODE
 0001:00095cb0 00008950H .text$x                 CODE
 0001:0009e600 000006ffH .text$yd                CODE
 0002:00000000 00000238H .idata$5                DATA
 0002:00000238 00000004H .00cfg                  DATA
 0002:0000023c 00000004H .CRT$XCA                DATA
 0002:00000240 0000000cH .CRT$XCC                DATA
 0002:0000024c 00000008H .CRT$XCL                DATA
 0002:00000254 00000048H .CRT$XCU                DATA
 0002:0000029c 00000004H .CRT$XCZ                DATA
 0002:000002a0 00000004H .CRT$XIA                DATA
 0002:000002a4 00000014H .CRT$XIC                DATA
 0002:000002b8 00000004H .CRT$XIZ                DATA
 0002:000002bc 00000004H .CRT$XPA                DATA
 0002:000002c0 00000008H .CRT$XPX                DATA
 0002:000002c8 00000004H .CRT$XPXA               DATA
 0002:000002cc 00000004H .CRT$XPZ                DATA
 0002:000002d0 00000004H .CRT$XTA                DATA
 0002:000002d4 0000000cH .CRT$XTZ                DATA
 0002:000002d8 00000000H .gfids$y                DATA
 0002:000002e0 0000f5b4H .rdata                  DATA
 0002:0000f894 000026ecH .rdata$r                DATA
 0002:00011f80 00000698H .rdata$sxdata           DATA
 0002:00012618 000002fcH .rdata$zzzdbg           DATA
 0002:00012914 00000004H .rtc$IAA                DATA
 0002:00012918 00000004H .rtc$IZZ                DATA
 0002:0001291c 00000004H .rtc$TAA                DATA
 0002:00012920 00000008H .rtc$TZZ                DATA
 0002:00012928 0000a9b8H .xdata$x                DATA
 0002:0001d2e0 000001ecH .edata                  DATA
 0002:0001d4cc 00000078H .idata$2                DATA
 0002:0001d544 00000014H .idata$3                DATA
 0002:0001d558 00000238H .idata$4                DATA
 0002:0001d790 000009feH .idata$6                DATA
 0003:00000000 00000e80H .data                   DATA
 0003:00000e80 000011a0H .data$r                 DATA
 0003:00002020 000015f0H .bss                    DATA
 0004:00000000 00000060H .rsrc$01                DATA
 0004:00000060 00000298H .rsrc$02                DATA

  Address         Publics by Value              Rva+Base       Lib:Object

 0000:00000000       ___dynamic_value_reloc_table 00000000     <absolute>
 0000:00000000       ___guard_iat_count         00000000     <absolute>
 0000:00000000       __except_list              00000000     <absolute>
 0000:00000000       ___guard_fids_count        00000000     <absolute>
 0000:00000000       ___guard_longjmp_table     00000000     <absolute>
 0000:00000000       ___hybrid_code_map_count   00000000     <absolute>
 0000:00000000       ___hybrid_auxiliary_iat    00000000     <absolute>
 0000:00000000       ___guard_longjmp_count     00000000     <absolute>
 0000:00000000       ___guard_fids_table        00000000     <absolute>
 0000:00000000       ___volatile_metadata       00000000     <absolute>
 0000:00000000       ___guard_iat_table         00000000     <absolute>
 0000:00000000       ___AbsoluteZero            00000000     <absolute>
 0000:00000000       ___enclave_config          00000000     <absolute>
 0000:00000000       ___hybrid_code_map         00000000     <absolute>
 0000:00000100       ___guard_flags             00000100     <absolute>
 0000:000001a6       ___safe_se_handler_count   000001a6     <absolute>
 0000:00000000       ___ImageBase               10000000     <linker-defined>
 0001:00000510       ??0Error@@QAE@JPBDH@Z      10001510 f i archive.obj
 0001:000005d0       ??0Error@@QAE@ABV?$basic_string@_WU?$char_traits@_W@std@@V?$allocator@_W@2@@std@@PBDH@Z 100015d0 f i archive.obj
 0001:000006c0       ??1ComBase@@UAE@XZ         100016c0 f i archive.obj
 0001:000006d0       ??_GComBase@@UAEPAXI@Z     100016d0 f i archive.obj
 0001:000006d0       ??_EComBase@@UAEPAXI@Z     100016d0 f i * CIL library *:* CIL module *
 0001:00000700       ?clear@PropVariant@@AAEXXZ 10001700 f i archive.obj
 0001:00000740       ??1PropVariant@@QAE@XZ     10001740 f i archive.obj
 0001:000007b0       ?ref@PropVariant@@QAEPAUtagPROPVARIANT@@XZ 100017b0 f i archive.obj
 0001:000007f0       ?detach@PropVariant@@QAEXPAUtagPROPVARIANT@@@Z 100017f0 f i archive.obj
 0001:00000860       ??4PropVariant@@QAEAAV0@_N@Z 10001860 f i archive.obj
 0001:000008c0       ?is_uint@PropVariant@@QBE_NXZ 100018c0 f i archive.obj
 0001:000008f0       ?get_uint@PropVariant@@QBE_KXZ 100018f0 f i archive.obj
 0001:00000970       ?get_size@PropVariant@@QBE_KXZ 10001970 f i archive.obj
 0001:00000a00       ?get_str@PropVariant@@QBE?AV?$basic_string@_WU?$char_traits@_W@std@@V?$allocator@_W@2@@std@@XZ 10001a00 f i archive.obj
 0001:00000ac0       ?get_bool@PropVariant@@QBE_NXZ 10001ac0 f i archive.obj
 0001:00000b00       ?get_filetime@PropVariant@@QBE?AU_FILETIME@@XZ 10001b00 f i archive.obj
 0001:00000b50       ??1Error@@QAE@XZ           10001b50 f i archive.obj
 0001:00000b90       ??0Error@@QAE@ABU0@@Z      10001b90 f i archive.obj
 0001:00000c20       ??0ArcFormat@@QAE@XZ       10001c20 f i archive.obj
 0001:00000d10       ??1?$map@V?$basic_string@_WU?$char_traits@_W@std@@V?$allocator@_W@2@@std@@V12@U?$less@V?$basic_string@_WU?$char_traits@_W@std@@V?$allocator@_W@2@@std@@@2@V?$allocator@U?$pair@$$CBV?$basic_string@_WU?$char_traits@_W@std@@V?$allocator@_W@2@@std@@V12@@std@@@2@@std@@QAE@XZ 10001d10 f i archive.obj
 0001:00000d30       ?arc_name@Archive@@QBE?AV?$basic_string@_WU?$char_traits@_W@std@@V?$allocator@_W@2@@std@@XZ 10001d30 f i archive.obj
 0001:00000de0       ?get_bool_prop@ArcLib@@QBEJIKAA_N@Z 10001de0 f   archive.obj
 0001:00000eb0       ?get_uint_prop@ArcLib@@QBEJIKAAI@Z 10001eb0 f   archive.obj
 0001:00000fa0       ?get_string_prop@ArcLib@@QBEJIKAAV?$basic_string@_WU?$char_traits@_W@std@@V?$allocator@_W@2@@std@@@Z 10001fa0 f   archive.obj
 0001:000010a0       ?get_bytes_prop@ArcLib@@QBEJIKAAV?$vector@EV?$allocator@E@std@@@std@@@Z 100020a0 f   archive.obj
 0001:000011b0       ?get_arc_types@ArcFormats@@QBE?AV?$list@V?$vector@EV?$allocator@E@std@@@std@@V?$allocator@V?$vector@EV?$allocator@E@std@@@std@@@2@@std@@XZ 100021b0 f   archive.obj
 0001:000012c0       ?find_by_name@ArcFormats@@QBE?AV?$list@V?$vector@EV?$allocator@E@std@@@std@@V?$allocator@V?$vector@EV?$allocator@E@std@@@std@@@2@@std@@ABV?$basic_string@_WU?$char_traits@_W@std@@V?$allocator@_W@2@@3@@Z 100022c0 f   archive.obj
 0001:000014a0       ?find_by_ext@ArcFormats@@QBE?AV?$list@V?$vector@EV?$allocator@E@std@@@std@@V?$allocator@V?$vector@EV?$allocator@E@std@@@std@@@2@@std@@ABV?$basic_string@_WU?$char_traits@_W@std@@V?$allocator@_W@2@@3@@Z 100024a0 f   archive.obj
 0001:000017c0       ?find_by_name@SfxModules@@QBEIABV?$basic_string@_WU?$char_traits@_W@std@@V?$allocator@_W@2@@std@@@Z 100027c0 f   archive.obj
 0001:000019a0       ?to_string@ArcChain@@QBE?AV?$basic_string@_WU?$char_traits@_W@std@@V?$allocator@_W@2@@std@@XZ 100029a0 f   archive.obj
 0001:00001d10       ??0MyCompressCodecsInfo@@QAE@ABV?$vector@UArcLib@@V?$allocator@UArcLib@@@std@@@std@@ABV?$vector@UCDllCodecInfo@@V?$allocator@UCDllCodecInfo@@@std@@@2@ABV?$vector@UCDllHasherInfo@@V?$allocator@UCDllHasherInfo@@@std@@@2@I@Z 10002d10 f i archive.obj
 0001:00002010       ?QueryInterface@MyCompressCodecsInfo@@UAGJABU_GUID@@PAPAX@Z 10003010 f i archive.obj
 0001:000020f0       ?AddRef@MyCompressCodecsInfo@@UAGKXZ 100030f0 f i archive.obj
 0001:000020f0       ?AddRef@ArchiveUpdater@@UAGKXZ 100030f0 f i update.obj
 0001:000020f0       ?AddRef@FileReadStream@@UAGKXZ 100030f0 f i update.obj
 0001:000020f0       ?AddRef@ArchiveExtractor@@UAGKXZ 100030f0 f i extract.obj
 0001:000020f0       ?AddRef@ArchiveTester@@UAGKXZ 100030f0 f i test.obj
 0001:00002100       ?Release@FileReadStream@@UAGKXZ 10003100 f i update.obj
 0001:00002100       ?Release@ArchiveUpdater@@UAGKXZ 10003100 f i update.obj
 0001:00002100       ?Release@MyCompressCodecsInfo@@UAGKXZ 10003100 f i archive.obj
 0001:00002100       ?Release@ArchiveExtractor@@UAGKXZ 10003100 f i extract.obj
 0001:00002100       ?Release@ArchiveTester@@UAGKXZ 10003100 f i test.obj
 0001:00002120       ?GetNumHashers@MyCompressCodecsInfo@@UAGIXZ 10003120 f i archive.obj
 0001:00002130       ?GetHasherProp@MyCompressCodecsInfo@@UAGJIKPAUtagPROPVARIANT@@@Z 10003130 f i archive.obj
 0001:00002160       ?CreateHasher@MyCompressCodecsInfo@@UAGJIPAPAUIHasher@@@Z 10003160 f i archive.obj
 0001:00002190       ?GetNumMethods@MyCompressCodecsInfo@@UAGJPAI@Z 10003190 f i archive.obj
 0001:000021b0       ?GetProperty@MyCompressCodecsInfo@@UAGJIKPAUtagPROPVARIANT@@@Z 100031b0 f i archive.obj
 0001:000022a0       ?CreateDecoder@MyCompressCodecsInfo@@UAGJIPBU_GUID@@PAPAX@Z 100032a0 f i archive.obj
 0001:000022f0       ?CreateEncoder@MyCompressCodecsInfo@@UAGJIPBU_GUID@@PAPAX@Z 100032f0 f i archive.obj
 0001:00002340       ??_EMyCompressCodecsInfo@@UAEPAXI@Z 10003340 f i * CIL library *:* CIL module *
 0001:00002340       ??_GMyCompressCodecsInfo@@UAEPAXI@Z 10003340 f i archive.obj
 0001:000023d0       ??1CDllCodecInfo@@QAE@XZ   100033d0 f i archive.obj
 0001:00002430       ?get@ArcAPI@@CAPAV1@XZ     10003430 f   archive.obj
 0001:00002550       ?load_libs@ArcAPI@@AAEXABV?$basic_string@_WU?$char_traits@_W@std@@V?$allocator@_W@2@@std@@@Z 10003550 f   archive.obj
 0001:00002af0       ??1ArcLib@@QAE@XZ          10003af0 f i archive.obj
 0001:00002b90       ?load_codecs@ArcAPI@@AAEXABV?$basic_string@_WU?$char_traits@_W@std@@V?$allocator@_W@2@@std@@@Z 10003b90 f   archive.obj
 0001:000035d0       ?find@@YAPBUSfxModuleInfo@@ABV?$basic_string@_WU?$char_traits@_W@std@@V?$allocator@_W@2@@std@@@Z 100045d0 f   archive.obj
 0001:000038f0       ?description@SfxModule@@QBE?AV?$basic_string@_WU?$char_traits@_W@std@@V?$allocator@_W@2@@std@@XZ 100048f0 f   archive.obj
 0001:00003bb0       ?find_sfx_modules@ArcAPI@@AAEXABV?$basic_string@_WU?$char_traits@_W@std@@V?$allocator@_W@2@@std@@@Z 10004bb0 f   archive.obj
 0001:00003ff0       ??1IdLang@@QAE@XZ          10004ff0 f i rsrc.obj
 0001:00003ff0       ??1FileIndexInfo@@QAE@XZ   10004ff0 f i update.obj
 0001:00003ff0       ??1?$basic_string@_WU?$char_traits@_W@std@@V?$allocator@_W@2@@std@@QAE@XZ 10004ff0 f i archive.obj
 0001:00003ff0       ??1RsrcId@@QAE@XZ          10004ff0 f i rsrc.obj
 0001:00003ff0       ?_Tidy_deallocate@?$basic_string@_WU?$char_traits@_W@std@@V?$allocator@_W@2@@std@@AAEXXZ 10004ff0 f i archive.obj
 0001:00003ff0       ??1CacheRecord@FileWriteCache@@QAE@XZ 10004ff0 f i extract.obj
 0001:00003ff0       ??1SfxModule@@QAE@XZ       10004ff0 f i archive.obj
 0001:00004250       ?load@ArcAPI@@AAEXXZ       10005250 f   archive.obj
 0001:000058c0       ??1ArcFormat@@QAE@XZ       100068c0 f i archive.obj
 0001:000059a0       ??_GArcAPI@@AAEPAXI@Z      100069a0 f i archive.obj
 0001:00005ad0       ?get_default_name@Archive@@ABE?AV?$basic_string@_WU?$char_traits@_W@std@@V?$allocator@_W@2@@std@@XZ 10006ad0 f   archive.obj
 0001:00005e10       ?get_temp_file_name@Archive@@ABE?AV?$basic_string@_WU?$char_traits@_W@std@@V?$allocator@_W@2@@std@@XZ 10006e10 f   archive.obj
 0001:00005f90       ?make_index@Archive@@QAEXXZ 10006f90 f   archive.obj
 0001:00006ed0       ??1?$map@IIU?$less@I@std@@V?$allocator@U?$pair@$$CBII@std@@@2@@std@@QAE@XZ 10007ed0 f i archive.obj
 0001:00006ed0       ??1?$map@HIU?$less@H@std@@V?$allocator@U?$pair@$$CBHI@std@@@2@@std@@QAE@XZ 10007ed0 f i ui.obj
 0001:00006f60       ??1ArcFileInfo@@QAE@XZ     10007f60 f i archive.obj
 0001:00006fc0       ??1?$stack@IV?$deque@IV?$allocator@I@std@@@std@@@std@@QAE@XZ 10007fc0 f i archive.obj
 0001:00006fd0       ?find_dir@Archive@@QAEIABV?$basic_string@_WU?$char_traits@_W@std@@V?$allocator@_W@2@@std@@@Z 10007fd0 f   archive.obj
 0001:00007300       ?get_dir_list@Archive@@QAE?AU?$pair@V?$_Vector_const_iterator@V?$_Vector_val@U?$_Simple_types@I@std@@@std@@@std@@V12@@std@@I@Z 10008300 f   archive.obj
 0001:000073a0       ?get_path@Archive@@QAE?AV?$basic_string@_WU?$char_traits@_W@std@@V?$allocator@_W@2@@std@@I@Z 100083a0 f   archive.obj
 0001:000075f0       ?get_file_info@Archive@@QAE?AUFindData@@I@Z 100085f0 f   archive.obj
 0001:000076c0       ?get_main_file@Archive@@QBE_NAAI@Z 100086c0 f   archive.obj
 0001:00007770       ?get_attr@Archive@@QBEKI@Z 10008770 f   archive.obj
 0001:00007870       ?get_size@Archive@@QBE_KI@Z 10008870 f   archive.obj
 0001:00007960       ?get_ctime@Archive@@QBE?AU_FILETIME@@I@Z 10008960 f   archive.obj
 0001:00007a70       ?get_mtime@Archive@@QBE?AU_FILETIME@@I@Z 10008a70 f   archive.obj
 0001:00007b80       ?get_atime@Archive@@QBE?AU_FILETIME@@I@Z 10008b80 f   archive.obj
 0001:00007c90       ?get_anti@Archive@@QBE_NI@Z 10008c90 f   archive.obj
 0001:00007d50       ?read_open_results@Archive@@QAEXXZ 10008d50 f   archive.obj
 0001:000088b0       ??1?$deque@IV?$allocator@I@std@@@std@@QAE@XZ 100098b0 f i archive.obj
 0001:00008960       ??A?$map@IIU?$less@I@std@@V?$allocator@U?$pair@$$CBII@std@@@2@@std@@QAEAAIABI@Z 10009960 f i archive.obj
 0001:00008a20       ??1?$_Tree@V?$_Tmap_traits@IIU?$less@I@std@@V?$allocator@U?$pair@$$CBII@std@@@2@$0A@@std@@@std@@QAE@XZ 10009a20 f i archive.obj
 0001:00008a20       ??1?$_Tree@V?$_Tmap_traits@HIU?$less@H@std@@V?$allocator@U?$pair@$$CBHI@std@@@2@$0A@@std@@@std@@QAE@XZ 10009a20 f i ui.obj
 0001:00008a60       ??1?$Buffer@UFarDialogItem@@@@QAE@XZ 10009a60 f i farutils.obj
 0001:00008a60       ??1?$Buffer@UFarListItem@@@@QAE@XZ 10009a60 f i farutils.obj
 0001:00008a60       ??1?$Buffer@_W@@QAE@XZ     10009a60 f i farutils.obj
 0001:00008a60       ??1?$Buffer@E@@QAE@XZ      10009a60 f i plugin.obj
 0001:00008a60       ??1?$Buffer@UFarList@@@@QAE@XZ 10009a60 f i farutils.obj
 0001:00008a60       ??1?$Buffer@D@@QAE@XZ      10009a60 f i archive.obj
 0001:00008a70       ?push_back@?$vector@UArcFileInfo@@V?$allocator@UArcFileInfo@@@std@@@std@@QAEXABUArcFileInfo@@@Z 10009a70 f i archive.obj
 0001:00008ac0       ??1?$vector@UStrPos@@V?$allocator@UStrPos@@@std@@@std@@QAE@XZ 10009ac0 f i open.obj
 0001:00008ac0       ??1?$vector@USigData@@V?$allocator@USigData@@@std@@@std@@QAE@XZ 10009ac0 f i open.obj
 0001:00008ac0       ??1?$vector@UCDllHasherInfo@@V?$allocator@UCDllHasherInfo@@@std@@@std@@QAE@XZ 10009ac0 f i archive.obj
 0001:00008b20       ??1?$vector@UCDllCodecInfo@@V?$allocator@UCDllCodecInfo@@@std@@@std@@QAE@XZ 10009b20 f i archive.obj
 0001:00008b90       ??1?$vector@UArcLib@@V?$allocator@UArcLib@@@std@@@std@@QAE@XZ 10009b90 f i archive.obj
 0001:00008c10       ??1?$vector@USfxModule@@V?$allocator@USfxModule@@@std@@@std@@QAE@XZ 10009c10 f i archive.obj
 0001:00008c10       ?_Tidy@?$vector@V?$basic_string@_WU?$char_traits@_W@std@@V?$allocator@_W@2@@std@@V?$allocator@V?$basic_string@_WU?$char_traits@_W@std@@V?$allocator@_W@2@@std@@@2@@std@@AAEXXZ 10009c10 f i plugin.obj
 0001:00008c80       ?at@?$map@V?$vector@EV?$allocator@E@std@@@std@@UArcFormat@@U?$less@V?$vector@EV?$allocator@E@std@@@std@@@2@V?$allocator@U?$pair@$$CBV?$vector@EV?$allocator@E@std@@@std@@UArcFormat@@@std@@@2@@std@@QBEABUArcFormat@@ABV?$vector@EV?$allocator@E@std@@@2@@Z 10009c80 f i archive.obj
 0001:00008cd0       ??A?$map@V?$vector@EV?$allocator@E@std@@@std@@UArcFormat@@U?$less@V?$vector@EV?$allocator@E@std@@@std@@@2@V?$allocator@U?$pair@$$CBV?$vector@EV?$allocator@E@std@@@std@@UArcFormat@@@std@@@2@@std@@QAEAAUArcFormat@@ABV?$vector@EV?$allocator@E@std@@@1@@Z 10009cd0 f i archive.obj
 0001:00008db0       ??1?$vector@V?$vector@EV?$allocator@E@std@@@std@@V?$allocator@V?$vector@EV?$allocator@E@std@@@std@@@2@@std@@QAE@XZ 10009db0 f i archive.obj
 0001:00008dc0       ??A?$map@V?$basic_string@_WU?$char_traits@_W@std@@V?$allocator@_W@2@@std@@V12@U?$less@V?$basic_string@_WU?$char_traits@_W@std@@V?$allocator@_W@2@@std@@@2@V?$allocator@U?$pair@$$CBV?$basic_string@_WU?$char_traits@_W@std@@V?$allocator@_W@2@@std@@V12@@std@@@2@@std@@QAEAAV?$basic_string@_WU?$char_traits@_W@std@@V?$allocator@_W@2@@1@$$QAV21@@Z 10009dc0 f i archive.obj
 0001:00008f10       ??4?$vector@EV?$allocator@E@std@@@std@@QAEAAV01@ABV01@@Z 10009f10 f i archive.obj
 0001:00008f60       ??1ArcEntry@@QAE@XZ        10009f60 f i plugin.obj
 0001:00008f60       ??1?$vector@EV?$allocator@E@std@@@std@@QAE@XZ 10009f60 f i archive.obj
 0001:00008f60       ??1VersionEncoder@@QAE@XZ  10009f60 f i rsrc.obj
 0001:00008fb0       ??0?$vector@EV?$allocator@E@std@@@std@@QAE@ABV01@@Z 10009fb0 f i archive.obj
 0001:00009020       ??1?$list@V?$vector@EV?$allocator@E@std@@@std@@V?$allocator@V?$vector@EV?$allocator@E@std@@@std@@@2@@std@@QAE@XZ 1000a020 f i archive.obj
 0001:00009040       ??4?$list@V?$basic_string@_WU?$char_traits@_W@std@@V?$allocator@_W@2@@std@@V?$allocator@V?$basic_string@_WU?$char_traits@_W@std@@V?$allocator@_W@2@@std@@@2@@std@@QAEAAV01@ABV01@@Z 1000a040 f i archive.obj
 0001:00009130       ??1?$list@V?$basic_string@_WU?$char_traits@_W@std@@V?$allocator@_W@2@@std@@V?$allocator@V?$basic_string@_WU?$char_traits@_W@std@@V?$allocator@_W@2@@std@@@2@@std@@QAE@XZ 1000a130 f i archive.obj
 0001:00009150       ??0?$list@V?$basic_string@_WU?$char_traits@_W@std@@V?$allocator@_W@2@@std@@V?$allocator@V?$basic_string@_WU?$char_traits@_W@std@@V?$allocator@_W@2@@std@@@2@@std@@QAE@V?$initializer_list@V?$basic_string@_WU?$char_traits@_W@std@@V?$allocator@_W@2@@std@@@1@@Z 1000a150 f i archive.obj
 0001:000092a0       ?push_back@?$list@V?$basic_string@_WU?$char_traits@_W@std@@V?$allocator@_W@2@@std@@V?$allocator@V?$basic_string@_WU?$char_traits@_W@std@@V?$allocator@_W@2@@std@@@2@@std@@QAEX$$QAV?$basic_string@_WU?$char_traits@_W@std@@V?$allocator@_W@2@@2@@Z 1000a2a0 f i archive.obj
 0001:00009370       ??0?$list@V?$basic_string@_WU?$char_traits@_W@std@@V?$allocator@_W@2@@std@@V?$allocator@V?$basic_string@_WU?$char_traits@_W@std@@V?$allocator@_W@2@@std@@@2@@std@@QAE@ABV01@@Z 1000a370 f i archive.obj
 0001:000094c0       ?substr@?$basic_string@_WU?$char_traits@_W@std@@V?$allocator@_W@2@@std@@QBE?AV12@II@Z 1000a4c0 f i archive.obj
 0001:00009510       ?empty@?$basic_string@_WU?$char_traits@_W@std@@V?$allocator@_W@2@@std@@QBE_NXZ 1000a510 f i archive.obj
 0001:00009520       ?clear@?$basic_string@_WU?$char_traits@_W@std@@V?$allocator@_W@2@@std@@QAEXXZ 1000a520 f i archive.obj
 0001:00009540       ?erase@?$basic_string@_WU?$char_traits@_W@std@@V?$allocator@_W@2@@std@@QAEAAV12@II@Z 1000a540 f i archive.obj
 0001:000095a0       ?insert@?$basic_string@_WU?$char_traits@_W@std@@V?$allocator@_W@2@@std@@QAEAAV12@II_W@Z 1000a5a0 f i archive.obj
 0001:00009700       ??R<lambda_1>@?1??insert@?$basic_string@_WU?$char_traits@_W@std@@V?$allocator@_W@2@@std@@QAEAAV23@II_W@Z@QBEXQA_WQB_WIII0@Z 1000a700 f i archive.obj
 0001:00009780       ?assign@?$basic_string@_WU?$char_traits@_W@std@@V?$allocator@_W@2@@std@@QAEAAV12@ABV12@@Z 1000a780 f i plugin.obj
 0001:00009780       ??4?$basic_string@_WU?$char_traits@_W@std@@V?$allocator@_W@2@@std@@QAEAAV01@ABV01@@Z 1000a780 f i archive.obj
 0001:000097b0       ??4?$basic_string@_WU?$char_traits@_W@std@@V?$allocator@_W@2@@std@@QAEAAV01@$$QAV01@@Z 1000a7b0 f i archive.obj
 0001:00009850       ??0?$basic_string@_WU?$char_traits@_W@std@@V?$allocator@_W@2@@std@@QAE@QB_W@Z 1000a850 f i archive.obj
 0001:00009890       ??0?$basic_string@_WU?$char_traits@_W@std@@V?$allocator@_W@2@@std@@QAE@XZ 1000a890 f i archive.obj
 0001:000098b0       ??0?$basic_string@_WU?$char_traits@_W@std@@V?$allocator@_W@2@@std@@QAE@ABV01@@Z 1000a8b0 f i archive.obj
 0001:00009940       ??1?$_Tidy_guard@V?$vector@EV?$allocator@E@std@@@std@@@std@@QAE@XZ 1000a940 f i archive.obj
 0001:000099a0       ?_Xlength@?$vector@VPropVariant@@V?$allocator@VPropVariant@@@std@@@std@@CAXXZ 1000a9a0 f i update.obj
 0001:000099a0       ?_Xlength@?$vector@V?$shared_ptr@VArchive@@@std@@V?$allocator@V?$shared_ptr@VArchive@@@std@@@2@@std@@CAXXZ 1000a9a0 f i open.obj
 0001:000099a0       ?_Xlength@?$vector@USfxModule@@V?$allocator@USfxModule@@@std@@@std@@CAXXZ 1000a9a0 f i archive.obj
 0001:000099a0       ?_Xlength@?$vector@UDialogItem@Far@@V?$allocator@UDialogItem@Far@@@std@@@std@@CAXXZ 1000a9a0 f i farutils.obj
 0001:000099a0       ?_Xlength@?$vector@UStrPos@@V?$allocator@UStrPos@@@std@@@std@@CAXXZ 1000a9a0 f i msearch.obj
 0001:000099a0       ?_Xlength@?$vector@PB_WV?$allocator@PB_W@std@@@std@@CAXXZ 1000a9a0 f i update.obj
 0001:000099a0       ?_Xlength@?$vector@USigData@@V?$allocator@USigData@@@std@@@std@@CAXXZ 1000a9a0 f i open.obj
 0001:000099a0       ?_Xlength@?$vector@UFarMenuItem@@V?$allocator@UFarMenuItem@@@std@@@std@@CAXXZ 1000a9a0 f i farutils.obj
 0001:000099a0       ?_Xlength@?$vector@UCDllCodecInfo@@V?$allocator@UCDllCodecInfo@@@std@@@std@@CAXXZ 1000a9a0 f i archive.obj
 0001:000099a0       ?_Xlength@?$vector@UUpdateProfile@@V?$allocator@UUpdateProfile@@@std@@@std@@CAXXZ 1000a9a0 f i options.obj
 0001:000099a0       ?_Xlength@?$vector@V?$vector@EV?$allocator@E@std@@@std@@V?$allocator@V?$vector@EV?$allocator@E@std@@@std@@@2@@std@@CAXXZ 1000a9a0 f i archive.obj
 0001:000099a0       ?_Xlength@?$vector@UExternalCodec@@V?$allocator@UExternalCodec@@@std@@@std@@CAXXZ 1000a9a0 f i options.obj
 0001:000099a0       ?_Xlength@?$vector@USfxProfile@@V?$allocator@USfxProfile@@@std@@@std@@CAXXZ 1000a9a0 f i sfx.obj
 0001:000099a0       ?_Xlength@?$vector@UInfoPanelLine@@V?$allocator@UInfoPanelLine@@@std@@@std@@CAXXZ 1000a9a0 f i plugin.obj
 0001:000099a0       ?_Xlength@?$vector@UCDllHasherInfo@@V?$allocator@UCDllHasherInfo@@@std@@@std@@CAXXZ 1000a9a0 f i archive.obj
 0001:000099a0       ?_Xlength@?$vector@UFarListItem@@V?$allocator@UFarListItem@@@std@@@std@@CAXXZ 1000a9a0 f i ui.obj
 0001:000099a0       ?_Xlength@?$vector@IV?$allocator@I@std@@@std@@CAXXZ 1000a9a0 f i archive.obj
 0001:000099a0       ?_Xlength@?$vector@UArcFileInfo@@V?$allocator@UArcFileInfo@@@std@@@std@@CAXXZ 1000a9a0 f i archive.obj
 0001:000099a0       ?_Xlength@?$vector@V?$basic_string@_WU?$char_traits@_W@std@@V?$allocator@_W@2@@std@@V?$allocator@V?$basic_string@_WU?$char_traits@_W@std@@V?$allocator@_W@2@@std@@@2@@std@@CAXXZ 1000a9a0 f i plugin.obj
 0001:000099a0       ?_Xlength@?$vector@UArcLib@@V?$allocator@UArcLib@@@std@@@std@@CAXXZ 1000a9a0 f i archive.obj
 0001:000099a0       ?_Xlength@?$vector@EV?$allocator@E@std@@@std@@CAXXZ 1000a9a0 f i archive.obj
 0001:000099b0       ?_Destroy@?$vector@UArcFileInfo@@V?$allocator@UArcFileInfo@@@std@@@std@@AAEXPAUArcFileInfo@@0@Z 1000a9b0 f i archive.obj
 0001:000099d0       ?_Reallocate_exactly@?$vector@UArcFileInfo@@V?$allocator@UArcFileInfo@@@std@@@std@@AAEXI@Z 1000a9d0 f i archive.obj
 0001:00009a60       ?_Reallocate_exactly@?$vector@PB_WV?$allocator@PB_W@std@@@std@@AAEXI@Z 1000aa60 f i update.obj
 0001:00009a60       ?_Reallocate_exactly@?$vector@IV?$allocator@I@std@@@std@@AAEXI@Z 1000aa60 f i archive.obj
 0001:00009b30       ?_Tidy@?$vector@V?$vector@EV?$allocator@E@std@@@std@@V?$allocator@V?$vector@EV?$allocator@E@std@@@std@@@2@@std@@AAEXXZ 1000ab30 f i archive.obj
 0001:00009ba0       ?_Destroy@?$vector@V?$vector@EV?$allocator@E@std@@@std@@V?$allocator@V?$vector@EV?$allocator@E@std@@@std@@@2@@std@@AAEXPAV?$vector@EV?$allocator@E@std@@@2@0@Z 1000aba0 f i archive.obj
 0001:00009bc0       ?_Getal@?$_Tree@V?$_Tset_traits@V?$basic_string@_WU?$char_traits@_W@std@@V?$allocator@_W@2@@std@@U?$less@V?$basic_string@_WU?$char_traits@_W@std@@V?$allocator@_W@2@@std@@@2@V?$allocator@V?$basic_string@_WU?$char_traits@_W@std@@V?$allocator@_W@2@@std@@@2@$0A@@std@@@std@@IAEAAV?$allocator@U?$_Tree_node@V?$basic_string@_WU?$char_traits@_W@std@@V?$allocator@_W@2@@std@@PAX@std@@@2@XZ 1000abc0 f i plugin.obj
 0001:00009bc0       ?_Getal@?$_Tree@V?$_Tmap_traits@V?$basic_string@_WU?$char_traits@_W@std@@V?$allocator@_W@2@@std@@V12@U?$less@V?$basic_string@_WU?$char_traits@_W@std@@V?$allocator@_W@2@@std@@@2@V?$allocator@U?$pair@$$CBV?$basic_string@_WU?$char_traits@_W@std@@V?$allocator@_W@2@@std@@V12@@std@@@2@$0A@@std@@@std@@IAEAAV?$allocator@U?$_Tree_node@U?$pair@$$CBV?$basic_string@_WU?$char_traits@_W@std@@V?$allocator@_W@2@@std@@V12@@std@@PAX@std@@@2@XZ 1000abc0 f i archive.obj
 0001:00009bd0       ?_Buy_raw@?$vector@EV?$allocator@E@std@@@std@@AAEXI@Z 1000abd0 f i archive.obj
 0001:00009c50       ?replace@?$basic_string@_WU?$char_traits@_W@std@@V?$allocator@_W@2@@std@@QAEAAV12@IIQB_WI@Z 1000ac50 f i archive.obj
 0001:00009df0       ?insert@?$basic_string@_WU?$char_traits@_W@std@@V?$allocator@_W@2@@std@@QAEAAV12@IQB_WI@Z 1000adf0 f i archive.obj
 0001:00009fa0       ?assign@?$basic_string@_WU?$char_traits@_W@std@@V?$allocator@_W@2@@std@@QAEAAV12@QB_W@Z 1000afa0 f i archive.obj
 0001:00009fa0       ??4?$basic_string@_WU?$char_traits@_W@std@@V?$allocator@_W@2@@std@@QAEAAV01@QB_W@Z 1000afa0 f i plugin.obj
 0001:00009fd0       ?append@?$basic_string@_WU?$char_traits@_W@std@@V?$allocator@_W@2@@std@@QAEAAV12@QB_WI@Z 1000afd0 f i archive.obj
 0001:0000a150       ?append@?$basic_string@_WU?$char_traits@_W@std@@V?$allocator@_W@2@@std@@QAEAAV12@ABV12@@Z 1000b150 f i archive.obj
 0001:0000a170       ??E?$_Tree_unchecked_const_iterator@V?$_Tree_val@U?$_Tree_simple_types@U?$pair@$$CBIUFileIndexInfo@@@std@@@std@@@std@@U_Iterator_base0@2@@std@@QAEAAV01@XZ 1000b170 f i update.obj
 0001:0000a170       ??E?$_Tree_unchecked_const_iterator@V?$_Tree_val@U?$_Tree_simple_types@U?$pair@$$CBV?$vector@EV?$allocator@E@std@@@std@@UArcFormat@@@std@@@std@@@std@@U_Iterator_base0@2@@std@@QAEAAV01@XZ 1000b170 f i archive.obj
 0001:0000a170       ??E?$_Tree_unchecked_const_iterator@V?$_Tree_val@U?$_Tree_simple_types@V?$basic_string@_WU?$char_traits@_W@std@@V?$allocator@_W@2@@std@@@std@@@std@@U_Iterator_base0@2@@std@@QAEAAV01@XZ 1000b170 f i plugin.obj
 0001:0000a1d0       ?_Change_array@?$vector@UArcFileInfo@@V?$allocator@UArcFileInfo@@@std@@@std@@AAEXQAUArcFileInfo@@II@Z 1000b1d0 f i archive.obj
 0001:0000a240       ?allocate@?$allocator@UFarMenuItem@@@std@@QAEPAUFarMenuItem@@I@Z 1000b240 f i farutils.obj
 0001:0000a240       ?allocate@?$allocator@UArcFileInfo@@@std@@QAEPAUArcFileInfo@@I@Z 1000b240 f i archive.obj
 0001:0000a2a0       ?deallocate@?$allocator@UArcFileInfo@@@std@@QAEXQAUArcFileInfo@@I@Z 1000b2a0 f i archive.obj
 0001:0000a2e0       ?_Change_array@?$vector@IV?$allocator@I@std@@@std@@AAEXQAIII@Z 1000b2e0 f i archive.obj
 0001:0000a2e0       ?_Change_array@?$vector@PB_WV?$allocator@PB_W@std@@@std@@AAEXQAPB_WII@Z 1000b2e0 f i update.obj
 0001:0000a340       ?allocate@?$allocator@I@std@@QAEPAII@Z 1000b340 f i archive.obj
 0001:0000a340       ?allocate@?$allocator@PB_W@std@@QAEPAPB_WI@Z 1000b340 f i update.obj
 0001:0000a3a0       ?_Destroy@?$vector@UCDllCodecInfo@@V?$allocator@UCDllCodecInfo@@@std@@@std@@AAEXPAUCDllCodecInfo@@0@Z 1000b3a0 f i archive.obj
 0001:0000a3c0       ?deallocate@?$allocator@UCDllCodecInfo@@@std@@QAEXQAUCDllCodecInfo@@I@Z 1000b3c0 f i archive.obj
 0001:0000a400       ?_Destroy@?$vector@UArcLib@@V?$allocator@UArcLib@@@std@@@std@@AAEXPAUArcLib@@0@Z 1000b400 f i archive.obj
 0001:0000a430       ?deallocate@?$allocator@UArcLib@@@std@@QAEXQAUArcLib@@I@Z 1000b430 f i archive.obj
 0001:0000a470       ?_Destroy@?$vector@USfxModule@@V?$allocator@USfxModule@@@std@@@std@@AAEXPAUSfxModule@@0@Z 1000b470 f i archive.obj
 0001:0000a470       ?_Destroy@?$vector@V?$basic_string@_WU?$char_traits@_W@std@@V?$allocator@_W@2@@std@@V?$allocator@V?$basic_string@_WU?$char_traits@_W@std@@V?$allocator@_W@2@@std@@@2@@std@@AAEXPAV?$basic_string@_WU?$char_traits@_W@std@@V?$allocator@_W@2@@2@0@Z 1000b470 f i plugin.obj
 0001:0000a490       ?deallocate@?$allocator@V?$basic_string@_WU?$char_traits@_W@std@@V?$allocator@_W@2@@std@@@std@@QAEXQAV?$basic_string@_WU?$char_traits@_W@std@@V?$allocator@_W@2@@2@I@Z 1000b490 f i plugin.obj
 0001:0000a490       ?deallocate@?$allocator@USfxModule@@@std@@QAEXQAUSfxModule@@I@Z 1000b490 f i archive.obj
 0001:0000a4d0       ?allocate@?$allocator@E@std@@QAEPAEI@Z 1000b4d0 f i archive.obj
 0001:0000a520       ?deallocate@?$allocator@V?$vector@EV?$allocator@E@std@@@std@@@std@@QAEXQAV?$vector@EV?$allocator@E@std@@@2@I@Z 1000b520 f i archive.obj
 0001:0000a560       ?_Xran@?$_String_val@U?$_Simple_types@_W@std@@@std@@SAXXZ 1000b560 f i archive.obj
 0001:0000a570       ??$_Emplace@ABV?$basic_string@_WU?$char_traits@_W@std@@V?$allocator@_W@2@@std@@@?$list@V?$basic_string@_WU?$char_traits@_W@std@@V?$allocator@_W@2@@std@@V?$allocator@V?$basic_string@_WU?$char_traits@_W@std@@V?$allocator@_W@2@@std@@@2@@std@@QAEPAU?$_List_node@V?$basic_string@_WU?$char_traits@_W@std@@V?$allocator@_W@2@@std@@PAX@1@QAU21@ABV?$basic_string@_WU?$char_traits@_W@std@@V?$allocator@_W@2@@1@@Z 1000b570 f i archive.obj
 0001:0000a600       ??$?8_WU?$char_traits@_W@std@@V?$allocator@_W@1@@std@@YA_NABV?$basic_string@_WU?$char_traits@_W@std@@V?$allocator@_W@2@@0@0@Z 1000b600 f i archive.obj
 0001:0000a630       ??$?H_WU?$char_traits@_W@std@@V?$allocator@_W@1@@std@@YA?AV?$basic_string@_WU?$char_traits@_W@std@@V?$allocator@_W@2@@0@ABV10@QB_W@Z 1000b630 f i archive.obj
 0001:0000a700       ??$?H_WU?$char_traits@_W@std@@V?$allocator@_W@1@@std@@YA?AV?$basic_string@_WU?$char_traits@_W@std@@V?$allocator@_W@2@@0@$$QAV10@QB_W@Z 1000b700 f i archive.obj
 0001:0000a780       ??$?9_WU?$char_traits@_W@std@@V?$allocator@_W@1@@std@@YA_NABV?$basic_string@_WU?$char_traits@_W@std@@V?$allocator@_W@2@@0@0@Z 1000b780 f i archive.obj
 0001:0000a7b0       ??$?H_WU?$char_traits@_W@std@@V?$allocator@_W@1@@std@@YA?AV?$basic_string@_WU?$char_traits@_W@std@@V?$allocator@_W@2@@0@$$QAV10@0@Z 1000b7b0 f i archive.obj
 0001:0000a850       ??$?9_WU?$char_traits@_W@std@@V?$allocator@_W@1@@std@@YA_NABV?$basic_string@_WU?$char_traits@_W@std@@V?$allocator@_W@2@@0@QB_W@Z 1000b850 f i archive.obj
 0001:0000a890       ??$?8_WU?$char_traits@_W@std@@V?$allocator@_W@1@@std@@YA_NABV?$basic_string@_WU?$char_traits@_W@std@@V?$allocator@_W@2@@0@QB_W@Z 1000b890 f i archive.obj
 0001:0000acd0       ??$_Find_lower_bound@I@?$_Tree@V?$_Tmap_traits@IIU?$less@I@std@@V?$allocator@U?$pair@$$CBII@std@@@2@$0A@@std@@@std@@IBE?AU?$_Tree_find_result@PAU?$_Tree_node@U?$pair@$$CBII@std@@PAX@std@@@1@ABI@Z 1000bcd0 f i archive.obj
 0001:0000acd0       ??$_Find_lower_bound@I@?$_Tree@V?$_Tmap_traits@IUFileIndexInfo@@U?$less@I@std@@V?$allocator@U?$pair@$$CBIUFileIndexInfo@@@std@@@3@$0A@@std@@@std@@IBE?AU?$_Tree_find_result@PAU?$_Tree_node@U?$pair@$$CBIUFileIndexInfo@@@std@@PAX@std@@@1@ABI@Z 1000bcd0 f i update.obj
 0001:0000ad20       ??$_Emplace_reallocate@ABUArcFileInfo@@@?$vector@UArcFileInfo@@V?$allocator@UArcFileInfo@@@std@@@std@@QAEPAUArcFileInfo@@QAU2@ABU2@@Z 1000bd20 f i archive.obj
 0001:0000ae60       ??$_Emplace_reallocate@ABI@?$vector@IV?$allocator@I@std@@@std@@QAEPAIQAIABI@Z 1000be60 f i archive.obj
 0001:0000ae60       ??$_Emplace_reallocate@PB_W@?$vector@PB_WV?$allocator@PB_W@std@@@std@@QAEPAPB_WQAPB_W$$QAPB_W@Z 1000be60 f i update.obj
 0001:0000ae60       ??$_Emplace_reallocate@I@?$vector@IV?$allocator@I@std@@@std@@QAEPAIQAI$$QAI@Z 1000be60 f i plugin.obj
 0001:0000af30       ??$_Emplace_reallocate@ABUCDllHasherInfo@@@?$vector@UCDllHasherInfo@@V?$allocator@UCDllHasherInfo@@@std@@@std@@QAEPAUCDllHasherInfo@@QAU2@ABU2@@Z 1000bf30 f i archive.obj
 0001:0000b090       ??$construct@UCDllCodecInfo@@ABU1@@?$_Default_allocator_traits@V?$allocator@UCDllCodecInfo@@@std@@@std@@SAXAAV?$allocator@UCDllCodecInfo@@@1@QAUCDllCodecInfo@@ABU3@@Z 1000c090 f i archive.obj
 0001:0000b0f0       ??$_Emplace_reallocate@ABUCDllCodecInfo@@@?$vector@UCDllCodecInfo@@V?$allocator@UCDllCodecInfo@@@std@@@std@@QAEPAUCDllCodecInfo@@QAU2@ABU2@@Z 1000c0f0 f i archive.obj
 0001:0000b340       ??$_Emplace_reallocate@ABUArcLib@@@?$vector@UArcLib@@V?$allocator@UArcLib@@@std@@@std@@QAEPAUArcLib@@QAU2@ABU2@@Z 1000c340 f i archive.obj
 0001:0000b570       ??$_Emplace_reallocate@ABUSfxModule@@@?$vector@USfxModule@@V?$allocator@USfxModule@@@std@@@std@@QAEPAUSfxModule@@QAU2@ABU2@@Z 1000c570 f i archive.obj
 0001:0000b760       ??$_Find_lower_bound@V?$vector@EV?$allocator@E@std@@@std@@@?$_Tree@V?$_Tmap_traits@V?$vector@EV?$allocator@E@std@@@std@@UArcFormat@@U?$less@V?$vector@EV?$allocator@E@std@@@std@@@2@V?$allocator@U?$pair@$$CBV?$vector@EV?$allocator@E@std@@@std@@UArcFormat@@@std@@@2@$0A@@std@@@std@@IBE?AU?$_Tree_find_result@PAU?$_Tree_node@U?$pair@$$CBV?$vector@EV?$allocator@E@std@@@std@@UArcFormat@@@std@@PAX@std@@@1@ABV?$vector@EV?$allocator@E@std@@@1@@Z 1000c760 f i archive.obj
 0001:0000b760       ??$_Find_lower_bound@V?$vector@EV?$allocator@E@std@@@std@@@?$_Tree@V?$_Tset_traits@V?$vector@EV?$allocator@E@std@@@std@@U?$less@V?$vector@EV?$allocator@E@std@@@std@@@2@V?$allocator@V?$vector@EV?$allocator@E@std@@@std@@@2@$0A@@std@@@std@@IBE?AU?$_Tree_find_result@PAU?$_Tree_node@V?$vector@EV?$allocator@E@std@@@std@@PAX@std@@@1@ABV?$vector@EV?$allocator@E@std@@@1@@Z 1000c760 f i open.obj
 0001:0000b840       ??$_Emplace_reallocate@ABV?$vector@EV?$allocator@E@std@@@std@@@?$vector@V?$vector@EV?$allocator@E@std@@@std@@V?$allocator@V?$vector@EV?$allocator@E@std@@@std@@@2@@std@@QAEPAV?$vector@EV?$allocator@E@std@@@1@QAV21@ABV21@@Z 1000c840 f i archive.obj
 0001:0000b9e0       ??$_Destroy_range@V?$allocator@UArcFileInfo@@@std@@@std@@YAXPAUArcFileInfo@@QAU1@AAV?$allocator@UArcFileInfo@@@0@@Z 1000c9e0 f i archive.obj
 0001:0000ba50       ??$_Destroy_range@V?$allocator@V?$vector@EV?$allocator@E@std@@@std@@@std@@@std@@YAXPAV?$vector@EV?$allocator@E@std@@@0@QAV10@AAV?$allocator@V?$vector@EV?$allocator@E@std@@@std@@@0@@Z 1000ca50 f i archive.obj
 0001:0000bac0       ??$_Free_non_head@V?$allocator@U?$_List_node@V?$vector@EV?$allocator@E@std@@@std@@PAX@std@@@std@@@?$_List_node@V?$vector@EV?$allocator@E@std@@@std@@PAX@std@@SAXAAV?$allocator@U?$_List_node@V?$vector@EV?$allocator@E@std@@@std@@PAX@std@@@1@PAU01@@Z 1000cac0 f i archive.obj
 0001:0000bb40       ??$_Free_non_head@V?$allocator@U?$_List_node@V?$basic_string@_WU?$char_traits@_W@std@@V?$allocator@_W@2@@std@@PAX@std@@@std@@@?$_List_node@V?$basic_string@_WU?$char_traits@_W@std@@V?$allocator@_W@2@@std@@PAX@std@@SAXAAV?$allocator@U?$_List_node@V?$basic_string@_WU?$char_traits@_W@std@@V?$allocator@_W@2@@std@@PAX@std@@@1@PAU01@@Z 1000cb40 f i archive.obj
 0001:0000bbc0       ??$_Reallocate_grow_by@V<lambda_1>@?1??replace@?$basic_string@_WU?$char_traits@_W@std@@V?$allocator@_W@2@@std@@QAEAAV34@IIQB_WI@Z@IIPB_WI@?$basic_string@_WU?$char_traits@_W@std@@V?$allocator@_W@2@@std@@AAEAAV01@IV<lambda_1>@?1??replace@01@QAEAAV01@IIQB_WI@Z@IIPB_WI@Z 1000cbc0 f i archive.obj
 0001:0000bd40       ??$_Destroy_range@V?$allocator@UCDllCodecInfo@@@std@@@std@@YAXPAUCDllCodecInfo@@QAU1@AAV?$allocator@UCDllCodecInfo@@@0@@Z 1000cd40 f i archive.obj
 0001:0000bdb0       ??$_Destroy_range@V?$allocator@USfxModule@@@std@@@std@@YAXPAUSfxModule@@QAU1@AAV?$allocator@USfxModule@@@0@@Z 1000cdb0 f i archive.obj
 0001:0000bdb0       ??$_Destroy_range@V?$allocator@V?$basic_string@_WU?$char_traits@_W@std@@V?$allocator@_W@2@@std@@@std@@@std@@YAXPAV?$basic_string@_WU?$char_traits@_W@std@@V?$allocator@_W@2@@0@QAV10@AAV?$allocator@V?$basic_string@_WU?$char_traits@_W@std@@V?$allocator@_W@2@@std@@@0@@Z 1000cdb0 f i plugin.obj
 0001:0000be20       ??$_Copy@U_Copy_tag@?$_Tree@V?$_Tmap_traits@V?$basic_string@_WU?$char_traits@_W@std@@V?$allocator@_W@2@@std@@V12@U?$less@V?$basic_string@_WU?$char_traits@_W@std@@V?$allocator@_W@2@@std@@@2@V?$allocator@U?$pair@$$CBV?$basic_string@_WU?$char_traits@_W@std@@V?$allocator@_W@2@@std@@V12@@std@@@2@$0A@@std@@@std@@@?$_Tree@V?$_Tmap_traits@V?$basic_string@_WU?$char_traits@_W@std@@V?$allocator@_W@2@@std@@V12@U?$less@V?$basic_string@_WU?$char_traits@_W@std@@V?$allocator@_W@2@@std@@@2@V?$allocator@U?$pair@$$CBV?$basic_string@_WU?$char_traits@_W@std@@V?$allocator@_W@2@@std@@V12@@std@@@2@$0A@@std@@@std@@IAEXABV01@U_Copy_tag@01@@Z 1000ce20 f i archive.obj
 0001:0000bea0       ??$_Uninitialized_move@PAUArcFileInfo@@V?$allocator@UArcFileInfo@@@std@@@std@@YAPAUArcFileInfo@@QAU1@0PAU1@AAV?$allocator@UArcFileInfo@@@0@@Z 1000cea0 f i archive.obj
 0001:0000bf40       ??$_Erase_tree@V?$allocator@U?$_Tree_node@U?$pair@$$CBV?$basic_string@_WU?$char_traits@_W@std@@V?$allocator@_W@2@@std@@V12@@std@@PAX@std@@@std@@@?$_Tree_val@U?$_Tree_simple_types@U?$pair@$$CBV?$basic_string@_WU?$char_traits@_W@std@@V?$allocator@_W@2@@std@@V12@@std@@@std@@@std@@QAEXAAV?$allocator@U?$_Tree_node@U?$pair@$$CBV?$basic_string@_WU?$char_traits@_W@std@@V?$allocator@_W@2@@std@@V12@@std@@PAX@std@@@1@PAU?$_Tree_node@U?$pair@$$CBV?$basic_string@_WU?$char_traits@_W@std@@V?$allocator@_W@2@@std@@V12@@std@@PAX@1@@Z 1000cf40 f i archive.obj
 0001:0000bf40       ??$_Erase_tree_and_orphan@V?$allocator@U?$_Tree_node@U?$pair@$$CBV?$basic_string@_WU?$char_traits@_W@std@@V?$allocator@_W@2@@std@@V12@@std@@PAX@std@@@std@@@?$_Tree_val@U?$_Tree_simple_types@U?$pair@$$CBV?$basic_string@_WU?$char_traits@_W@std@@V?$allocator@_W@2@@std@@V12@@std@@@std@@@std@@QAEXAAV?$allocator@U?$_Tree_node@U?$pair@$$CBV?$basic_string@_WU?$char_traits@_W@std@@V?$allocator@_W@2@@std@@V12@@std@@PAX@std@@@1@PAU?$_Tree_node@U?$pair@$$CBV?$basic_string@_WU?$char_traits@_W@std@@V?$allocator@_W@2@@std@@V12@@std@@PAX@1@@Z 1000cf40 f i archive.obj
 0001:0000bf90       ??0ArcLib@@QAE@ABU0@@Z     1000cf90 f i archive.obj
 0001:0000c050       ??1?$_List_node_insert_op@V?$allocator@U?$_List_node@V?$basic_string@_WU?$char_traits@_W@std@@V?$allocator@_W@2@@std@@PAX@std@@@std@@@std@@QAE@XZ 1000d050 f i archive.obj
 0001:0000c0d0       ?_Growmap@?$deque@IV?$allocator@I@std@@@std@@AAEXI@Z 1000d0d0 f i archive.obj
 0001:0000c270       ?_Insert_node@?$_Tree_val@U?$_Tree_simple_types@I@std@@@std@@QAEPAU?$_Tree_node@IPAX@2@U?$_Tree_id@PAU?$_Tree_node@IPAX@std@@@2@QAU32@@Z 1000d270 f i extract.obj
 0001:0000c270       ?_Insert_node@?$_Tree_val@U?$_Tree_simple_types@U?$pair@$$CBV?$basic_string@_WU?$char_traits@_W@std@@V?$allocator@_W@2@@std@@V12@@std@@@std@@@std@@QAEPAU?$_Tree_node@U?$pair@$$CBV?$basic_string@_WU?$char_traits@_W@std@@V?$allocator@_W@2@@std@@V12@@std@@PAX@2@U?$_Tree_id@PAU?$_Tree_node@U?$pair@$$CBV?$basic_string@_WU?$char_traits@_W@std@@V?$allocator@_W@2@@std@@V12@@std@@PAX@std@@@2@QAU32@@Z 1000d270 f i archive.obj
 0001:0000c270       ?_Insert_node@?$_Tree_val@U?$_Tree_simple_types@U?$pair@$$CBV?$vector@EV?$allocator@E@std@@@std@@UArcFormat@@@std@@@std@@@std@@QAEPAU?$_Tree_node@U?$pair@$$CBV?$vector@EV?$allocator@E@std@@@std@@UArcFormat@@@std@@PAX@2@U?$_Tree_id@PAU?$_Tree_node@U?$pair@$$CBV?$vector@EV?$allocator@E@std@@@std@@UArcFormat@@@std@@PAX@std@@@2@QAU32@@Z 1000d270 f i archive.obj
 0001:0000c270       ?_Insert_node@?$_Tree_val@U?$_Tree_simple_types@V?$vector@EV?$allocator@E@std@@@std@@@std@@@std@@QAEPAU?$_Tree_node@V?$vector@EV?$allocator@E@std@@@std@@PAX@2@U?$_Tree_id@PAU?$_Tree_node@V?$vector@EV?$allocator@E@std@@@std@@PAX@std@@@2@QAU32@@Z 1000d270 f i open.obj
 0001:0000c270       ?_Insert_node@?$_Tree_val@U?$_Tree_simple_types@U?$pair@$$CBIUFileIndexInfo@@@std@@@std@@@std@@QAEPAU?$_Tree_node@U?$pair@$$CBIUFileIndexInfo@@@std@@PAX@2@U?$_Tree_id@PAU?$_Tree_node@U?$pair@$$CBIUFileIndexInfo@@@std@@PAX@std@@@2@QAU32@@Z 1000d270 f i update.obj
 0001:0000c270       ?_Insert_node@?$_Tree_val@U?$_Tree_simple_types@V?$basic_string@_WU?$char_traits@_W@std@@V?$allocator@_W@2@@std@@@std@@@std@@QAEPAU?$_Tree_node@V?$basic_string@_WU?$char_traits@_W@std@@V?$allocator@_W@2@@std@@PAX@2@U?$_Tree_id@PAU?$_Tree_node@V?$basic_string@_WU?$char_traits@_W@std@@V?$allocator@_W@2@@std@@PAX@std@@@2@QAU32@@Z 1000d270 f i plugin.obj
 0001:0000c270       ?_Insert_node@?$_Tree_val@U?$_Tree_simple_types@U?$pair@$$CBII@std@@@std@@@std@@QAEPAU?$_Tree_node@U?$pair@$$CBII@std@@PAX@2@U?$_Tree_id@PAU?$_Tree_node@U?$pair@$$CBII@std@@PAX@std@@@2@QAU32@@Z 1000d270 f i archive.obj
 0001:0000c270       ?_Insert_node@?$_Tree_val@U?$_Tree_simple_types@U?$pair@$$CBHI@std@@@std@@@std@@QAEPAU?$_Tree_node@U?$pair@$$CBHI@std@@PAX@2@U?$_Tree_id@PAU?$_Tree_node@U?$pair@$$CBHI@std@@PAX@std@@@2@QAU32@@Z 1000d270 f i ui.obj
 0001:0000c480       ?_Umove@?$vector@UArcLib@@V?$allocator@UArcLib@@@std@@@std@@AAEPAUArcLib@@PAU3@00@Z 1000d480 f i archive.obj
 0001:0000c5b0       ??R?$less@V?$vector@EV?$allocator@E@std@@@std@@@std@@QBE_NABV?$vector@EV?$allocator@E@std@@@1@0@Z 1000d5b0 f i archive.obj
 0001:0000c640       ?allocate@?$allocator@V?$vector@EV?$allocator@E@std@@@std@@@std@@QAEPAV?$vector@EV?$allocator@E@std@@@2@I@Z 1000d640 f i archive.obj
 0001:0000c6a0       ?_Equal@?$basic_string@_WU?$char_traits@_W@std@@V?$allocator@_W@2@@std@@QBE_NQB_W@Z 1000d6a0 f i archive.obj
 0001:0000c6f0       ?reserve@?$basic_string@_WU?$char_traits@_W@std@@V?$allocator@_W@2@@std@@QAEXI@Z 1000d6f0 f i archive.obj
 0001:0000c800       ??1?$_Alloc_construct_ptr@V?$allocator@U?$_Tree_node@U?$pair@$$CBV?$vector@EV?$allocator@E@std@@@std@@UArcFormat@@@std@@PAX@std@@@std@@@std@@QAE@XZ 1000d800 f i archive.obj
 0001:0000c800       ??1?$_Tree_temp_node_alloc@V?$allocator@U?$_Tree_node@U?$pair@$$CBV?$vector@EV?$allocator@E@std@@@std@@UArcFormat@@@std@@PAX@std@@@std@@@std@@QAE@XZ 1000d800 f i archive.obj
 0001:0000c820       ??1?$_Alloc_construct_ptr@V?$allocator@U?$_List_node@V?$vector@EV?$allocator@E@std@@@std@@PAX@std@@@std@@@std@@QAE@XZ 1000d820 f i archive.obj
 0001:0000c820       ??1?$_Alloc_construct_ptr@V?$allocator@U?$_Tree_node@IPAX@std@@@std@@@std@@QAE@XZ 1000d820 f i extract.obj
 0001:0000c840       ??1?$_Alloc_construct_ptr@V?$allocator@U?$_Tree_node@U?$pair@$$CBV?$basic_string@_WU?$char_traits@_W@std@@V?$allocator@_W@2@@std@@V12@@std@@PAX@std@@@std@@@std@@QAE@XZ 1000d840 f i archive.obj
 0001:0000c860       ??1?$_Alloc_construct_ptr@V?$allocator@U?$_List_node@UArcEntry@@PAX@std@@@std@@@std@@QAE@XZ 1000d860 f i open.obj
 0001:0000c860       ??1?$_Alloc_construct_ptr@V?$allocator@U?$_Tree_node@U?$pair@$$CBII@std@@PAX@std@@@std@@@std@@QAE@XZ 1000d860 f i archive.obj
 0001:0000c860       ??1?$_Alloc_construct_ptr@V?$allocator@U?$_Tree_node@U?$pair@$$CBHI@std@@PAX@std@@@std@@@std@@QAE@XZ 1000d860 f i ui.obj
 0001:0000c880       ??1?$_Alloc_construct_ptr@V?$allocator@U?$_List_node@V?$basic_string@_WU?$char_traits@_W@std@@V?$allocator@_W@2@@std@@PAX@std@@@std@@@std@@QAE@XZ 1000d880 f i archive.obj
 0001:0000c880       ??1?$_Alloc_construct_ptr@V?$allocator@U?$_List_node@UIconImageRsrc@@PAX@std@@@std@@@std@@QAE@XZ 1000d880 f i rsrc.obj
 0001:0000c8a0       ?_Xlen@?$deque@IV?$allocator@I@std@@@std@@ABEXXZ 1000d8a0 f i archive.obj
 0001:0000c8b0       ?_Become_small@?$basic_string@_WU?$char_traits@_W@std@@V?$allocator@_W@2@@std@@AAEXXZ 1000d8b0 f i archive.obj
 0001:0000ced0       ??$_Erase_tree@V?$allocator@U?$_Tree_node@U?$pair@$$CBII@std@@PAX@std@@@std@@@?$_Tree_val@U?$_Tree_simple_types@U?$pair@$$CBII@std@@@std@@@std@@QAEXAAV?$allocator@U?$_Tree_node@U?$pair@$$CBII@std@@PAX@std@@@1@PAU?$_Tree_node@U?$pair@$$CBII@std@@PAX@1@@Z 1000ded0 f i archive.obj
 0001:0000ced0       ??$_Erase_tree@V?$allocator@U?$_Tree_node@U?$pair@$$CBHI@std@@PAX@std@@@std@@@?$_Tree_val@U?$_Tree_simple_types@U?$pair@$$CBHI@std@@@std@@@std@@QAEXAAV?$allocator@U?$_Tree_node@U?$pair@$$CBHI@std@@PAX@std@@@1@PAU?$_Tree_node@U?$pair@$$CBHI@std@@PAX@1@@Z 1000ded0 f i ui.obj
 0001:0000cf10       ??$_Erase_tree@V?$allocator@U?$_Tree_node@U?$pair@$$CBV?$vector@EV?$allocator@E@std@@@std@@UArcFormat@@@std@@PAX@std@@@std@@@?$_Tree_val@U?$_Tree_simple_types@U?$pair@$$CBV?$vector@EV?$allocator@E@std@@@std@@UArcFormat@@@std@@@std@@@std@@QAEXAAV?$allocator@U?$_Tree_node@U?$pair@$$CBV?$vector@EV?$allocator@E@std@@@std@@UArcFormat@@@std@@PAX@std@@@1@PAU?$_Tree_node@U?$pair@$$CBV?$vector@EV?$allocator@E@std@@@std@@UArcFormat@@@std@@PAX@1@@Z 1000df10 f i archive.obj
 0001:0000cfa0       ??$_Find_lower_bound@V?$basic_string@_WU?$char_traits@_W@std@@V?$allocator@_W@2@@std@@@?$_Tree@V?$_Tmap_traits@V?$basic_string@_WU?$char_traits@_W@std@@V?$allocator@_W@2@@std@@V12@U?$less@V?$basic_string@_WU?$char_traits@_W@std@@V?$allocator@_W@2@@std@@@2@V?$allocator@U?$pair@$$CBV?$basic_string@_WU?$char_traits@_W@std@@V?$allocator@_W@2@@std@@V12@@std@@@2@$0A@@std@@@std@@IBE?AU?$_Tree_find_result@PAU?$_Tree_node@U?$pair@$$CBV?$basic_string@_WU?$char_traits@_W@std@@V?$allocator@_W@2@@std@@V12@@std@@PAX@std@@@1@ABV?$basic_string@_WU?$char_traits@_W@std@@V?$allocator@_W@2@@1@@Z 1000dfa0 f i archive.obj
 0001:0000cfa0       ??$_Find_lower_bound@V?$basic_string@_WU?$char_traits@_W@std@@V?$allocator@_W@2@@std@@@?$_Tree@V?$_Tset_traits@V?$basic_string@_WU?$char_traits@_W@std@@V?$allocator@_W@2@@std@@U?$less@V?$basic_string@_WU?$char_traits@_W@std@@V?$allocator@_W@2@@std@@@2@V?$allocator@V?$basic_string@_WU?$char_traits@_W@std@@V?$allocator@_W@2@@std@@@2@$0A@@std@@@std@@IBE?AU?$_Tree_find_result@PAU?$_Tree_node@V?$basic_string@_WU?$char_traits@_W@std@@V?$allocator@_W@2@@std@@PAX@std@@@1@ABV?$basic_string@_WU?$char_traits@_W@std@@V?$allocator@_W@2@@1@@Z 1000dfa0 f i plugin.obj
 0001:0000d030       ??$_Append_range_unchecked@PBV?$basic_string@_WU?$char_traits@_W@std@@V?$allocator@_W@2@@std@@PBV12@@?$_List_node_insert_op@V?$allocator@U?$_List_node@V?$basic_string@_WU?$char_traits@_W@std@@V?$allocator@_W@2@@std@@PAX@std@@@std@@@std@@QAEXPBV?$basic_string@_WU?$char_traits@_W@std@@V?$allocator@_W@2@@1@QBV21@@Z 1000e030 f i archive.obj
 0001:0000d0c0       ??$_Append_range_unchecked@V?$_List_unchecked_const_iterator@V?$_List_val@U?$_List_simple_types@V?$basic_string@_WU?$char_traits@_W@std@@V?$allocator@_W@2@@std@@@std@@@std@@U_Iterator_base0@2@@std@@V12@@?$_List_node_insert_op@V?$allocator@U?$_List_node@V?$basic_string@_WU?$char_traits@_W@std@@V?$allocator@_W@2@@std@@PAX@std@@@std@@@std@@QAEXV?$_List_unchecked_const_iterator@V?$_List_val@U?$_List_simple_types@V?$basic_string@_WU?$char_traits@_W@std@@V?$allocator@_W@2@@std@@@std@@@std@@U_Iterator_base0@2@@1@V21@@Z 1000e0c0 f i archive.obj
 0001:0000d160       ??$_Assign_range@PAV?$vector@EV?$allocator@E@std@@@std@@@?$vector@V?$vector@EV?$allocator@E@std@@@std@@V?$allocator@V?$vector@EV?$allocator@E@std@@@std@@@2@@std@@AAEXPAV?$vector@EV?$allocator@E@std@@@1@0Uforward_iterator_tag@1@@Z 1000e160 f i archive.obj
 0001:0000d2b0       ??$_Freenode@V?$allocator@U?$_List_node@V?$vector@EV?$allocator@E@std@@@std@@PAX@std@@@std@@@?$_List_node@V?$vector@EV?$allocator@E@std@@@std@@PAX@std@@SAXAAV?$allocator@U?$_List_node@V?$vector@EV?$allocator@E@std@@@std@@PAX@std@@@1@PAU01@@Z 1000e2b0 f i archive.obj
 0001:0000d310       ??$_Freenode@V?$allocator@U?$_List_node@V?$basic_string@_WU?$char_traits@_W@std@@V?$allocator@_W@2@@std@@PAX@std@@@std@@@?$_List_node@V?$basic_string@_WU?$char_traits@_W@std@@V?$allocator@_W@2@@std@@PAX@std@@SAXAAV?$allocator@U?$_List_node@V?$basic_string@_WU?$char_traits@_W@std@@V?$allocator@_W@2@@std@@PAX@std@@@1@PAU01@@Z 1000e310 f i archive.obj
 0001:0000d370       ??$_Copy_nodes@U_Copy_tag@?$_Tree@V?$_Tmap_traits@V?$basic_string@_WU?$char_traits@_W@std@@V?$allocator@_W@2@@std@@V12@U?$less@V?$basic_string@_WU?$char_traits@_W@std@@V?$allocator@_W@2@@std@@@2@V?$allocator@U?$pair@$$CBV?$basic_string@_WU?$char_traits@_W@std@@V?$allocator@_W@2@@std@@V12@@std@@@2@$0A@@std@@@std@@@?$_Tree@V?$_Tmap_traits@V?$basic_string@_WU?$char_traits@_W@std@@V?$allocator@_W@2@@std@@V12@U?$less@V?$basic_string@_WU?$char_traits@_W@std@@V?$allocator@_W@2@@std@@@2@V?$allocator@U?$pair@$$CBV?$basic_string@_WU?$char_traits@_W@std@@V?$allocator@_W@2@@std@@V12@@std@@@2@$0A@@std@@@std@@IAEPAU?$_Tree_node@U?$pair@$$CBV?$basic_string@_WU?$char_traits@_W@std@@V?$allocator@_W@2@@std@@V12@@std@@PAX@1@PAU21@0U_Copy_tag@01@@Z 1000e370 f i archive.obj
 0001:0000d480       ??$_Uninitialized_move@PAV?$basic_string@_WU?$char_traits@_W@std@@V?$allocator@_W@2@@std@@V?$allocator@V?$basic_string@_WU?$char_traits@_W@std@@V?$allocator@_W@2@@std@@@2@@std@@YAPAV?$basic_string@_WU?$char_traits@_W@std@@V?$allocator@_W@2@@0@QAV10@0PAV10@AAV?$allocator@V?$basic_string@_WU?$char_traits@_W@std@@V?$allocator@_W@2@@std@@@0@@Z 1000e480 f i plugin.obj
 0001:0000d480       ??$_Uninitialized_move@PAUSfxModule@@V?$allocator@USfxModule@@@std@@@std@@YAPAUSfxModule@@QAU1@0PAU1@AAV?$allocator@USfxModule@@@0@@Z 1000e480 f i archive.obj
 0001:0000d4f0       ??$_Uninitialized_move@PAV?$vector@EV?$allocator@E@std@@@std@@V?$allocator@V?$vector@EV?$allocator@E@std@@@std@@@2@@std@@YAPAV?$vector@EV?$allocator@E@std@@@0@QAV10@0PAV10@AAV?$allocator@V?$vector@EV?$allocator@E@std@@@std@@@0@@Z 1000e4f0 f i archive.obj
 0001:0000d570       ??_G?$basic_string@_WU?$char_traits@_W@std@@V?$allocator@_W@2@@std@@QAEPAXI@Z 1000e570 f i archive.obj
 0001:0000d5d0       ??1?$pair@V?$basic_string@_WU?$char_traits@_W@std@@V?$allocator@_W@2@@std@@V12@@std@@QAE@XZ 1000e5d0 f i rsrc.obj
 0001:0000d5d0       ??1Attr@@QAE@XZ            1000e5d0 f i plugin.obj
 0001:0000d5d0       ??1Param@@QAE@XZ           1000e5d0 f i cmdline.obj
 0001:0000d5d0       ??1?$pair@$$CBV?$basic_string@_WU?$char_traits@_W@std@@V?$allocator@_W@2@@std@@V12@@std@@QAE@XZ 1000e5d0 f i archive.obj
 0001:0000d670       ??1?$_Uninitialized_backout_al@V?$allocator@V?$vector@EV?$allocator@E@std@@@std@@@std@@@std@@QAE@XZ 1000e670 f i archive.obj
 0001:0000d680       ??1?$_Uninitialized_backout_al@V?$allocator@UArcLib@@@std@@@std@@QAE@XZ 1000e680 f i archive.obj
 0001:0000d6b0       ??R?$less@V?$basic_string@_WU?$char_traits@_W@std@@V?$allocator@_W@2@@std@@@std@@QBE_NABV?$basic_string@_WU?$char_traits@_W@std@@V?$allocator@_W@2@@1@0@Z 1000e6b0 f i archive.obj
 0001:0000d700       ?_Clear_and_reserve_geometric@?$vector@EV?$allocator@E@std@@@std@@AAEXI@Z 1000e700 f i archive.obj
 0001:0000d790       ?_Unchecked_erase@?$list@V?$basic_string@_WU?$char_traits@_W@std@@V?$allocator@_W@2@@std@@V?$allocator@V?$basic_string@_WU?$char_traits@_W@std@@V?$allocator@_W@2@@std@@@2@@std@@AAEPAU?$_List_node@V?$basic_string@_WU?$char_traits@_W@std@@V?$allocator@_W@2@@std@@PAX@2@PAU32@QAU32@@Z 1000e790 f i archive.obj
 0001:0000d830       ?compare@?$_WChar_traits@_W@std@@SAHQB_W0I@Z 1000e830 f i archive.obj
 0001:0000d880       ??1?$_Alloc_construct_ptr@V?$allocator@U?$_List_node@UIconRsrc@@PAX@std@@@std@@@std@@QAE@XZ 1000e880 f   rsrc.obj
 0001:0000d880       ??1?$_Alloc_construct_ptr@V?$allocator@U?$_List_node@UCacheRecord@FileWriteCache@@PAX@std@@@std@@@std@@QAE@XZ 1000e880 f   extract.obj
 0001:0000eb30       ??$_Copy_unchecked@PAV?$vector@EV?$allocator@E@std@@@std@@PAV12@@std@@YAPAV?$vector@EV?$allocator@E@std@@@0@PAV10@00@Z 1000fb30 f i archive.obj
 0001:0000eba0       ??$_Ucopy@PAV?$vector@EV?$allocator@E@std@@@std@@@?$vector@V?$vector@EV?$allocator@E@std@@@std@@V?$allocator@V?$vector@EV?$allocator@E@std@@@std@@@2@@std@@AAEPAV?$vector@EV?$allocator@E@std@@@1@PAV21@00@Z 1000fba0 f i archive.obj
 0001:0000ec20       ??0CDllCodecInfo@@QAE@$$QAU0@@Z 1000fc20 f i archive.obj
 0001:0000ecc0       ??4CDllCodecInfo@@QAEAAU0@$$QAU0@@Z 1000fcc0 f i archive.obj
 0001:0000ed30       ??$iter_swap@PAUCDllCodecInfo@@PAU1@@std@@YAXPAUCDllCodecInfo@@0@Z 1000fd30 f i archive.obj
 0001:0000f3b9       ?Release@FileReadStream@@W3AGKXZ 100103b9 f i update.obj
 0001:0000f3b9       ?Release@ArchiveExtractor@@W3AGKXZ 100103b9 f i extract.obj
 0001:0000f3b9       ?Release@MyCompressCodecsInfo@@W3AGKXZ 100103b9 f i archive.obj
 0001:0000f3b9       ?Release@ArchiveTester@@W3AGKXZ 100103b9 f i test.obj
 0001:0000f3b9       ?Release@ArchiveUpdater@@W3AGKXZ 100103b9 f i update.obj
 0001:0000f3c3       ??_EMyCompressCodecsInfo@@W7AEPAXI@Z 100103c3 f i archive.obj
 0001:0000f3cb       ?Release@MyCompressCodecsInfo@@W7AGKXZ 100103cb f i archive.obj
 0001:0000f3cb       ?Release@ArchiveExtractor@@W7AGKXZ 100103cb f i extract.obj
 0001:0000f3cb       ?Release@ArchiveTester@@W7AGKXZ 100103cb f i test.obj
 0001:0000f3cb       ?Release@ArchiveUpdater@@W7AGKXZ 100103cb f i update.obj
 0001:0000f3cb       ?Release@FileReadStream@@W7AGKXZ 100103cb f i update.obj
 0001:0000f3d5       ?QueryInterface@MyCompressCodecsInfo@@W3AGJABU_GUID@@PAPAX@Z 100103d5 f i archive.obj
 0001:0000f3df       ?AddRef@ArchiveUpdater@@W3AGKXZ 100103df f i update.obj
 0001:0000f3df       ?AddRef@FileReadStream@@W3AGKXZ 100103df f i update.obj
 0001:0000f3df       ?AddRef@MyCompressCodecsInfo@@W3AGKXZ 100103df f i archive.obj
 0001:0000f3df       ?AddRef@ArchiveTester@@W3AGKXZ 100103df f i test.obj
 0001:0000f3df       ?AddRef@ArchiveExtractor@@W3AGKXZ 100103df f i extract.obj
 0001:0000f3e9       ?QueryInterface@MyCompressCodecsInfo@@W7AGJABU_GUID@@PAPAX@Z 100103e9 f i archive.obj
 0001:0000f3f3       ?AddRef@MyCompressCodecsInfo@@W7AGKXZ 100103f3 f i archive.obj
 0001:0000f3f3       ?AddRef@FileReadStream@@W7AGKXZ 100103f3 f i update.obj
 0001:0000f3f3       ?AddRef@ArchiveTester@@W7AGKXZ 100103f3 f i test.obj
 0001:0000f3f3       ?AddRef@ArchiveExtractor@@W7AGKXZ 100103f3 f i extract.obj
 0001:0000f3f3       ?AddRef@ArchiveUpdater@@W7AGKXZ 100103f3 f i update.obj
 0001:0000f400       ?_Throw_tree_length_error@std@@YAXXZ 10010400 f i archive.obj
 0001:0000f410       ?_Take_contents@?$basic_string@_WU?$char_traits@_W@std@@V?$allocator@_W@2@@std@@AAEXAAV12@U?$integral_constant@_N$00@2@@Z 10010410 f i archive.obj
 0001:0000f450       ??0?$basic_string@_WU?$char_traits@_W@std@@V?$allocator@_W@2@@std@@QAE@$$QAV01@@Z 10010450 f i archive.obj
 0001:0000f4a0       ?_Xlen@?$basic_string@_WU?$char_traits@_W@std@@V?$allocator@_W@2@@std@@CAXXZ 100104a0 f i archive.obj
 0001:0000f4a0       ?_Xlen@?$basic_string@DU?$char_traits@D@std@@V?$allocator@D@2@@std@@CAXXZ 100104a0 f i archive.obj
 0001:0000f4b0       ?allocate@?$allocator@_W@std@@QAEPA_WI@Z 100104b0 f i archive.obj
 0001:0000f510       ?assign@?$basic_string@_WU?$char_traits@_W@std@@V?$allocator@_W@2@@std@@QAEAAV12@QB_WI@Z 10010510 f i archive.obj
 0001:0000f610       ??1?$basic_string@DU?$char_traits@D@std@@V?$allocator@D@2@@std@@QAE@XZ 10010610 f i archive.obj
 0001:0000f660       ??0bad_array_new_length@std@@QAE@XZ 10010660 f i archive.obj
 0001:0000f680       ??1bad_weak_ptr@std@@UAE@XZ 10010680 f i extract.obj
 0001:0000f680       ??1bad_typeid@std@@UAE@XZ  10010680 f i libvcruntime:rtti.obj
 0001:0000f680       ??1length_error@std@@UAE@XZ 10010680 f i libcpmt:xthrow.obj
 0001:0000f680       ??1bad_alloc@std@@UAE@XZ   10010680 f i archive.obj
 0001:0000f680       ??1out_of_range@std@@UAE@XZ 10010680 f i libcpmt:xthrow.obj
 0001:0000f680       ??1bad_exception@std@@UAE@XZ 10010680 f i libvcruntime:frame.obj
 0001:0000f680       ??1failure@ios_base@std@@UAE@XZ 10010680 f i ui.obj
 0001:0000f680       ??1__non_rtti_object@std@@UAE@XZ 10010680 f i libvcruntime:rtti.obj
 0001:0000f680       ??1bad_array_new_length@std@@UAE@XZ 10010680 f i archive.obj
 0001:0000f680       ??1runtime_error@std@@UAE@XZ 10010680 f i ui.obj
 0001:0000f6a0       ??_Gruntime_error@std@@UAEPAXI@Z 100106a0 f i ui.obj
 0001:0000f6a0       ??_Ebad_array_new_length@std@@UAEPAXI@Z 100106a0 f i * CIL library *:* CIL module *
 0001:0000f6a0       ??_Gbad_alloc@std@@UAEPAXI@Z 100106a0 f i archive.obj
 0001:0000f6a0       ??_Ebad_weak_ptr@std@@UAEPAXI@Z 100106a0 f i * CIL library *:* CIL module *
 0001:0000f6a0       ??_Eruntime_error@std@@UAEPAXI@Z 100106a0 f i * CIL library *:* CIL module *
 0001:0000f6a0       ??_Gexception@std@@UAEPAXI@Z 100106a0 f i archive.obj
 0001:0000f6a0       ??_Gbad_array_new_length@std@@UAEPAXI@Z 100106a0 f i archive.obj
 0001:0000f6a0       ??_Ebad_alloc@std@@UAEPAXI@Z 100106a0 f i * CIL library *:* CIL module *
 0001:0000f6a0       ??_Eexception@std@@UAEPAXI@Z 100106a0 f i * CIL library *:* CIL module *
 0001:0000f6a0       ??_Gbad_weak_ptr@std@@UAEPAXI@Z 100106a0 f i extract.obj
 0001:0000f6d0       ??0bad_array_new_length@std@@QAE@ABV01@@Z 100106d0 f i archive.obj
 0001:0000f700       ??0bad_alloc@std@@QAE@ABV01@@Z 10010700 f i archive.obj
 0001:0000f730       ??0exception@std@@QAE@ABV01@@Z 10010730 f i archive.obj
 0001:0000f760       ?_Throw_bad_array_new_length@std@@YAXXZ 10010760 f i archive.obj
 0001:0000f780       ??$_Allocate@$07U_Default_allocate_traits@std@@$0A@@std@@YAPAXI@Z 10010780 f i archive.obj
 0001:0000f7d0       ?assign@?$basic_string@DU?$char_traits@D@std@@V?$allocator@D@2@@std@@QAEAAV12@QBDI@Z 100107d0 f i archive.obj
 0001:0000f900       ?what@exception@std@@UBEPBDXZ 10010900 f i archive.obj
 0001:0000f910       ?deallocate@?$allocator@_W@std@@QAEXQA_WI@Z 10010910 f i archive.obj
 0001:0000f950       ??0Error@@QAE@XZ           10010950 f i plugin.obj
 0001:0000fa10       ??0Error@@QAE@ABV?$basic_string@_WU?$char_traits@_W@std@@V?$allocator@_W@2@@std@@0PBDH@Z 10010a10 f i plugin.obj
 0001:0000fb10       ??0Error@@QAE@ABVexception@std@@@Z 10010b10 f i plugin.obj
 0001:0000fde0       ?Append@Error@@QAEXABU1@@Z 10010de0 f i plugin.obj
 0001:0000fe30       ??1CriticalSectionLock@@QAE@XZ 10010e30 f i plugin.obj
 0001:0000fe50       ?updatable@Archive@@QBE_NXZ 10010e50 f i plugin.obj
 0001:0000fec0       ??0Archive@@QAE@XZ         10010ec0 f i plugin.obj
 0001:00010070       ??1?$enable_shared_from_this@VArchive@@@std@@IAE@XZ 10011070 f i plugin.obj
 0001:000100a0       ??1?$set@V?$basic_string@_WU?$char_traits@_W@std@@V?$allocator@_W@2@@std@@UItemCompare@?1??show@MultiSelectDialog@@QAE_NXZ@V?$allocator@V?$basic_string@_WU?$char_traits@_W@std@@V?$allocator@_W@2@@std@@@2@@std@@QAE@XZ 100110a0 f i ui.obj
 0001:000100a0       ??1?$set@V?$basic_string@_WU?$char_traits@_W@std@@V?$allocator@_W@2@@std@@U?$less@V?$basic_string@_WU?$char_traits@_W@std@@V?$allocator@_W@2@@std@@@2@V?$allocator@V?$basic_string@_WU?$char_traits@_W@std@@V?$allocator@_W@2@@std@@@2@@std@@QAE@XZ 100110a0 f i plugin.obj
 0001:000100c0       ??1ArcChain@@QAE@XZ        100110c0 f i plugin.obj
 0001:000100d0       ??0Plugin@@QAE@_N@Z        100110d0 f i plugin.obj
 0001:000101b0       ?open@Plugin@@SAPAV1@ABV?$vector@V?$shared_ptr@VArchive@@@std@@V?$allocator@V?$shared_ptr@VArchive@@@std@@@2@@std@@_N@Z 100111b0 f i plugin.obj
 0001:00010460       ?info@Plugin@@QAEXPAUOpenPanelInfo@@@Z 10011460 f i plugin.obj
 0001:00010810       ?set_dir@Plugin@@QAEXABV?$basic_string@_WU?$char_traits@_W@std@@V?$allocator@_W@2@@std@@@Z 10011810 f i plugin.obj
 0001:00010ae0       ?get_separate_dir_path@Plugin@@SA?AV?$basic_string@_WU?$char_traits@_W@std@@V?$allocator@_W@2@@std@@ABV23@0@Z 10011ae0 f i plugin.obj
 0001:00010cd0       ?extract@Plugin@@QAEXABVPluginPanelItemAccessor@1@AAV?$basic_string@_WU?$char_traits@_W@std@@V?$allocator@_W@2@@std@@_N_K@Z 10011cd0 f i plugin.obj
 0001:00011440       ??R<lambda_1>@?1??extract@Plugin@@QAEXABVPluginPanelItemAccessor@2@AAV?$basic_string@_WU?$char_traits@_W@std@@V?$allocator@_W@2@@std@@_N_K@Z@QBEXXZ 10012440 f i plugin.obj
 0001:00011570       ?get@PluginPanelItems@?1??get_files@Plugin@@QAEXPBUPluginPanelItem@@HHPAPB_W_K@Z@UBEPBU4@I@Z 10012570 f i plugin.obj
 0001:00011580       ?raw_length@DNameStatusNode@@UBEHXZ 10012580 f i libvcruntime:undname.obj
 0001:00011580       ?raw_length@pcharNode@@UBEHXZ 10012580 f i libvcruntime:undname.obj
 0001:00011580       ?length@DNameStatusNode@@UBEHXZ 10012580 f i libvcruntime:undname.obj
 0001:00011580       ?length@pcharNode@@UBEHXZ  10012580 f i libvcruntime:undname.obj
 0001:00011580       ?size@PluginPanelItems@?1??get_files@Plugin@@QAEXPBUPluginPanelItem@@HHPAPB_W_K@Z@UBEIXZ 10012580 f i plugin.obj
 0001:00011590       ?get@PluginPanelItems@?1??extract@Plugin@@QAEXXZ@UBEPBUPluginPanelItem@@I@Z 10012590 f i plugin.obj
 0001:000115b0       ?size@PluginPanelItems@?1??extract@Plugin@@QAEXXZ@UBEIXZ 100125b0 f i plugin.obj
 0001:000115c0       ?extract@Plugin@@SAXABV?$vector@V?$basic_string@_WU?$char_traits@_W@std@@V?$allocator@_W@2@@std@@V?$allocator@V?$basic_string@_WU?$char_traits@_W@std@@V?$allocator@_W@2@@std@@@2@@std@@UExtractOptions@@@Z 100125c0 f i plugin.obj
 0001:00012200       ?bulk_extract@Plugin@@SAXABV?$vector@V?$basic_string@_WU?$char_traits@_W@std@@V?$allocator@_W@2@@std@@V?$allocator@V?$basic_string@_WU?$char_traits@_W@std@@V?$allocator@_W@2@@std@@@2@@std@@@Z 10013200 f i plugin.obj
 0001:000125a0       ?cmdline_extract@Plugin@@SAXABUExtractCommand@@@Z 100135a0 f i plugin.obj
 0001:000127f0       ?delete_items@Plugin@@SAXABV?$basic_string@_WU?$char_traits@_W@std@@V?$allocator@_W@2@@std@@ABUExtractOptions@@ABV?$vector@V?$basic_string@_WU?$char_traits@_W@std@@V?$allocator@_W@2@@std@@V?$allocator@V?$basic_string@_WU?$char_traits@_W@std@@V?$allocator@_W@2@@std@@@2@@3@@Z 100137f0 f i plugin.obj
 0001:00012c20       ?extract_items@Plugin@@SAXABV?$basic_string@_WU?$char_traits@_W@std@@V?$allocator@_W@2@@std@@ABUExtractOptions@@ABV?$vector@V?$basic_string@_WU?$char_traits@_W@std@@V?$allocator@_W@2@@std@@V?$allocator@V?$basic_string@_WU?$char_traits@_W@std@@V?$allocator@_W@2@@std@@@2@@3@@Z 10013c20 f i plugin.obj
 0001:00013260       ?cmdline_extract@Plugin@@SAXABUExtractItemsCommand@@@Z 10014260 f i plugin.obj
 0001:000133b0       ?cmdline_delete@Plugin@@SAXABUExtractItemsCommand@@@Z 100143b0 f i plugin.obj
 0001:000134b0       ?test_files@Plugin@@QAEXPAUPluginPanelItem@@H_K@Z 100144b0 f i plugin.obj
 0001:000138c0       ?bulk_test@Plugin@@SAXABV?$vector@V?$basic_string@_WU?$char_traits@_W@std@@V?$allocator@_W@2@@std@@V?$allocator@V?$basic_string@_WU?$char_traits@_W@std@@V?$allocator@_W@2@@std@@@2@@std@@@Z 100148c0 f i plugin.obj
 0001:000143d0       ?cmdline_test@Plugin@@SAXABUTestCommand@@@Z 100153d0 f i plugin.obj
 0001:00014520       ?put_files@Plugin@@QAEXPBUPluginPanelItem@@HHPB_W_K@Z 10015520 f i plugin.obj
 0001:00015af0       ?create_archive@Plugin@@SAXXZ 10016af0 f i plugin.obj
 0001:00016400       ?cmdline_update@Plugin@@SAXABUUpdateCommand@@@Z 10017400 f i plugin.obj
 0001:00016d20       ?delete_files@Plugin@@QAEXPBUPluginPanelItem@@H_K@Z 10017d20 f i plugin.obj
 0001:00017010       ?create_dir@Plugin@@QAEXPAPB_W_K@Z 10018010 f i plugin.obj
 0001:000172a0       ?show_attr@Plugin@@QAEXXZ  100182a0 f i plugin.obj
 0001:00017600       ?close@Plugin@@QAEXXZ      10018600 f i plugin.obj
 0001:00017690       ??1TestCommand@@QAE@XZ     10018690 f i plugin.obj
 0001:00017690       ??1MenuItems@Far@@QAE@XZ   10018690 f i plugin.obj
 0001:00017690       ??1?$vector@V?$basic_string@_WU?$char_traits@_W@std@@V?$allocator@_W@2@@std@@V?$allocator@V?$basic_string@_WU?$char_traits@_W@std@@V?$allocator@_W@2@@std@@@2@@std@@QAE@XZ 10018690 f i plugin.obj
 0001:000176a0       ??1ExtractOptions@@QAE@XZ  100186a0 f i plugin.obj
 0001:00017740       ??4ExtractOptions@@QAEAAU0@ABU0@@Z 10018740 f i plugin.obj
 0001:000177b0       ??1PluginPanelItems@?1??extract@Plugin@@QAEXXZ@QAE@XZ 100187b0 f i plugin.obj
 0001:000177c0       ??1OpenOptions@@QAE@XZ     100187c0 f i plugin.obj
 0001:00017880       ??0Error@@QAE@$$QAU0@@Z    10018880 f i plugin.obj
 0001:00017980       ??1UpdateOptions@@QAE@XZ   10018980 f i plugin.obj
 0001:00017a30       ??4SfxOptions@@QAEAAU0@ABU0@@Z 10018a30 f i plugin.obj
 0001:00017b50       ??1PanelItem@Far@@QAE@XZ   10018b50 f i plugin.obj
 0001:00017bf0       ??0SfxOptions@@QAE@ABU0@@Z 10018bf0 f i plugin.obj
 0001:00017d60       ??1SfxOptions@@QAE@XZ      10018d60 f i plugin.obj
 0001:00017e10       ??1ProfileOptions@@QAE@XZ  10018e10 f i plugin.obj
 0001:00018010       ??4SfxInstallConfig@@QAEAAU0@ABU0@@Z 10019010 f i plugin.obj
 0001:000180f0       ??0ProfileOptions@@QAE@ABU0@@Z 100190f0 f i plugin.obj
 0001:000181f0       ??1SfxVersionInfo@@QAE@XZ  100191f0 f i plugin.obj
 0001:000183d0       ??1SfxInstallConfig@@QAE@XZ 100193d0 f i plugin.obj
 0001:00018610       _GetGlobalInfoW@4          10019610 f   plugin.obj
 0001:000186a0       _SetStartupInfoW@4         100196a0 f   plugin.obj
 0001:00018740       _GetPluginInfoW@4          10019740 f   plugin.obj
 0001:000190b0       _AnalyseW@4                1001a0b0 f   plugin.obj
 0001:000191c0       _CloseAnalyseW@4           1001a1c0 f   plugin.obj
 0001:000191e0       ??_G?$vector@V?$shared_ptr@VArchive@@@std@@V?$allocator@V?$shared_ptr@VArchive@@@std@@@2@@std@@QAEPAXI@Z 1001a1e0 f i plugin.obj
 0001:00019250       _OpenW@4                   1001a250 f   plugin.obj
 0001:0001a720       ??1CommandArgs@@QAE@XZ     1001b720 f i plugin.obj
 0001:0001a730       ??1OpenCommand@@QAE@XZ     1001b730 f i plugin.obj
 0001:0001a740       ??0OpenOptions@@QAE@$$QAU0@@Z 1001b740 f i plugin.obj
 0001:0001a850       ??1UpdateCommand@@QAE@XZ   1001b850 f i plugin.obj
 0001:0001a880       ??1ExtractCommand@@QAE@XZ  1001b880 f i plugin.obj
 0001:0001a8a0       ??1ExtractItemsCommand@@QAE@XZ 1001b8a0 f i plugin.obj
 0001:0001a910       _ClosePanelW@4             1001b910 f   plugin.obj
 0001:0001a9a0       ??1Plugin@@QAE@XZ          1001b9a0 f i plugin.obj
 0001:0001abd0       _GetOpenPanelInfoW@4       1001bbd0 f   plugin.obj
 0001:0001ad00       _SetDirectoryW@4           1001bd00 f   plugin.obj
 0001:0001aea0       _GetFindDataW@4            1001bea0 f   plugin.obj
 0001:0001b060       _FreeFindDataW@4           1001c060 f   plugin.obj
 0001:0001b0b0       _GetFilesW@4               1001c0b0 f   plugin.obj
 0001:0001b2c0       _PutFilesW@4               1001c2c0 f   plugin.obj
 0001:0001b3e0       _DeleteFilesW@4            1001c3e0 f   plugin.obj
 0001:0001b4f0       _MakeDirectoryW@4          1001c4f0 f   plugin.obj
 0001:0001b600       _ProcessHostFileW@4        1001c600 f   plugin.obj
 0001:0001ba10       _ProcessPanelInputW@4      1001ca10 f   plugin.obj
 0001:0001bc50       _ConfigureW@4              1001cc50 f   plugin.obj
 0001:0001c0e0       ??1PluginSettings@@QAE@XZ  1001d0e0 f i plugin.obj
 0001:0001c220       _ExitFARW@4                1001d220 f   plugin.obj
 0001:0001c240       ??1?$shared_ptr@VProgressMonitor@@@std@@QAE@XZ 1001d240 f i delete.obj
 0001:0001c240       ??1?$shared_ptr@X@std@@QAE@XZ 1001d240 f i plugin.obj
 0001:0001c240       ??1?$shared_ptr@V?$set@IU?$less@I@std@@V?$allocator@I@2@@std@@@std@@QAE@XZ 1001d240 f i extract.obj
 0001:0001c240       ??1?$shared_ptr@VFileWriteCache@@@std@@QAE@XZ 1001d240 f i extract.obj
 0001:0001c240       ??1?$shared_ptr@VArchive@@@std@@QAE@XZ 1001d240 f i plugin.obj
 0001:0001c240       ??1?$shared_ptr@V?$list@UError@@V?$allocator@UError@@@std@@@std@@@std@@QAE@XZ 1001d240 f i plugin.obj
 0001:0001c240       ??1?$shared_ptr@V?$map@IUFileIndexInfo@@U?$less@I@std@@V?$allocator@U?$pair@$$CBIUFileIndexInfo@@@std@@@3@@std@@@std@@QAE@XZ 1001d240 f i update.obj
 0001:0001c240       ??1?$shared_ptr@W4OverwriteAction@@@std@@QAE@XZ 1001d240 f i extract.obj
 0001:0001c240       ??1?$shared_ptr@_N@std@@QAE@XZ 1001d240 f i extract.obj
 0001:0001c240       ??1?$shared_ptr@VArchiveUpdateProgress@@@std@@QAE@XZ 1001d240 f i update.obj
 0001:0001c240       ??1?$shared_ptr@VExtractProgress@@@std@@QAE@XZ 1001d240 f i extract.obj
 0001:0001c240       ??1?$shared_ptr@VArchiveFileDeleterProgress@@@std@@QAE@XZ 1001d240 f i delete.obj
 0001:0001c280       ??1?$unique_ptr@V?$vector@V?$shared_ptr@VArchive@@@std@@V?$allocator@V?$shared_ptr@VArchive@@@std@@@2@@std@@U?$default_delete@V?$vector@V?$shared_ptr@VArchive@@@std@@V?$allocator@V?$shared_ptr@VArchive@@@std@@@2@@std@@@2@@std@@QAE@XZ 1001d280 f i plugin.obj
 0001:0001c290       ??0?$shared_ptr@VFileWriteCache@@@std@@QAE@ABV01@@Z 1001d290 f i extract.obj
 0001:0001c290       ??0?$shared_ptr@VArchive@@@std@@QAE@ABV01@@Z 1001d290 f i plugin.obj
 0001:0001c290       ??0?$shared_ptr@V?$list@UError@@V?$allocator@UError@@@std@@@std@@@std@@QAE@ABV01@@Z 1001d290 f i plugin.obj
 0001:0001c2c0       ??0?$list@UError@@V?$allocator@UError@@@std@@@std@@QAE@XZ 1001d2c0 f i plugin.obj
 0001:0001c2f0       ??1?$unique_ptr@$$BY0A@EU?$default_delete@$$BY0A@E@std@@@std@@QAE@XZ 1001d2f0 f i open.obj
 0001:0001c2f0       ??1?$unique_ptr@$$BY0A@UPluginPanelItem@@U?$default_delete@$$BY0A@UPluginPanelItem@@@std@@@std@@QAE@XZ 1001d2f0 f i plugin.obj
 0001:0001c300       ??1?$list@UAttr@@V?$allocator@UAttr@@@std@@@std@@QAE@XZ 1001d300 f i plugin.obj
 0001:0001c350       ??1?$vector@UArcFileInfo@@V?$allocator@UArcFileInfo@@@std@@@std@@QAE@XZ 1001d350 f i plugin.obj
 0001:0001c3b0       ??0?$set@V?$basic_string@_WU?$char_traits@_W@std@@V?$allocator@_W@2@@std@@U?$less@V?$basic_string@_WU?$char_traits@_W@std@@V?$allocator@_W@2@@std@@@2@V?$allocator@V?$basic_string@_WU?$char_traits@_W@std@@V?$allocator@_W@2@@std@@@2@@std@@QAE@XZ 1001d3b0 f i plugin.obj
 0001:0001c3f0       ??4?$shared_ptr@VArchive@@@std@@QAEAAV01@ABV01@@Z 1001d3f0 f i plugin.obj
 0001:0001c460       ??1?$ComObject@UIArchiveExtractCallback@@@@QAE@XZ 1001d460 f i extract.obj
 0001:0001c460       ??1?$ComObject@UISequentialInStream@@@@QAE@XZ 1001d460 f i open.obj
 0001:0001c460       ??1?$ComObject@UIInArchiveGetStream@@@@QAE@XZ 1001d460 f i open.obj
 0001:0001c460       ??1?$ComObject@UIOutArchive@@@@QAE@XZ 1001d460 f i update.obj
 0001:0001c460       ??1?$ComObject@UIInStream@@@@QAE@XZ 1001d460 f i open.obj
 0001:0001c460       ??1?$ComObject@UIOutStream@@@@QAE@XZ 1001d460 f i update.obj
 0001:0001c460       ??1?$ComObject@UIArchiveUpdateCallback@@@@QAE@XZ 1001d460 f i update.obj
 0001:0001c460       ??1?$ComObject@UIInArchive@@@@QAE@XZ 1001d460 f i plugin.obj
 0001:0001c460       ??1?$ComObject@UISetProperties@@@@QAE@XZ 1001d460 f i update.obj
 0001:0001c460       ??1?$ComObject@UIArchiveAllowTail@@@@QAE@XZ 1001d460 f i open.obj
 0001:0001c4b0       ??1?$list@UArcEntry@@V?$allocator@UArcEntry@@@std@@@std@@QAE@XZ 1001d4b0 f i plugin.obj
 0001:0001c540       ??1?$vector@_NV?$allocator@_N@std@@@std@@QAE@XZ 1001d540 f i msearch.obj
 0001:0001c540       ??1?$vector@IV?$allocator@I@std@@@std@@QAE@XZ 1001d540 f i plugin.obj
 0001:0001c540       ??1?$vector@PB_WV?$allocator@PB_W@std@@@std@@QAE@XZ 1001d540 f i update.obj
 0001:0001c540       ??1?$_Vb_val@V?$allocator@_N@std@@@std@@QAE@XZ 1001d540 f i msearch.obj
 0001:0001c540       ?_Tidy@?$vector@IV?$allocator@I@std@@@std@@AAEXXZ 1001d540 f i plugin.obj
 0001:0001c5a0       ?count@?$_Tree@V?$_Tmap_traits@V?$vector@EV?$allocator@E@std@@@std@@UArcFormat@@U?$less@V?$vector@EV?$allocator@E@std@@@std@@@2@V?$allocator@U?$pair@$$CBV?$vector@EV?$allocator@E@std@@@std@@UArcFormat@@@std@@@2@$0A@@std@@@std@@QBEIABV?$vector@EV?$allocator@E@std@@@2@@Z 1001d5a0 f i plugin.obj
 0001:0001c5e0       ??4?$list@V?$vector@EV?$allocator@E@std@@@std@@V?$allocator@V?$vector@EV?$allocator@E@std@@@std@@@2@@std@@QAEAAV01@$$QAV01@@Z 1001d5e0 f i plugin.obj
 0001:0001c620       ??A?$vector@V?$basic_string@_WU?$char_traits@_W@std@@V?$allocator@_W@2@@std@@V?$allocator@V?$basic_string@_WU?$char_traits@_W@std@@V?$allocator@_W@2@@std@@@2@@std@@QBEABV?$basic_string@_WU?$char_traits@_W@std@@V?$allocator@_W@2@@1@I@Z 1001d620 f i plugin.obj
 0001:0001c630       ?reserve@?$vector@V?$basic_string@_WU?$char_traits@_W@std@@V?$allocator@_W@2@@std@@V?$allocator@V?$basic_string@_WU?$char_traits@_W@std@@V?$allocator@_W@2@@std@@@2@@std@@QAEXI@Z 1001d630 f i plugin.obj
 0001:0001c660       ?push_back@?$vector@V?$basic_string@_WU?$char_traits@_W@std@@V?$allocator@_W@2@@std@@V?$allocator@V?$basic_string@_WU?$char_traits@_W@std@@V?$allocator@_W@2@@std@@@2@@std@@QAEX$$QAV?$basic_string@_WU?$char_traits@_W@std@@V?$allocator@_W@2@@2@@Z 1001d660 f i plugin.obj
 0001:0001c6d0       ??4?$list@V?$basic_string@_WU?$char_traits@_W@std@@V?$allocator@_W@2@@std@@V?$allocator@V?$basic_string@_WU?$char_traits@_W@std@@V?$allocator@_W@2@@std@@@2@@std@@QAEAAV01@V?$initializer_list@V?$basic_string@_WU?$char_traits@_W@std@@V?$allocator@_W@2@@std@@@1@@Z 1001d6d0 f i plugin.obj
 0001:0001c7d0       ?back@?$basic_string@_WU?$char_traits@_W@std@@V?$allocator@_W@2@@std@@QAEAA_WXZ 1001d7d0 f i plugin.obj
 0001:0001c7f0       ?_Reallocate_exactly@?$vector@UInfoPanelLine@@V?$allocator@UInfoPanelLine@@@std@@@std@@AAEXI@Z 1001d7f0 f i plugin.obj
 0001:0001c8c0       ?_Reallocate_exactly@?$vector@V?$basic_string@_WU?$char_traits@_W@std@@V?$allocator@_W@2@@std@@V?$allocator@V?$basic_string@_WU?$char_traits@_W@std@@V?$allocator@_W@2@@std@@@2@@std@@AAEXI@Z 1001d8c0 f i plugin.obj
 0001:0001c910       ?append@?$basic_string@_WU?$char_traits@_W@std@@V?$allocator@_W@2@@std@@QAEAAV12@I_W@Z 1001d910 f i plugin.obj
 0001:0001cad0       ?_Change_array@?$vector@UInfoPanelLine@@V?$allocator@UInfoPanelLine@@@std@@@std@@AAEXQAUInfoPanelLine@@II@Z 1001dad0 f i plugin.obj
 0001:0001cb30       ?allocate@?$allocator@UInfoPanelLine@@@std@@QAEPAUInfoPanelLine@@I@Z 1001db30 f i plugin.obj
 0001:0001cb90       ?clear@?$list@UAttr@@V?$allocator@UAttr@@@std@@@std@@QAEXXZ 1001db90 f i plugin.obj
 0001:0001cbe0       ?_Change_array@?$vector@V?$basic_string@_WU?$char_traits@_W@std@@V?$allocator@_W@2@@std@@V?$allocator@V?$basic_string@_WU?$char_traits@_W@std@@V?$allocator@_W@2@@std@@@2@@std@@AAEXQAV?$basic_string@_WU?$char_traits@_W@std@@V?$allocator@_W@2@@2@II@Z 1001dbe0 f i plugin.obj
 0001:0001cc60       ?allocate@?$allocator@V?$basic_string@_WU?$char_traits@_W@std@@V?$allocator@_W@2@@std@@@std@@QAEPAV?$basic_string@_WU?$char_traits@_W@std@@V?$allocator@_W@2@@2@I@Z 1001dc60 f i plugin.obj
 0001:0001ccc0       ??$?HDU?$char_traits@D@std@@V?$allocator@D@1@@std@@YA?AV?$basic_string@DU?$char_traits@D@std@@V?$allocator@D@2@@0@$$QAV10@QBD@Z 1001dcc0 f i plugin.obj
 0001:0001cd70       ??$?8EV?$allocator@E@std@@@std@@YA_NABV?$vector@EV?$allocator@E@std@@@0@0@Z 1001dd70 f i plugin.obj
 0001:0001cde0       ??$?0VArchive@@$0A@@?$shared_ptr@VArchive@@@std@@QAE@PAVArchive@@@Z 1001dde0 f i plugin.obj
 0001:0001cef0       ??$?CVArchive@@$0A@@?$shared_ptr@VArchive@@@std@@QBEPAVArchive@@XZ 1001def0 f i plugin.obj
 0001:0001cef0       ?data@str_view@SimpleXML@@QBEPBDXZ 1001def0 f i options.obj
 0001:0001cf00       ??$?H_WU?$char_traits@_W@std@@V?$allocator@_W@1@@std@@YA?AV?$basic_string@_WU?$char_traits@_W@std@@V?$allocator@_W@2@@0@QB_WABV10@@Z 1001df00 f i plugin.obj
 0001:0001cfd0       ??$?H_WU?$char_traits@_W@std@@V?$allocator@_W@1@@std@@YA?AV?$basic_string@_WU?$char_traits@_W@std@@V?$allocator@_W@2@@0@QB_W$$QAV10@@Z 1001dfd0 f i plugin.obj
 0001:0001d050       ??$?H_WU?$char_traits@_W@std@@V?$allocator@_W@1@@std@@YA?AV?$basic_string@_WU?$char_traits@_W@std@@V?$allocator@_W@2@@0@$$QAV10@ABV10@@Z 1001e050 f i plugin.obj
 0001:0001d0c0       ??$for_each@V?$_Vector_const_iterator@V?$_Vector_val@U?$_Simple_types@I@std@@@std@@@std@@V<lambda_1>@?1??list@Plugin@@QAEXPAPAUPluginPanelItem@@PAI@Z@@std@@YA?AV<lambda_1>@?1??list@Plugin@@QAEXPAPAUPluginPanelItem@@PAI@Z@V?$_Vector_const_iterator@V?$_Vector_val@U?$_Simple_types@I@std@@@std@@@0@2V1?1??23@QAEX01@Z@@Z 1001e0c0 f i plugin.obj
 0001:0001d410       ??$?0V?$list@UError@@V?$allocator@UError@@@std@@@std@@$0A@@?$shared_ptr@V?$list@UError@@V?$allocator@UError@@@std@@@std@@@std@@QAE@PAV?$list@UError@@V?$allocator@UError@@@std@@@1@@Z 1001e410 f i plugin.obj
 0001:0001d490       ??$for_each@V?$_Vector_const_iterator@V?$_Vector_val@U?$_Simple_types@V?$basic_string@_WU?$char_traits@_W@std@@V?$allocator@_W@2@@std@@@std@@@std@@@std@@V<lambda_1>@?1??cmdline_test@Plugin@@SAXABUTestCommand@@@Z@@std@@YA?AV<lambda_1>@?1??cmdline_test@Plugin@@SAXABUTestCommand@@@Z@V?$_Vector_const_iterator@V?$_Vector_val@U?$_Simple_types@V?$basic_string@_WU?$char_traits@_W@std@@V?$allocator@_W@2@@std@@@std@@@std@@@0@1V1?1??23@SAX0@Z@@Z 1001e490 f i plugin.obj
 0001:0001d490       ??$for_each@V?$_Vector_const_iterator@V?$_Vector_val@U?$_Simple_types@V?$basic_string@_WU?$char_traits@_W@std@@V?$allocator@_W@2@@std@@@std@@@std@@@std@@V<lambda_1>@?1??cmdline_extract@Plugin@@SAXABUExtractCommand@@@Z@@std@@YA?AV<lambda_1>@?1??cmdline_extract@Plugin@@SAXABUExtractCommand@@@Z@V?$_Vector_const_iterator@V?$_Vector_val@U?$_Simple_types@V?$basic_string@_WU?$char_traits@_W@std@@V?$allocator@_W@2@@std@@@std@@@std@@@0@1V1?1??23@SAX0@Z@@Z 1001e490 f i plugin.obj
 0001:0001d490       ??$for_each@V?$_Vector_const_iterator@V?$_Vector_val@U?$_Simple_types@V?$basic_string@_WU?$char_traits@_W@std@@V?$allocator@_W@2@@std@@@std@@@std@@@std@@V<lambda_1>@?1??cmdline_update@Plugin@@SAXABUUpdateCommand@@@Z@@std@@YA?AV<lambda_1>@?1??cmdline_update@Plugin@@SAXABUUpdateCommand@@@Z@V?$_Vector_const_iterator@V?$_Vector_val@U?$_Simple_types@V?$basic_string@_WU?$char_traits@_W@std@@V?$allocator@_W@2@@std@@@std@@@std@@@0@1V1?1??23@SAX0@Z@@Z 1001e490 f i plugin.obj
 0001:0001d560       ??$for_each@V?$_Vector_const_iterator@V?$_Vector_val@U?$_Simple_types@V?$basic_string@_WU?$char_traits@_W@std@@V?$allocator@_W@2@@std@@@std@@@std@@@std@@V<lambda_2>@?1??cmdline_update@Plugin@@SAXABUUpdateCommand@@@Z@@std@@YA?AV<lambda_2>@?1??cmdline_update@Plugin@@SAXABUUpdateCommand@@@Z@V?$_Vector_const_iterator@V?$_Vector_val@U?$_Simple_types@V?$basic_string@_WU?$char_traits@_W@std@@V?$allocator@_W@2@@std@@@std@@@std@@@0@1V1?1??23@SAX0@Z@@Z 1001e560 f i plugin.obj
 0001:0001d790       ??$for_each@V?$_Vector_iterator@V?$_Vector_val@U?$_Simple_types@V?$basic_string@_WU?$char_traits@_W@std@@V?$allocator@_W@2@@std@@@std@@@std@@@std@@V<lambda_3>@?1??cmdline_update@Plugin@@SAXABUUpdateCommand@@@Z@@std@@YA?AV<lambda_3>@?1??cmdline_update@Plugin@@SAXABUUpdateCommand@@@Z@V?$_Vector_iterator@V?$_Vector_val@U?$_Simple_types@V?$basic_string@_WU?$char_traits@_W@std@@V?$allocator@_W@2@@std@@@std@@@std@@@0@1V1?1??23@SAX0@Z@@Z 1001e790 f i plugin.obj
 0001:0001dbc0       ??$copy@V?$_List_const_iterator@V?$_List_val@U?$_List_simple_types@V?$basic_string@_WU?$char_traits@_W@std@@V?$allocator@_W@2@@std@@@std@@@std@@@std@@V?$insert_iterator@V?$set@V?$basic_string@_WU?$char_traits@_W@std@@V?$allocator@_W@2@@std@@U?$less@V?$basic_string@_WU?$char_traits@_W@std@@V?$allocator@_W@2@@std@@@2@V?$allocator@V?$basic_string@_WU?$char_traits@_W@std@@V?$allocator@_W@2@@std@@@2@@std@@@2@@std@@YA?AV?$insert_iterator@V?$set@V?$basic_string@_WU?$char_traits@_W@std@@V?$allocator@_W@2@@std@@U?$less@V?$basic_string@_WU?$char_traits@_W@std@@V?$allocator@_W@2@@std@@@2@V?$allocator@V?$basic_string@_WU?$char_traits@_W@std@@V?$allocator@_W@2@@std@@@2@@std@@@0@V?$_List_const_iterator@V?$_List_val@U?$_List_simple_types@V?$basic_string@_WU?$char_traits@_W@std@@V?$allocator@_W@2@@std@@@std@@@std@@@0@0V10@@Z 1001ebc0 f i plugin.obj
 0001:0001dce0       ??$_Emplace@ABUError@@@?$list@UError@@V?$allocator@UError@@@std@@@std@@QAEPAU?$_List_node@UError@@PAX@1@QAU21@ABUError@@@Z 1001ece0 f i plugin.obj
 0001:0001ddc0       ??$_Emplace_reallocate@ABUInfoPanelLine@@@?$vector@UInfoPanelLine@@V?$allocator@UInfoPanelLine@@@std@@@std@@QAEPAUInfoPanelLine@@QAU2@ABU2@@Z 1001edc0 f i plugin.obj
 0001:0001dea0       ??$_Lower_bound_duplicate@V?$basic_string@_WU?$char_traits@_W@std@@V?$allocator@_W@2@@std@@@?$_Tree@V?$_Tset_traits@V?$basic_string@_WU?$char_traits@_W@std@@V?$allocator@_W@2@@std@@U?$less@V?$basic_string@_WU?$char_traits@_W@std@@V?$allocator@_W@2@@std@@@2@V?$allocator@V?$basic_string@_WU?$char_traits@_W@std@@V?$allocator@_W@2@@std@@@2@$0A@@std@@@std@@IBE_NQAU?$_Tree_node@V?$basic_string@_WU?$char_traits@_W@std@@V?$allocator@_W@2@@std@@PAX@1@ABV?$basic_string@_WU?$char_traits@_W@std@@V?$allocator@_W@2@@1@@Z 1001eea0 f i plugin.obj
 0001:0001df00       ??$construct@V?$basic_string@_WU?$char_traits@_W@std@@V?$allocator@_W@2@@std@@V12@@?$_Default_allocator_traits@V?$allocator@V?$basic_string@_WU?$char_traits@_W@std@@V?$allocator@_W@2@@std@@@std@@@std@@SAXAAV?$allocator@V?$basic_string@_WU?$char_traits@_W@std@@V?$allocator@_W@2@@std@@@1@QAV?$basic_string@_WU?$char_traits@_W@std@@V?$allocator@_W@2@@1@$$QAV31@@Z 1001ef00 f i plugin.obj
 0001:0001df50       ??$_Emplace_reallocate@V?$basic_string@_WU?$char_traits@_W@std@@V?$allocator@_W@2@@std@@@?$vector@V?$basic_string@_WU?$char_traits@_W@std@@V?$allocator@_W@2@@std@@V?$allocator@V?$basic_string@_WU?$char_traits@_W@std@@V?$allocator@_W@2@@std@@@2@@std@@QAEPAV?$basic_string@_WU?$char_traits@_W@std@@V?$allocator@_W@2@@1@QAV21@$$QAV21@@Z 1001ef50 f i plugin.obj
 0001:0001e060       ??$_Emplace_reallocate@ABV?$basic_string@_WU?$char_traits@_W@std@@V?$allocator@_W@2@@std@@@?$vector@V?$basic_string@_WU?$char_traits@_W@std@@V?$allocator@_W@2@@std@@V?$allocator@V?$basic_string@_WU?$char_traits@_W@std@@V?$allocator@_W@2@@std@@@2@@std@@QAEPAV?$basic_string@_WU?$char_traits@_W@std@@V?$allocator@_W@2@@1@QAV21@ABV21@@Z 1001f060 f i plugin.obj
 0001:0001e1b0       ??$_Destroy_range@V?$allocator@V?$shared_ptr@VArchive@@@std@@@std@@@std@@YAXPAV?$shared_ptr@VArchive@@@0@QAV10@AAV?$allocator@V?$shared_ptr@VArchive@@@std@@@0@@Z 1001f1b0 f i plugin.obj
 0001:0001e210       ??1?$_Uninitialized_backout_al@V?$allocator@V?$basic_string@_WU?$char_traits@_W@std@@V?$allocator@_W@2@@std@@@std@@@std@@QAE@XZ 1001f210 f i plugin.obj
 0001:0001e220       ?_Delete_this@?$_Ref_count@V?$map@IUFileIndexInfo@@U?$less@I@std@@V?$allocator@U?$pair@$$CBIUFileIndexInfo@@@std@@@3@@std@@@std@@EAEXXZ 1001f220 f i update.obj
 0001:0001e220       ?_Delete_this@?$_Ref_count@V?$set@IU?$less@I@std@@V?$allocator@I@2@@std@@@std@@EAEXXZ 1001f220 f i extract.obj
 0001:0001e220       ?_Delete_this@?$_Ref_count@VArchiveUpdateProgress@@@std@@EAEXXZ 1001f220 f i update.obj
 0001:0001e220       ?_Delete_this@?$_Ref_count@W4OverwriteAction@@@std@@EAEXXZ 1001f220 f i extract.obj
 0001:0001e220       ?_Delete_this@?$_Ref_count@VArchive@@@std@@EAEXXZ 1001f220 f i plugin.obj
 0001:0001e220       ?_Delete_this@?$_Ref_count@VFileFilter@Far@@@std@@EAEXXZ 1001f220 f i ui.obj
 0001:0001e220       ?_Delete_this@?$_Ref_count@VArchiveFileDeleterProgress@@@std@@EAEXXZ 1001f220 f i delete.obj
 0001:0001e220       ?_Delete_this@?$_Ref_count@VExtractProgress@@@std@@EAEXXZ 1001f220 f i extract.obj
 0001:0001e220       ?_Delete_this@?$_Ref_count@VFileWriteCache@@@std@@EAEXXZ 1001f220 f i extract.obj
 0001:0001e220       ?_Delete_this@?$_Ref_count@V?$list@UError@@V?$allocator@UError@@@std@@@std@@@std@@EAEXXZ 1001f220 f i plugin.obj
 0001:0001e220       ?_Delete_this@?$_Ref_count@_N@std@@EAEXXZ 1001f220 f i extract.obj
 0001:0001e230       ?_Destroy@?$_Ref_count@V?$list@UError@@V?$allocator@UError@@@std@@@std@@@std@@EAEXXZ 1001f230 f i plugin.obj
 0001:0001e250       ??1?$_Temporary_owner@V?$list@UError@@V?$allocator@UError@@@std@@@std@@@std@@QAE@XZ 1001f250 f i plugin.obj
 0001:0001e270       ?_Destroy@?$_Ref_count@VArchive@@@std@@EAEXXZ 1001f270 f i plugin.obj
 0001:0001e290       ??1?$_Temporary_owner@VArchive@@@std@@QAE@XZ 1001f290 f i plugin.obj
 0001:0001e2b0       ??_G?$_Ref_count@W4OverwriteAction@@@std@@UAEPAXI@Z 1001f2b0 f i extract.obj
 0001:0001e2b0       ??_E?$_Ref_count@VArchiveFileDeleterProgress@@@std@@UAEPAXI@Z 1001f2b0 f i * CIL library *:* CIL module *
 0001:0001e2b0       ??_G?$_Ref_count@VFileWriteCache@@@std@@UAEPAXI@Z 1001f2b0 f i extract.obj
 0001:0001e2b0       ??_G?$_Ref_count@VFileFilter@Far@@@std@@UAEPAXI@Z 1001f2b0 f i ui.obj
 0001:0001e2b0       ??_E?$_Ref_count@VArchive@@@std@@UAEPAXI@Z 1001f2b0 f i * CIL library *:* CIL module *
 0001:0001e2b0       ??_E?$_Ref_count@VExtractProgress@@@std@@UAEPAXI@Z 1001f2b0 f i * CIL library *:* CIL module *
 0001:0001e2b0       ??_E?$_Ref_count@V?$set@IU?$less@I@std@@V?$allocator@I@2@@std@@@std@@UAEPAXI@Z 1001f2b0 f i * CIL library *:* CIL module *
 0001:0001e2b0       ??_E?$_Ref_count@VFileFilter@Far@@@std@@UAEPAXI@Z 1001f2b0 f i * CIL library *:* CIL module *
 0001:0001e2b0       ??_E?$_Ref_count@_N@std@@UAEPAXI@Z 1001f2b0 f i * CIL library *:* CIL module *
 0001:0001e2b0       ??_G?$_Ref_count@VExtractProgress@@@std@@UAEPAXI@Z 1001f2b0 f i extract.obj
 0001:0001e2b0       ??_G?$_Ref_count@VArchiveUpdateProgress@@@std@@UAEPAXI@Z 1001f2b0 f i update.obj
 0001:0001e2b0       ??_G?$_Ref_count@_N@std@@UAEPAXI@Z 1001f2b0 f i extract.obj
 0001:0001e2b0       ??_E?$_Ref_count@W4OverwriteAction@@@std@@UAEPAXI@Z 1001f2b0 f i * CIL library *:* CIL module *
 0001:0001e2b0       ??_G?$_Ref_count@V?$set@IU?$less@I@std@@V?$allocator@I@2@@std@@@std@@UAEPAXI@Z 1001f2b0 f i extract.obj
 0001:0001e2b0       ??_E?$_Ref_count@V?$list@UError@@V?$allocator@UError@@@std@@@std@@@std@@UAEPAXI@Z 1001f2b0 f i * CIL library *:* CIL module *
 0001:0001e2b0       ??_G?$_Ref_count@VArchive@@@std@@UAEPAXI@Z 1001f2b0 f i plugin.obj
 0001:0001e2b0       ??_G?$_Ref_count@V?$list@UError@@V?$allocator@UError@@@std@@@std@@@std@@UAEPAXI@Z 1001f2b0 f i plugin.obj
 0001:0001e2b0       ??_G?$_Ref_count@VArchiveFileDeleterProgress@@@std@@UAEPAXI@Z 1001f2b0 f i delete.obj
 0001:0001e2b0       ??_E?$_Ref_count@VArchiveUpdateProgress@@@std@@UAEPAXI@Z 1001f2b0 f i * CIL library *:* CIL module *
 0001:0001e2b0       ??_E?$_Ref_count@V?$map@IUFileIndexInfo@@U?$less@I@std@@V?$allocator@U?$pair@$$CBIUFileIndexInfo@@@std@@@3@@std@@@std@@UAEPAXI@Z 1001f2b0 f i * CIL library *:* CIL module *
 0001:0001e2b0       ??_E?$_Ref_count@VFileWriteCache@@@std@@UAEPAXI@Z 1001f2b0 f i * CIL library *:* CIL module *
 0001:0001e2b0       ??_G?$_Ref_count@V?$map@IUFileIndexInfo@@U?$less@I@std@@V?$allocator@U?$pair@$$CBIUFileIndexInfo@@@std@@@3@@std@@@std@@UAEPAXI@Z 1001f2b0 f i update.obj
 0001:0001e2d0       ??1Archive@@QAE@XZ         1001f2d0 f i plugin.obj
 0001:0001e5f0       ??1?$_Alloc_construct_ptr@V?$allocator@U?$_List_node@UError@@PAX@std@@@std@@@std@@QAE@XZ 1001f5f0 f i plugin.obj
 0001:0001e610       ??1?$list@UError@@V?$allocator@UError@@@std@@@std@@QAE@XZ 1001f610 f i plugin.obj
 0001:0001e680       ??$_Sort_unchecked@PAIV<lambda_1>@?BC@??extract_items@Plugin@@SAXABV?$basic_string@_WU?$char_traits@_W@std@@V?$allocator@_W@2@@std@@ABUExtractOptions@@ABV?$vector@V?$basic_string@_WU?$char_traits@_W@std@@V?$allocator@_W@2@@std@@V?$allocator@V?$basic_string@_WU?$char_traits@_W@std@@V?$allocator@_W@2@@std@@@2@@5@@Z@@std@@YAXPAI0HV<lambda_1>@?BC@??extract_items@Plugin@@SAXABV?$basic_string@_WU?$char_traits@_W@std@@V?$allocator@_W@2@@0@ABUExtractOptions@@ABV?$vector@V?$basic_string@_WU?$char_traits@_W@std@@V?$allocator@_W@2@@std@@V?$allocator@V?$basic_string@_WU?$char_traits@_W@std@@V?$allocator@_W@2@@std@@@2@@0@@Z@@Z 1001f680 f i plugin.obj
 0001:0001e830       ??$_Erase_tree@V?$allocator@U?$_Tree_node@V?$basic_string@_WU?$char_traits@_W@std@@V?$allocator@_W@2@@std@@PAX@std@@@std@@@?$_Tree_val@U?$_Tree_simple_types@V?$basic_string@_WU?$char_traits@_W@std@@V?$allocator@_W@2@@std@@@std@@@std@@QAEXAAV?$allocator@U?$_Tree_node@V?$basic_string@_WU?$char_traits@_W@std@@V?$allocator@_W@2@@std@@PAX@std@@@1@PAU?$_Tree_node@V?$basic_string@_WU?$char_traits@_W@std@@V?$allocator@_W@2@@std@@PAX@1@@Z 1001f830 f i plugin.obj
 0001:0001e830       ??$_Erase_tree_and_orphan@V?$allocator@U?$_Tree_node@V?$basic_string@_WU?$char_traits@_W@std@@V?$allocator@_W@2@@std@@PAX@std@@@std@@@?$_Tree_val@U?$_Tree_simple_types@V?$basic_string@_WU?$char_traits@_W@std@@V?$allocator@_W@2@@std@@@std@@@std@@QAEXAAV?$allocator@U?$_Tree_node@V?$basic_string@_WU?$char_traits@_W@std@@V?$allocator@_W@2@@std@@PAX@std@@@1@PAU?$_Tree_node@V?$basic_string@_WU?$char_traits@_W@std@@V?$allocator@_W@2@@std@@PAX@1@@Z 1001f830 f i open.obj
 0001:0001e8c0       ??$_Assign_cast@AAUAttr@@V?$_List_unchecked_const_iterator@V?$_List_val@U?$_List_simple_types@UAttr@@@std@@@std@@U_Iterator_base0@2@@std@@@?$list@UAttr@@V?$allocator@UAttr@@@std@@@std@@AAEXV?$_List_unchecked_const_iterator@V?$_List_val@U?$_List_simple_types@UAttr@@@std@@@std@@U_Iterator_base0@2@@1@V21@@Z 1001f8c0 f i plugin.obj
 0001:0001ea70       ??$_Freenode@V?$allocator@U?$_List_node@UArcEntry@@PAX@std@@@std@@@?$_List_node@UArcEntry@@PAX@std@@SAXAAV?$allocator@U?$_List_node@UArcEntry@@PAX@std@@@1@PAU01@@Z 1001fa70 f i plugin.obj
 0001:0001ead0       ??1?$_List_node_insert_op@V?$allocator@U?$_List_node@UAttr@@PAX@std@@@std@@@std@@QAE@XZ 1001fad0 f i plugin.obj
 0001:0001eb70       ??$_Construct@PBD@?$basic_string@_WU?$char_traits@_W@std@@V?$allocator@_W@2@@std@@QAEXPBDQBDUinput_iterator_tag@1@@Z 1001fb70 f i strutils.obj
 0001:0001eb70       ??$_Construct@PAD@?$basic_string@_WU?$char_traits@_W@std@@V?$allocator@_W@2@@std@@QAEXPADQADUinput_iterator_tag@1@@Z 1001fb70 f i plugin.obj
 0001:0001ed40       ??$_Partition_by_median_guess_unchecked@PAIV<lambda_1>@?BC@??extract_items@Plugin@@SAXABV?$basic_string@_WU?$char_traits@_W@std@@V?$allocator@_W@2@@std@@ABUExtractOptions@@ABV?$vector@V?$basic_string@_WU?$char_traits@_W@std@@V?$allocator@_W@2@@std@@V?$allocator@V?$basic_string@_WU?$char_traits@_W@std@@V?$allocator@_W@2@@std@@@2@@5@@Z@@std@@YA?AU?$pair@PAIPAI@0@PAI0V<lambda_1>@?BC@??extract_items@Plugin@@SAXABV?$basic_string@_WU?$char_traits@_W@std@@V?$allocator@_W@2@@0@ABUExtractOptions@@ABV?$vector@V?$basic_string@_WU?$char_traits@_W@std@@V?$allocator@_W@2@@std@@V?$allocator@V?$basic_string@_WU?$char_traits@_W@std@@V?$allocator@_W@2@@std@@@2@@0@@Z@@Z 1001fd40 f i plugin.obj
 0001:0001ee90       ??1?$_Alloc_construct_ptr@V?$allocator@U?$_List_node@UAttr@@PAX@std@@@std@@@std@@QAE@XZ 1001fe90 f i plugin.obj
 0001:0001eeb0       ??1?$_Tidy_deallocate_guard@V?$basic_string@_WU?$char_traits@_W@std@@V?$allocator@_W@2@@std@@@std@@QAE@XZ 1001feb0 f i plugin.obj
 0001:0001eec0       ?push_back@?$basic_string@_WU?$char_traits@_W@std@@V?$allocator@_W@2@@std@@QAEX_W@Z 1001fec0 f i plugin.obj
 0001:0001efe0       ??1?$_Alloc_construct_ptr@V?$allocator@U?$_List_node@UIdLang@@PAX@std@@@std@@@std@@QAE@XZ 1001ffe0 f i rsrc.obj
 0001:0001efe0       ??1?$_Alloc_construct_ptr@V?$allocator@U?$_Tree_node@V?$basic_string@_WU?$char_traits@_W@std@@V?$allocator@_W@2@@std@@PAX@std@@@std@@@std@@QAE@XZ 1001ffe0 f i plugin.obj
 0001:0001efe0       ??1?$_Tree_temp_node_alloc@V?$allocator@U?$_Tree_node@V?$basic_string@_WU?$char_traits@_W@std@@V?$allocator@_W@2@@std@@PAX@std@@@std@@@std@@QAE@XZ 1001ffe0 f i plugin.obj
 0001:0001f000       ??$_Find_hint@V?$basic_string@_WU?$char_traits@_W@std@@V?$allocator@_W@2@@std@@@?$_Tree@V?$_Tset_traits@V?$basic_string@_WU?$char_traits@_W@std@@V?$allocator@_W@2@@std@@U?$less@V?$basic_string@_WU?$char_traits@_W@std@@V?$allocator@_W@2@@std@@@2@V?$allocator@V?$basic_string@_WU?$char_traits@_W@std@@V?$allocator@_W@2@@std@@@2@$0A@@std@@@std@@IBE?AU?$_Tree_find_hint_result@PAU?$_Tree_node@V?$basic_string@_WU?$char_traits@_W@std@@V?$allocator@_W@2@@std@@PAX@std@@@1@QAU?$_Tree_node@V?$basic_string@_WU?$char_traits@_W@std@@V?$allocator@_W@2@@std@@PAX@1@ABV?$basic_string@_WU?$char_traits@_W@std@@V?$allocator@_W@2@@1@@Z 10020000 f i plugin.obj
 0001:0001f1c0       ??F?$_Tree_unchecked_const_iterator@V?$_Tree_val@U?$_Tree_simple_types@V?$basic_string@_WU?$char_traits@_W@std@@V?$allocator@_W@2@@std@@@std@@@std@@U_Iterator_base0@2@@std@@QAEAAV01@XZ 100201c0 f i plugin.obj
 0001:0001f240       ?_Get_deleter@_Ref_count_base@std@@UBEPAXABVtype_info@@@Z 10020240 f i plugin.obj
 0001:0001f250       ??8type_info@@QBE_NABV0@@Z 10020250 f i plugin.obj
 0001:0001f270       ??$_Reallocate_grow_by@V<lambda_1>@?1??append@?$basic_string@DU?$char_traits@D@std@@V?$allocator@D@2@@std@@QAEAAV34@QBDI@Z@PBDI@?$basic_string@DU?$char_traits@D@std@@V?$allocator@D@2@@std@@AAEAAV01@IV<lambda_1>@?1??append@01@QAEAAV01@QBDI@Z@PBDI@Z 10020270 f i plugin.obj
 0001:0001f3c0       ??0DisableEvents@Dialog@Far@@QAE@AAV12@@Z 100203c0 f i ui.obj
 0001:0001f3f0       ??1DisableEvents@Dialog@Far@@QAE@XZ 100203f0 f i ui.obj
 0001:0001f440       ?def_button@Dialog@Far@@QAEIABV?$basic_string@_WU?$char_traits@_W@std@@V?$allocator@_W@2@@std@@_K@Z 10020440 f i ui.obj
 0001:0001f460       ?check_box@Dialog@Far@@QAEIABV?$basic_string@_WU?$char_traits@_W@std@@V?$allocator@_W@2@@std@@_N_K@Z 10020460 f i ui.obj
 0001:0001f480       ?check_box3@Dialog@Far@@QAEIABV?$basic_string@_WU?$char_traits@_W@std@@V?$allocator@_W@2@@std@@W4TriState@@_K@Z 10020480 f i ui.obj
 0001:0001f4d0       ??0ProgressSuspend@@QAE@AAVProgressMonitor@@@Z 100204d0 f i ui.obj
 0001:0001f520       ??1ProgressSuspend@@QAE@XZ 10020520 f i ui.obj
 0001:0001f530       ?get_error_dlg_title@@YA?AV?$basic_string@_WU?$char_traits@_W@std@@V?$allocator@_W@2@@std@@XZ 10020530 f   ui.obj
 0001:0001f590       ??0ProgressMonitor@@QAE@ABV?$basic_string@_WU?$char_traits@_W@std@@V?$allocator@_W@2@@std@@_N1@Z 10020590 f   ui.obj
 0001:0001f6e0       ??_GProgressMonitor@@UAEPAXI@Z 100206e0 f i ui.obj
 0001:0001f6e0       ??_EProgressMonitor@@UAEPAXI@Z 100206e0 f i * CIL library *:* CIL module *
 0001:0001f710       ??1ProgressMonitor@@UAE@XZ 10020710 f   ui.obj
 0001:0001f890       ?display@ProgressMonitor@@AAEXXZ 10020890 f   ui.obj
 0001:0001fe90       ?update_ui@ProgressMonitor@@QAEX_N@Z 10020e90 f   ui.obj
 0001:00020110       ?handle_esc@ProgressMonitor@@IAEXXZ 10021110 f   ui.obj
 0001:00020390       ?get_suffixes@@YAPAPB_WH@Z 10021390 f   ui.obj
 0001:000206b0       ?dialog_proc@PasswordDialog@@EAEHHHPAX@Z 100216b0 f i ui.obj
 0001:00020730       ?show@PasswordDialog@@QAE_NXZ 10021730 f i ui.obj
 0001:00020a70       ??1Dialog@Far@@QAE@XZ      10021a70 f i ui.obj
 0001:00020ad0       ?password_dialog@@YA_NAAV?$basic_string@_WU?$char_traits@_W@std@@V?$allocator@_W@2@@std@@ABV12@@Z 10021ad0 f   ui.obj
 0001:00020ca0       ??1OverwriteDialog@@QAE@XZ 10021ca0 f i ui.obj
 0001:00020ca0       ??1PasswordDialog@@QAE@XZ  10021ca0 f i ui.obj
 0001:00020d00       ?dialog_proc@OverwriteDialog@@EAEHHHPAX@Z 10021d00 f i ui.obj
 0001:00020df0       ?show@OverwriteDialog@@QAE_NXZ 10021df0 f i ui.obj
 0001:00021910       ?overwrite_dialog@@YA_NABV?$basic_string@_WU?$char_traits@_W@std@@V?$allocator@_W@2@@std@@ABUOverwriteFileInfo@@1W4OverwriteDialogKind@@AAUOverwriteOptions@@@Z 10022910 f   ui.obj
 0001:00021b40       ?read_controls@ExtractDialog@@AAEXAAUExtractOptions@@@Z 10022b40 f i ui.obj
 0001:000220b0       ?dialog_proc@ExtractDialog@@EAEHHHPAX@Z 100230b0 f i ui.obj
 0001:00022360       ?show@ExtractDialog@@QAE_NXZ 10023360 f i ui.obj
 0001:00023080       ?extract_dialog@@YA_NAAUExtractOptions@@@Z 10024080 f   ui.obj
 0001:00023200       ??1AttrDialog@@QAE@XZ      10024200 f i ui.obj
 0001:00023200       ??1SettingsDialog@@QAE@XZ  10024200 f i ui.obj
 0001:00023200       ??1ExtractDialog@@QAE@XZ   10024200 f i ui.obj
 0001:00023210       ?retry_or_ignore_error@@YAXABUError@@AA_N1AAV?$list@UError@@V?$allocator@UError@@@std@@@std@@AAVProgressMonitor@@_N4@Z 10024210 f   ui.obj
 0001:00023aa0       ??_D?$basic_ostringstream@_WU?$char_traits@_W@std@@V?$allocator@_W@2@@std@@QAEXXZ 10024aa0 f i ui.obj
 0001:00023b30       ?show_error_log@@YAXABV?$list@UError@@V?$allocator@UError@@@std@@@std@@@Z 10024b30 f   ui.obj
 0001:00024c80       ??8@YA_NABUSfxOptions@@0@Z 10025c80 f   ui.obj
 0001:00024e30       ??8@YA_NABUProfileOptions@@0@Z 10025e30 f   ui.obj
 0001:00024f80       ?get_default_ext@UpdateDialog@@ABE?AV?$basic_string@_WU?$char_traits@_W@std@@V?$allocator@_W@2@@std@@XZ 10025f80 f i ui.obj
 0001:000251c0       ?change_extension@UpdateDialog@@AAE_NXZ 100261c0 f i ui.obj
 0001:000254a0       ?arc_levels@UpdateDialog@@AAE_ND@Z 100264a0 f i ui.obj
 0001:00025870       ?update_level_list@UpdateDialog@@AAEXXZ 10026870 f i ui.obj
 0001:00025b70       ?set_control_state@UpdateDialog@@AAEXXZ 10026b70 f i ui.obj
 0001:00025f70       ?eval_arc_path@UpdateDialog@@AAE?AV?$basic_string@_WU?$char_traits@_W@std@@V?$allocator@_W@2@@std@@XZ 10026f70 f i ui.obj
 0001:00026600       ?read_controls@UpdateDialog@@AAEXAAUUpdateOptions@@@Z 10027600 f i ui.obj
 0001:00026f20       ?write_controls@UpdateDialog@@AAEXABUProfileOptions@@@Z 10027f20 f i ui.obj
 0001:000277f0       ?populate_profile_list@UpdateDialog@@AAEXXZ 100287f0 f i ui.obj
 0001:000279f0       ?dialog_proc@UpdateDialog@@EAEHHHPAX@Z 100289f0 f i ui.obj
 0001:00028750       ?show@UpdateDialog@@QAE_NXZ 10029750 f i ui.obj
 0001:0002af80       ?update_dialog@@YA_N_N0AAUUpdateOptions@@AAUUpdateProfiles@@@Z 1002bf80 f   ui.obj
 0001:0002b440       ??1UpdateDialog@@QAE@XZ    1002c440 f i ui.obj
 0001:0002b560       ?estimate_column_widths@MultiSelectDialog@@AAE?AV?$vector@IV?$allocator@I@std@@@std@@ABV?$vector@V?$basic_string@_WU?$char_traits@_W@std@@V?$allocator@_W@2@@std@@V?$allocator@V?$basic_string@_WU?$char_traits@_W@std@@V?$allocator@_W@2@@std@@@2@@3@@Z 1002c560 f i ui.obj
 0001:0002b8f0       ?dialog_proc@MultiSelectDialog@@EAEHHHPAX@Z 1002c8f0 f i ui.obj
 0001:0002bae0       ??0MultiSelectDialog@@QAE@ABV?$basic_string@_WU?$char_traits@_W@std@@V?$allocator@_W@2@@std@@0AAV12@@Z 1002cae0 f i ui.obj
 0001:0002bb70       ?show@MultiSelectDialog@@QAE_NXZ 1002cb70 f i ui.obj
 0001:0002bfd0       ??R<lambda_2>@?1??get_available_formats@SettingsDialog@@AAE?AV?$basic_string@_WU?$char_traits@_W@std@@V?$allocator@_W@2@@std@@XZ@QBE_NABV34@0@Z 1002cfd0 f i ui.obj
 0001:0002bfd0       ??RItemCompare@?1??show@MultiSelectDialog@@QAE_NXZ@QBE_NABV?$basic_string@_WU?$char_traits@_W@std@@V?$allocator@_W@2@@std@@0@Z 1002cfd0 f i ui.obj
 0001:0002c110       ?get_formats@FormatLibraryInfoDialog@@AAE?AV?$basic_string@_WU?$char_traits@_W@std@@V?$allocator@_W@2@@std@@I@Z 1002d110 f i ui.obj
 0001:0002c2e0       ?dialog_proc@FormatLibraryInfoDialog@@EAEHHHPAX@Z 1002d2e0 f i ui.obj
 0001:0002c740       ?show@FormatLibraryInfoDialog@@QAEXXZ 1002d740 f i ui.obj
 0001:0002d450       ??1MultiSelectDialog@@QAE@XZ 1002e450 f i ui.obj
 0001:0002d4c0       ?dialog_proc@SettingsDialog@@EAEHHHPAX@Z 1002e4c0 f i ui.obj
 0001:0002dff0       ?get_available_formats@SettingsDialog@@AAE?AV?$basic_string@_WU?$char_traits@_W@std@@V?$allocator@_W@2@@std@@XZ 1002eff0 f i ui.obj
 0001:0002e230       ?show@SettingsDialog@@QAE_NXZ 1002f230 f i ui.obj
 0001:0002f950       ??1FormatLibraryInfoDialog@@QAE@XZ 10030950 f i ui.obj
 0001:0002f970       ??1Options@@QAE@XZ         10030970 f i ui.obj
 0001:0002fd50       ?dialog_proc@AttrDialog@@EAEHHHPAX@Z 10030d50 f i ui.obj
 0001:0002ff10       ?show@AttrDialog@@QAEXXZ   10030f10 f i ui.obj
 0001:00030030       ??A?$map@HIU?$less@H@std@@V?$allocator@U?$pair@$$CBHI@std@@@2@@std@@QAEAAI$$QAH@Z 10031030 f i ui.obj
 0001:000300f0       ?find@?$_Tree@V?$_Tmap_traits@HIU?$less@H@std@@V?$allocator@U?$pair@$$CBHI@std@@@2@$0A@@std@@@std@@QAE?AV?$_Tree_iterator@V?$_Tree_val@U?$_Tree_simple_types@U?$pair@$$CBHI@std@@@std@@@std@@@2@ABH@Z 100310f0 f i ui.obj
 0001:00030140       ??1?$vector@UFarListItem@@V?$allocator@UFarListItem@@@std@@@std@@QAE@XZ 10031140 f i ui.obj
 0001:000301a0       ?seekpos@?$basic_stringbuf@_WU?$char_traits@_W@std@@V?$allocator@_W@2@@std@@MAE?AV?$fpos@U_Mbstatet@@@2@V32@H@Z 100311a0 f i ui.obj
 0001:000302b0       ?seekoff@?$basic_stringbuf@_WU?$char_traits@_W@std@@V?$allocator@_W@2@@std@@MAE?AV?$fpos@U_Mbstatet@@@2@_JHH@Z 100312b0 f i ui.obj
 0001:00030450       ?underflow@?$basic_stringbuf@_WU?$char_traits@_W@std@@V?$allocator@_W@2@@std@@MAEGXZ 10031450 f i ui.obj
 0001:000304b0       ?pbackfail@?$basic_stringbuf@_WU?$char_traits@_W@std@@V?$allocator@_W@2@@std@@MAEGG@Z 100314b0 f i ui.obj
 0001:00030510       ?overflow@?$basic_stringbuf@_WU?$char_traits@_W@std@@V?$allocator@_W@2@@std@@MAEGG@Z 10031510 f i ui.obj
 0001:000306a0       ??1?$basic_stringbuf@_WU?$char_traits@_W@std@@V?$allocator@_W@2@@std@@UAE@XZ 100316a0 f i ui.obj
 0001:00030780       ?imbue@?$basic_streambuf@_WU?$char_traits@_W@std@@@std@@MAEXABVlocale@2@@Z 10031780 f i ui.obj
 0001:00030790       ?sync@?$basic_streambuf@_WU?$char_traits@_W@std@@@std@@MAEHXZ 10031790 f i ui.obj
 0001:000307a0       ?setbuf@?$basic_streambuf@_WU?$char_traits@_W@std@@@std@@MAEPAV12@PA_W_J@Z 100317a0 f i ui.obj
 0001:000307b0       ?seekpos@?$basic_streambuf@_WU?$char_traits@_W@std@@@std@@MAE?AV?$fpos@U_Mbstatet@@@2@V32@H@Z 100317b0 f i ui.obj
 0001:000307e0       ?seekoff@?$basic_streambuf@_WU?$char_traits@_W@std@@@std@@MAE?AV?$fpos@U_Mbstatet@@@2@_JHH@Z 100317e0 f i ui.obj
 0001:00030810       ?xsputn@?$basic_streambuf@_WU?$char_traits@_W@std@@@std@@MAE_JPB_W_J@Z 10031810 f i ui.obj
 0001:00030900       ?xsgetn@?$basic_streambuf@_WU?$char_traits@_W@std@@@std@@MAE_JPA_W_J@Z 10031900 f i ui.obj
 0001:00030a10       ?uflow@?$basic_streambuf@_WU?$char_traits@_W@std@@@std@@MAEGXZ 10031a10 f i ui.obj
 0001:00030a40       ?underflow@?$basic_streambuf@_WU?$char_traits@_W@std@@@std@@MAEGXZ 10031a40 f i ui.obj
 0001:00030a50       ?showmanyc@?$basic_streambuf@_WU?$char_traits@_W@std@@@std@@MAE_JXZ 10031a50 f i ui.obj
 0001:00030a60       ?pbackfail@?$basic_streambuf@_WU?$char_traits@_W@std@@@std@@MAEGG@Z 10031a60 f i ui.obj
 0001:00030a60       ?overflow@?$basic_streambuf@_WU?$char_traits@_W@std@@@std@@MAEGG@Z 10031a60 f i ui.obj
 0001:00030a70       @_guard_check_icall_nop@4  10031a70 f i LIBCMT:guard_support.obj
 0001:00030a70       ?_Unlock@?$basic_streambuf@_WU?$char_traits@_W@std@@@std@@UAEXXZ 10031a70 f i ui.obj
 0001:00030a70       ?_Lock@?$basic_streambuf@_WU?$char_traits@_W@std@@@std@@UAEXXZ 10031a70 f i ui.obj
 0001:00030a80       ?str@?$basic_ostringstream@_WU?$char_traits@_W@std@@V?$allocator@_W@2@@std@@QBE?AV?$basic_string@_WU?$char_traits@_W@std@@V?$allocator@_W@2@@2@XZ 10031a80 f i ui.obj
 0001:00030b40       ??0?$basic_ostringstream@_WU?$char_traits@_W@std@@V?$allocator@_W@2@@std@@QAE@H@Z 10031b40 f i ui.obj
 0001:00030d60       ??6?$basic_ostream@_WU?$char_traits@_W@std@@@std@@QAEAAV01@H@Z 10031d60 f i ui.obj
 0001:00030ef0       ??1?$basic_ostream@_WU?$char_traits@_W@std@@@std@@UAE@XZ 10031ef0 f i ui.obj
 0001:00030f10       ??1?$basic_ios@_WU?$char_traits@_W@std@@@std@@UAE@XZ 10031f10 f i ui.obj
 0001:00030f60       ??1?$vector@UExternalCodec@@V?$allocator@UExternalCodec@@@std@@@std@@QAE@XZ 10031f60 f i ui.obj
 0001:00030fe0       ?erase@?$vector@UUpdateProfile@@V?$allocator@UUpdateProfile@@@std@@@std@@QAE?AV?$_Vector_iterator@V?$_Vector_val@U?$_Simple_types@UUpdateProfile@@@std@@@std@@@2@V?$_Vector_const_iterator@V?$_Vector_val@U?$_Simple_types@UUpdateProfile@@@std@@@std@@@2@@Z 10031fe0 f i ui.obj
 0001:00031110       ?reset@?$shared_ptr@VFileFilter@Far@@@std@@QAEXXZ 10032110 f i ui.obj
 0001:00031160       ??1?$vector@UDialogItem@Far@@V?$allocator@UDialogItem@Far@@@std@@@std@@QAE@XZ 10032160 f i ui.obj
 0001:000311c0       ?find_last_of@?$basic_string@_WU?$char_traits@_W@std@@V?$allocator@_W@2@@std@@QBEI_WI@Z 100321c0 f i ui.obj
 0001:00031200       ?find@?$basic_string@_WU?$char_traits@_W@std@@V?$allocator@_W@2@@std@@QBEI_WI@Z 10032200 f i ui.obj
 0001:00031260       ??_E?$basic_stringbuf@_WU?$char_traits@_W@std@@V?$allocator@_W@2@@std@@UAEPAXI@Z 10032260 f i * CIL library *:* CIL module *
 0001:00031260       ??_G?$basic_stringbuf@_WU?$char_traits@_W@std@@V?$allocator@_W@2@@std@@UAEPAXI@Z 10032260 f i ui.obj
 0001:00031280       ??_G?$basic_streambuf@_WU?$char_traits@_W@std@@@std@@UAEPAXI@Z 10032280 f i ui.obj
 0001:00031280       ??_E?$basic_streambuf@_WU?$char_traits@_W@std@@@std@@UAEPAXI@Z 10032280 f i * CIL library *:* CIL module *
 0001:000312d0       ??_E?$basic_ostringstream@_WU?$char_traits@_W@std@@V?$allocator@_W@2@@std@@UAEPAXI@Z 100322d0 f i * CIL library *:* CIL module *
 0001:000312d0       ??_G?$basic_ostringstream@_WU?$char_traits@_W@std@@V?$allocator@_W@2@@std@@UAEPAXI@Z 100322d0 f i ui.obj
 0001:00031300       ??_G?$basic_ostream@_WU?$char_traits@_W@std@@@std@@UAEPAXI@Z 10032300 f i ui.obj
 0001:00031300       ??_E?$basic_ostream@_WU?$char_traits@_W@std@@@std@@UAEPAXI@Z 10032300 f i * CIL library *:* CIL module *
 0001:00031380       ??_E?$basic_ios@_WU?$char_traits@_W@std@@@std@@UAEPAXI@Z 10032380 f i * CIL library *:* CIL module *
 0001:00031380       ??_G?$basic_ios@_WU?$char_traits@_W@std@@@std@@UAEPAXI@Z 10032380 f i ui.obj
 0001:000313e0       ?do_put@?$num_put@_WV?$ostreambuf_iterator@_WU?$char_traits@_W@std@@@std@@@std@@MBE?AV?$ostreambuf_iterator@_WU?$char_traits@_W@std@@@2@V32@AAVios_base@2@_WPBX@Z 100323e0 f i ui.obj
 0001:00031450       ?do_put@?$num_put@_WV?$ostreambuf_iterator@_WU?$char_traits@_W@std@@@std@@@std@@MBE?AV?$ostreambuf_iterator@_WU?$char_traits@_W@std@@@2@V32@AAVios_base@2@_WO@Z 10032450 f i ui.obj
 0001:000315e0       ?do_put@?$num_put@_WV?$ostreambuf_iterator@_WU?$char_traits@_W@std@@@std@@@std@@MBE?AV?$ostreambuf_iterator@_WU?$char_traits@_W@std@@@2@V32@AAVios_base@2@_WN@Z 100325e0 f i ui.obj
 0001:00031770       ?do_put@?$num_put@_WV?$ostreambuf_iterator@_WU?$char_traits@_W@std@@@std@@@std@@MBE?AV?$ostreambuf_iterator@_WU?$char_traits@_W@std@@@2@V32@AAVios_base@2@_W_K@Z 10032770 f i ui.obj
 0001:00031840       ?do_put@?$num_put@_WV?$ostreambuf_iterator@_WU?$char_traits@_W@std@@@std@@@std@@MBE?AV?$ostreambuf_iterator@_WU?$char_traits@_W@std@@@2@V32@AAVios_base@2@_W_J@Z 10032840 f i ui.obj
 0001:00031910       ?do_put@?$num_put@_WV?$ostreambuf_iterator@_WU?$char_traits@_W@std@@@std@@@std@@MBE?AV?$ostreambuf_iterator@_WU?$char_traits@_W@std@@@2@V32@AAVios_base@2@_WK@Z 10032910 f i ui.obj
 0001:000319d0       ?do_put@?$num_put@_WV?$ostreambuf_iterator@_WU?$char_traits@_W@std@@@std@@@std@@MBE?AV?$ostreambuf_iterator@_WU?$char_traits@_W@std@@@2@V32@AAVios_base@2@_WJ@Z 100329d0 f i ui.obj
 0001:00031a90       ?do_put@?$num_put@_WV?$ostreambuf_iterator@_WU?$char_traits@_W@std@@@std@@@std@@MBE?AV?$ostreambuf_iterator@_WU?$char_traits@_W@std@@@2@V32@AAVios_base@2@_W_N@Z 10032a90 f i ui.obj
 0001:00031ca0       ?put@?$num_put@_WV?$ostreambuf_iterator@_WU?$char_traits@_W@std@@@std@@@std@@QBE?AV?$ostreambuf_iterator@_WU?$char_traits@_W@std@@@2@V32@AAVios_base@2@_WJ@Z 10032ca0 f i ui.obj
 0001:00031cd0       ??1sentry@?$basic_ostream@_WU?$char_traits@_W@std@@@std@@QAE@XZ 10032cd0 f i ui.obj
 0001:00031d40       ??0sentry@?$basic_ostream@_WU?$char_traits@_W@std@@@std@@QAE@AAV12@@Z 10032d40 f i ui.obj
 0001:00031e80       ?_Pnavail@?$basic_streambuf@_WU?$char_traits@_W@std@@@std@@IBE_JXZ 10032e80 f i ui.obj
 0001:00031ea0       ?_Gnavail@?$basic_streambuf@_WU?$char_traits@_W@std@@@std@@IBE_JXZ 10032ea0 f i ui.obj
 0001:00031ec0       ?setstate@?$basic_ios@_WU?$char_traits@_W@std@@@std@@QAEXH_N@Z 10032ec0 f i ui.obj
 0001:00031ef0       ??_E?$num_put@_WV?$ostreambuf_iterator@_WU?$char_traits@_W@std@@@std@@@std@@MAEPAXI@Z 10032ef0 f i * CIL library *:* CIL module *
 0001:00031ef0       ??_G?$num_put@_WV?$ostreambuf_iterator@_WU?$char_traits@_W@std@@@std@@@std@@MAEPAXI@Z 10032ef0 f i ui.obj
 0001:00031f20       ?do_truename@?$numpunct@_W@std@@MBE?AV?$basic_string@_WU?$char_traits@_W@std@@V?$allocator@_W@2@@2@XZ 10032f20 f i ui.obj
 0001:00031f60       ?do_falsename@?$numpunct@_W@std@@MBE?AV?$basic_string@_WU?$char_traits@_W@std@@V?$allocator@_W@2@@2@XZ 10032f60 f i ui.obj
 0001:00031fa0       ?do_grouping@?$numpunct@_W@std@@MBE?AV?$basic_string@DU?$char_traits@D@std@@V?$allocator@D@2@@2@XZ 10032fa0 f i ui.obj
 0001:00031fe0       ?do_thousands_sep@?$numpunct@_W@std@@MBE_WXZ 10032fe0 f i ui.obj
 0001:00031ff0       ?do_decimal_point@?$numpunct@_W@std@@MBE_WXZ 10032ff0 f i ui.obj
 0001:00032000       ?_Rep@?$num_put@_WV?$ostreambuf_iterator@_WU?$char_traits@_W@std@@@std@@@std@@ABA?AV?$ostreambuf_iterator@_WU?$char_traits@_W@std@@@2@V32@_WI@Z 10033000 f i ui.obj
 0001:00032080       ?_Put@?$num_put@_WV?$ostreambuf_iterator@_WU?$char_traits@_W@std@@@std@@@std@@ABA?AV?$ostreambuf_iterator@_WU?$char_traits@_W@std@@@2@V32@PB_WI@Z 10033080 f i ui.obj
 0001:00032100       ?_Iput@?$num_put@_WV?$ostreambuf_iterator@_WU?$char_traits@_W@std@@@std@@@std@@ABA?AV?$ostreambuf_iterator@_WU?$char_traits@_W@std@@@2@V32@AAVios_base@2@_WPADI@Z 10033100 f i ui.obj
 0001:00032630       ?_Fput@?$num_put@_WV?$ostreambuf_iterator@_WU?$char_traits@_W@std@@@std@@@std@@ABA?AV?$ostreambuf_iterator@_WU?$char_traits@_W@std@@@2@V32@AAVios_base@2@_WPBDI@Z 10033630 f i ui.obj
 0001:00032be0       ?_Ffmt@?$num_put@_WV?$ostreambuf_iterator@_WU?$char_traits@_W@std@@@std@@@std@@ABAPADPADDH@Z 10033be0 f i ui.obj
 0001:00032ca0       ??1_Sentry_base@?$basic_ostream@_WU?$char_traits@_W@std@@@std@@QAE@XZ 10033ca0 f i ui.obj
 0001:00032cf0       ?_Osfx@?$basic_ostream@_WU?$char_traits@_W@std@@@std@@QAEXXZ 10033cf0 f i ui.obj
 0001:00032d80       ?_Destroy@?$vector@UExternalCodec@@V?$allocator@UExternalCodec@@@std@@@std@@AAEXPAUExternalCodec@@0@Z 10033d80 f i ui.obj
 0001:00032db0       ?deallocate@?$allocator@UExternalCodec@@@std@@QAEXQAUExternalCodec@@I@Z 10033db0 f i ui.obj
 0001:00032df0       ??_E?$numpunct@_W@std@@MAEPAXI@Z 10033df0 f i * CIL library *:* CIL module *
 0001:00032df0       ??_G?$numpunct@_W@std@@MAEPAXI@Z 10033df0 f i ui.obj
 0001:00032e40       ??$?H_WU?$char_traits@_W@std@@V?$allocator@_W@1@@std@@YA?AV?$basic_string@_WU?$char_traits@_W@std@@V?$allocator@_W@2@@0@ABV10@_W@Z 10033e40 f i ui.obj
 0001:00032fe0       ??$?H_WU?$char_traits@_W@std@@V?$allocator@_W@1@@std@@YA?AV?$basic_string@_WU?$char_traits@_W@std@@V?$allocator@_W@2@@0@$$QAV10@_W@Z 10033fe0 f i ui.obj
 0001:00033040       ??$?H_WU?$char_traits@_W@std@@V?$allocator@_W@1@@std@@YA?AV?$basic_string@_WU?$char_traits@_W@std@@V?$allocator@_W@2@@0@ABV10@0@Z 10034040 f i ui.obj
 0001:000330e0       ??$?H_WU?$char_traits@_W@std@@V?$allocator@_W@1@@std@@YA?AV?$basic_string@_WU?$char_traits@_W@std@@V?$allocator@_W@2@@0@ABV10@$$QAV10@@Z 100340e0 f i ui.obj
 0001:00033150       ??$?6_WU?$char_traits@_W@std@@@std@@YAAAV?$basic_ostream@_WU?$char_traits@_W@std@@@0@AAV10@_W@Z 10034150 f i ui.obj
 0001:000333c0       ??$insert@V?$_List_const_iterator@V?$_List_val@U?$_List_simple_types@V?$basic_string@_WU?$char_traits@_W@std@@V?$allocator@_W@2@@std@@@std@@@std@@@std@@@?$_Tree@V?$_Tset_traits@V?$basic_string@_WU?$char_traits@_W@std@@V?$allocator@_W@2@@std@@UItemCompare@?1??show@MultiSelectDialog@@QAE_NXZ@V?$allocator@V?$basic_string@_WU?$char_traits@_W@std@@V?$allocator@_W@2@@std@@@2@$0A@@std@@@std@@QAEXV?$_List_const_iterator@V?$_List_val@U?$_List_simple_types@V?$basic_string@_WU?$char_traits@_W@std@@V?$allocator@_W@2@@std@@@std@@@std@@@1@0@Z 100343c0 f i ui.obj
 0001:000334c0       ??$for_each@V?$_List_const_iterator@V?$_List_val@U?$_List_simple_types@V?$basic_string@_WU?$char_traits@_W@std@@V?$allocator@_W@2@@std@@@std@@@std@@@std@@V<lambda_1>@?6??get_masks@FormatLibraryInfoDialog@@AAE?AV?$basic_string@_WU?$char_traits@_W@std@@V?$allocator@_W@2@@2@I@Z@@std@@YA?AV<lambda_1>@?6??get_masks@FormatLibraryInfoDialog@@AAE?AV?$basic_string@_WU?$char_traits@_W@std@@V?$allocator@_W@2@@0@I@Z@V?$_List_const_iterator@V?$_List_val@U?$_List_simple_types@V?$basic_string@_WU?$char_traits@_W@std@@V?$allocator@_W@2@@std@@@std@@@std@@@0@0V1?6??23@AAE?AV40@I@Z@@Z 100344c0 f i ui.obj
 0001:000334c0       ??$for_each@V?$_List_const_iterator@V?$_List_val@U?$_List_simple_types@V?$basic_string@_WU?$char_traits@_W@std@@V?$allocator@_W@2@@std@@@std@@@std@@@std@@V<lambda_1>@?1???R3?1??generate_masks@SettingsDialog@@AAEXXZ@QBE@ABU?$pair@$$CBV?$vector@EV?$allocator@E@std@@@std@@UArcFormat@@@2@@Z@@std@@YA?AV<lambda_1>@?1???R1?1??generate_masks@SettingsDialog@@AAEXXZ@QBE@ABU?$pair@$$CBV?$vector@EV?$allocator@E@std@@@std@@UArcFormat@@@0@@Z@V?$_List_const_iterator@V?$_List_val@U?$_List_simple_types@V?$basic_string@_WU?$char_traits@_W@std@@V?$allocator@_W@2@@std@@@std@@@std@@@0@1V1?1???R1?1??23@AAEXXZ@QBE@0@Z@@Z 100344c0 f i ui.obj
 0001:00033630       ??$_Find_lower_bound@V?$basic_string@_WU?$char_traits@_W@std@@V?$allocator@_W@2@@std@@@?$_Tree@V?$_Tset_traits@V?$basic_string@_WU?$char_traits@_W@std@@V?$allocator@_W@2@@std@@UItemCompare@?1??show@MultiSelectDialog@@QAE_NXZ@V?$allocator@V?$basic_string@_WU?$char_traits@_W@std@@V?$allocator@_W@2@@std@@@2@$0A@@std@@@std@@IBE?AU?$_Tree_find_result@PAU?$_Tree_node@V?$basic_string@_WU?$char_traits@_W@std@@V?$allocator@_W@2@@std@@PAX@std@@@1@ABV?$basic_string@_WU?$char_traits@_W@std@@V?$allocator@_W@2@@1@@Z 10034630 f i ui.obj
 0001:000338b0       ??$_Emplace_reallocate@ABUFarListItem@@@?$vector@UFarListItem@@V?$allocator@UFarListItem@@@std@@@std@@QAEPAUFarListItem@@QAU2@ABU2@@Z 100348b0 f i ui.obj
 0001:00033a60       ??$use_facet@V?$num_put@_WV?$ostreambuf_iterator@_WU?$char_traits@_W@std@@@std@@@std@@@std@@YAABV?$num_put@_WV?$ostreambuf_iterator@_WU?$char_traits@_W@std@@@std@@@0@ABVlocale@0@@Z 10034a60 f i ui.obj
 0001:00033bb0       ??$_Traits_find_last_of@U?$char_traits@_W@std@@@std@@YAIQB_WII0IU?$integral_constant@_N$00@0@@Z 10034bb0 f i ui.obj
 0001:00033d10       ??$_Traits_find_ch@U?$char_traits@_W@std@@@std@@YAIQB_WII_W@Z 10034d10 f i ui.obj
 0001:00033d60       ??$use_facet@V?$numpunct@_W@std@@@std@@YAABV?$numpunct@_W@0@ABVlocale@0@@Z 10034d60 f i ui.obj
 0001:00034010       ??$use_facet@V?$ctype@_W@std@@@std@@YAABV?$ctype@_W@0@ABVlocale@0@@Z 10035010 f i ui.obj
 0001:000341b0       ??4UpdateProfile@@QAEAAU0@$$QAU0@@Z 100351b0 f i ui.obj
 0001:00034280       ??1UpdateProfile@@QAE@XZ   10035280 f i ui.obj
 0001:000342e0       ??4SfxOptions@@QAEAAU0@$$QAU0@@Z 100352e0 f i ui.obj
 0001:000343e0       ??4?$vector@EV?$allocator@E@std@@@std@@QAEAAV01@$$QAV01@@Z 100353e0 f i ui.obj
 0001:00034460       ?_Buy_raw@?$vector@IV?$allocator@I@std@@@std@@AAEXI@Z 10035460 f i ui.obj
 0001:000344f0       ??1?$_Tidy_guard@V?$numpunct@_W@std@@@std@@QAE@XZ 100354f0 f i ui.obj
 0001:00034520       ??$_Insert_string@_WU?$char_traits@_W@std@@I@std@@YAAAV?$basic_ostream@_WU?$char_traits@_W@std@@@0@AAV10@QB_WI@Z 10035520 f i ui.obj
 0001:00034740       ??$_Sort_unchecked@PAV?$vector@EV?$allocator@E@std@@@std@@V<lambda_2>@?4??show@UpdateDialog@@QAE_NXZ@@std@@YAXPAV?$vector@EV?$allocator@E@std@@@0@0HV<lambda_2>@?4??show@UpdateDialog@@QAE_NXZ@@Z 10035740 f i ui.obj
 0001:00034a00       ??$_Assign_range@V?$_List_unchecked_const_iterator@V?$_List_val@U?$_List_simple_types@V?$basic_string@_WU?$char_traits@_W@std@@V?$allocator@_W@2@@std@@@std@@@std@@U_Iterator_base0@2@@std@@@?$vector@V?$basic_string@_WU?$char_traits@_W@std@@V?$allocator@_W@2@@std@@V?$allocator@V?$basic_string@_WU?$char_traits@_W@std@@V?$allocator@_W@2@@std@@@2@@std@@AAEXV?$_List_unchecked_const_iterator@V?$_List_val@U?$_List_simple_types@V?$basic_string@_WU?$char_traits@_W@std@@V?$allocator@_W@2@@std@@@std@@@std@@U_Iterator_base0@2@@1@0Uforward_iterator_tag@1@@Z 10035a00 f i ui.obj
 0001:00034be0       ??$_Sort_unchecked@PAV?$basic_string@_WU?$char_traits@_W@std@@V?$allocator@_W@2@@std@@UItemCompare@?1??show@MultiSelectDialog@@QAE_NXZ@@std@@YAXPAV?$basic_string@_WU?$char_traits@_W@std@@V?$allocator@_W@2@@0@0HUItemCompare@?1??show@MultiSelectDialog@@QAE_NXZ@@Z 10035be0 f i ui.obj
 0001:00034ea0       ??$_Sort_unchecked@PAV?$basic_string@_WU?$char_traits@_W@std@@V?$allocator@_W@2@@std@@V<lambda_2>@?1??get_available_formats@SettingsDialog@@AAE?AV12@XZ@@std@@YAXPAV?$basic_string@_WU?$char_traits@_W@std@@V?$allocator@_W@2@@0@0HV<lambda_2>@?1??get_available_formats@SettingsDialog@@AAE?AV10@XZ@@Z 10035ea0 f i ui.obj
 0001:00035160       ??$_Find_lower_bound@H@?$_Tree@V?$_Tmap_traits@HIU?$less@H@std@@V?$allocator@U?$pair@$$CBHI@std@@@2@$0A@@std@@@std@@IBE?AU?$_Tree_find_result@PAU?$_Tree_node@U?$pair@$$CBHI@std@@PAX@std@@@1@ABH@Z 10036160 f i ui.obj
 0001:000351b0       ??$_Maklocstr@D@std@@YAPADPBDPADABU_Cvtvec@@@Z 100361b0 f i ui.obj
 0001:00035200       ??1ExternalCodec@@QAE@XZ   10036200 f i ui.obj
 0001:000352a0       ?_Destroy@?$_Ref_count@VFileFilter@Far@@@std@@EAEXXZ 100362a0 f i ui.obj
 0001:00035310       ??1?$_Temporary_owner@VFileFilter@Far@@@std@@QAE@XZ 10036310 f i ui.obj
 0001:00035380       ?sputn@?$basic_streambuf@_WU?$char_traits@_W@std@@@std@@QAE_JPB_W_J@Z 10036380 f i ui.obj
 0001:000353a0       ??$_Partition_by_median_guess_unchecked@PAV?$vector@EV?$allocator@E@std@@@std@@V<lambda_2>@?4??show@UpdateDialog@@QAE_NXZ@@std@@YA?AU?$pair@PAV?$vector@EV?$allocator@E@std@@@std@@PAV12@@0@PAV?$vector@EV?$allocator@E@std@@@0@0V<lambda_2>@?4??show@UpdateDialog@@QAE_NXZ@@Z 100363a0 f i ui.obj
 0001:00035c30       ??$?RV?$vector@EV?$allocator@E@std@@@std@@V01@@<lambda_2>@?4??show@UpdateDialog@@QAE_NXZ@QBE_NABV?$vector@EV?$allocator@E@std@@@std@@0@Z 10036c30 f i ui.obj
 0001:00035ce0       ??$_Insertion_sort_unchecked@PAV?$vector@EV?$allocator@E@std@@@std@@V<lambda_2>@?4??show@UpdateDialog@@QAE_NXZ@@std@@YAPAV?$vector@EV?$allocator@E@std@@@0@PAV10@QAV10@V<lambda_2>@?4??show@UpdateDialog@@QAE_NXZ@@Z 10036ce0 f i ui.obj
 0001:000360d0       ??$_Find_hint@V?$basic_string@_WU?$char_traits@_W@std@@V?$allocator@_W@2@@std@@@?$_Tree@V?$_Tset_traits@V?$basic_string@_WU?$char_traits@_W@std@@V?$allocator@_W@2@@std@@UItemCompare@?1??show@MultiSelectDialog@@QAE_NXZ@V?$allocator@V?$basic_string@_WU?$char_traits@_W@std@@V?$allocator@_W@2@@std@@@2@$0A@@std@@@std@@IBE?AU?$_Tree_find_hint_result@PAU?$_Tree_node@V?$basic_string@_WU?$char_traits@_W@std@@V?$allocator@_W@2@@std@@PAX@std@@@1@QAU?$_Tree_node@V?$basic_string@_WU?$char_traits@_W@std@@V?$allocator@_W@2@@std@@PAX@1@ABV?$basic_string@_WU?$char_traits@_W@std@@V?$allocator@_W@2@@1@@Z 100370d0 f i ui.obj
 0001:00036290       ??$_Copy_unchecked@V?$_List_unchecked_const_iterator@V?$_List_val@U?$_List_simple_types@V?$basic_string@_WU?$char_traits@_W@std@@V?$allocator@_W@2@@std@@@std@@@std@@U_Iterator_base0@2@@std@@PAV?$basic_string@_WU?$char_traits@_W@std@@V?$allocator@_W@2@@2@@std@@YAPAV?$basic_string@_WU?$char_traits@_W@std@@V?$allocator@_W@2@@0@V?$_List_unchecked_const_iterator@V?$_List_val@U?$_List_simple_types@V?$basic_string@_WU?$char_traits@_W@std@@V?$allocator@_W@2@@std@@@std@@@std@@U_Iterator_base0@2@@0@0PAV10@@Z 10037290 f i ui.obj
 0001:000362e0       ??$_Partition_by_median_guess_unchecked@PAV?$basic_string@_WU?$char_traits@_W@std@@V?$allocator@_W@2@@std@@UItemCompare@?1??show@MultiSelectDialog@@QAE_NXZ@@std@@YA?AU?$pair@PAV?$basic_string@_WU?$char_traits@_W@std@@V?$allocator@_W@2@@std@@PAV12@@0@PAV?$basic_string@_WU?$char_traits@_W@std@@V?$allocator@_W@2@@0@0UItemCompare@?1??show@MultiSelectDialog@@QAE_NXZ@@Z 100372e0 f i ui.obj
 0001:00037750       ??$_Insertion_sort_unchecked@PAV?$basic_string@_WU?$char_traits@_W@std@@V?$allocator@_W@2@@std@@UItemCompare@?1??show@MultiSelectDialog@@QAE_NXZ@@std@@YAPAV?$basic_string@_WU?$char_traits@_W@std@@V?$allocator@_W@2@@0@PAV10@QAV10@UItemCompare@?1??show@MultiSelectDialog@@QAE_NXZ@@Z 10038750 f i ui.obj
 0001:00037750       ??$_Insertion_sort_unchecked@PAV?$basic_string@_WU?$char_traits@_W@std@@V?$allocator@_W@2@@std@@V<lambda_2>@?1??get_available_formats@SettingsDialog@@AAE?AV12@XZ@@std@@YAPAV?$basic_string@_WU?$char_traits@_W@std@@V?$allocator@_W@2@@0@PAV10@QAV10@V<lambda_2>@?1??get_available_formats@SettingsDialog@@AAE?AV10@XZ@@Z 10038750 f i ui.obj
 0001:00037d80       ??$_Partition_by_median_guess_unchecked@PAV?$basic_string@_WU?$char_traits@_W@std@@V?$allocator@_W@2@@std@@V<lambda_2>@?1??get_available_formats@SettingsDialog@@AAE?AV12@XZ@@std@@YA?AU?$pair@PAV?$basic_string@_WU?$char_traits@_W@std@@V?$allocator@_W@2@@std@@PAV12@@0@PAV?$basic_string@_WU?$char_traits@_W@std@@V?$allocator@_W@2@@0@0V<lambda_2>@?1??get_available_formats@SettingsDialog@@AAE?AV20@XZ@@Z 10038d80 f i ui.obj
 0001:000391f0       ??$_Pop_heap_hole_by_index@PAV?$vector@EV?$allocator@E@std@@@std@@V12@V<lambda_2>@?4??show@UpdateDialog@@QAE_NXZ@@std@@YAXPAV?$vector@EV?$allocator@E@std@@@0@HH$$QAV10@V<lambda_2>@?4??show@UpdateDialog@@QAE_NXZ@@Z 1003a1f0 f i ui.obj
 0001:000393e0       ??$_Pop_heap_hole_by_index@PAV?$basic_string@_WU?$char_traits@_W@std@@V?$allocator@_W@2@@std@@V12@V<lambda_2>@?1??get_available_formats@SettingsDialog@@AAE?AV12@XZ@@std@@YAXPAV?$basic_string@_WU?$char_traits@_W@std@@V?$allocator@_W@2@@0@HH$$QAV10@V<lambda_2>@?1??get_available_formats@SettingsDialog@@AAE?AV10@XZ@@Z 1003a3e0 f i ui.obj
 0001:000393e0       ??$_Pop_heap_hole_by_index@PAV?$basic_string@_WU?$char_traits@_W@std@@V?$allocator@_W@2@@std@@V12@UItemCompare@?1??show@MultiSelectDialog@@QAE_NXZ@@std@@YAXPAV?$basic_string@_WU?$char_traits@_W@std@@V?$allocator@_W@2@@0@HH$$QAV10@UItemCompare@?1??show@MultiSelectDialog@@QAE_NXZ@@Z 1003a3e0 f i ui.obj
 0001:00039730       ??$_Move_backward_unchecked@PAV?$basic_string@_WU?$char_traits@_W@std@@V?$allocator@_W@2@@std@@PAV12@@std@@YAPAV?$basic_string@_WU?$char_traits@_W@std@@V?$allocator@_W@2@@0@PAV10@00@Z 1003a730 f i ui.obj
 0001:000397e0       ??$_Med3_unchecked@PAV?$vector@EV?$allocator@E@std@@@std@@V<lambda_2>@?4??show@UpdateDialog@@QAE_NXZ@@std@@YAXPAV?$vector@EV?$allocator@E@std@@@0@00V<lambda_2>@?4??show@UpdateDialog@@QAE_NXZ@@Z 1003a7e0 f i ui.obj
 0001:00039890       ??$_Push_heap_by_index@PAV?$vector@EV?$allocator@E@std@@@std@@V12@V<lambda_2>@?4??show@UpdateDialog@@QAE_NXZ@@std@@YAXPAV?$vector@EV?$allocator@E@std@@@0@HH$$QAV10@V<lambda_2>@?4??show@UpdateDialog@@QAE_NXZ@@Z 1003a890 f i ui.obj
 0001:00039a10       ??$_Med3_unchecked@PAV?$basic_string@_WU?$char_traits@_W@std@@V?$allocator@_W@2@@std@@V<lambda_2>@?1??get_available_formats@SettingsDialog@@AAE?AV12@XZ@@std@@YAXPAV?$basic_string@_WU?$char_traits@_W@std@@V?$allocator@_W@2@@0@00V<lambda_2>@?1??get_available_formats@SettingsDialog@@AAE?AV10@XZ@@Z 1003aa10 f i ui.obj
 0001:00039a10       ??$_Med3_unchecked@PAV?$basic_string@_WU?$char_traits@_W@std@@V?$allocator@_W@2@@std@@UItemCompare@?1??show@MultiSelectDialog@@QAE_NXZ@@std@@YAXPAV?$basic_string@_WU?$char_traits@_W@std@@V?$allocator@_W@2@@0@00UItemCompare@?1??show@MultiSelectDialog@@QAE_NXZ@@Z 1003aa10 f i ui.obj
 0001:00039bb0       ??$_Push_heap_by_index@PAV?$basic_string@_WU?$char_traits@_W@std@@V?$allocator@_W@2@@std@@V12@V<lambda_2>@?1??get_available_formats@SettingsDialog@@AAE?AV12@XZ@@std@@YAXPAV?$basic_string@_WU?$char_traits@_W@std@@V?$allocator@_W@2@@0@HH$$QAV10@V<lambda_2>@?1??get_available_formats@SettingsDialog@@AAE?AV10@XZ@@Z 1003abb0 f i ui.obj
 0001:00039bb0       ??$_Push_heap_by_index@PAV?$basic_string@_WU?$char_traits@_W@std@@V?$allocator@_W@2@@std@@V12@UItemCompare@?1??show@MultiSelectDialog@@QAE_NXZ@@std@@YAXPAV?$basic_string@_WU?$char_traits@_W@std@@V?$allocator@_W@2@@0@HH$$QAV10@UItemCompare@?1??show@MultiSelectDialog@@QAE_NXZ@@Z 1003abb0 f i ui.obj
 0001:00039dd9       ??_E?$basic_ostringstream@_WU?$char_traits@_W@std@@V?$allocator@_W@2@@std@@$4PPPPPPPM@A@AEPAXI@Z 1003add9 f i ui.obj
 0001:00039de1       ??_E?$basic_ostream@_WU?$char_traits@_W@std@@@std@@$4PPPPPPPM@A@AEPAXI@Z 1003ade1 f i ui.obj
 0001:00039df0       ??$_Maklocstr@_W@std@@YAPA_WPBDPA_WABU_Cvtvec@@@Z 1003adf0 f i ui.obj
 0001:00039ec0       ??_E?$ctype@_W@std@@MAEPAXI@Z 1003aec0 f i * CIL library *:* CIL module *
 0001:00039ec0       ??_G?$ctype@_W@std@@MAEPAXI@Z 1003aec0 f i ui.obj
 0001:00039f10       ?do_is@?$ctype@_W@std@@MBEPB_WPB_W0PAF@Z 1003af10 f i ui.obj
 0001:00039f30       ?do_scan_is@?$ctype@_W@std@@MBEPB_WFPB_W0@Z 1003af30 f i ui.obj
 0001:00039f70       ?do_is@?$ctype@_W@std@@MBE_NF_W@Z 1003af70 f i ui.obj
 0001:00039f90       ?do_scan_not@?$ctype@_W@std@@MBEPB_WFPB_W0@Z 1003af90 f i ui.obj
 0001:00039fd0       ?do_tolower@?$ctype@_W@std@@MBEPB_WPA_WPB_W@Z 1003afd0 f i ui.obj
 0001:0003a010       ?do_tolower@?$ctype@_W@std@@MBE_W_W@Z 1003b010 f i ui.obj
 0001:0003a030       ?do_toupper@?$ctype@_W@std@@MBEPB_WPA_WPB_W@Z 1003b030 f i ui.obj
 0001:0003a070       ?do_toupper@?$ctype@_W@std@@MBE_W_W@Z 1003b070 f i ui.obj
 0001:0003a090       ?do_narrow@?$ctype@_W@std@@MBEPB_WPB_W0DPAD@Z 1003b090 f i ui.obj
 0001:0003a120       ?do_narrow@?$ctype@_W@std@@MBED_WD@Z 1003b120 f i ui.obj
 0001:0003a180       ??0_Locinfo@std@@QAE@PBD@Z 1003b180 f i ui.obj
 0001:0003a230       ??1?$_Yarn@_W@std@@QAE@XZ  1003b230 f i ui.obj
 0001:0003a230       ??1?$_Yarn@D@std@@QAE@XZ   1003b230 f i ui.obj
 0001:0003a250       ??1_Locinfo@std@@QAE@XZ    1003b250 f i ui.obj
 0001:0003a320       ??1?$unique_ptr@V_Facet_base@std@@U?$default_delete@V_Facet_base@std@@@2@@std@@QAE@XZ 1003b320 f i ui.obj
 0001:0003a330       ?do_widen@?$ctype@_W@std@@MBE_WD@Z 1003b330 f i ui.obj
 0001:0003a380       ??0exception@std@@QAE@QBD@Z 1003b380 f i ui.obj
 0001:0003a3c0       ??0_System_error@std@@IAE@Verror_code@1@ABV?$basic_string@DU?$char_traits@D@std@@V?$allocator@D@2@@1@@Z 1003b3c0 f i ui.obj
 0001:0003a690       ??0failure@ios_base@std@@QAE@PBDABVerror_code@2@@Z 1003b690 f i ui.obj
 0001:0003a770       ??_G_Iostream_error_category@std@@UAEPAXI@Z 1003b770 f i ui.obj
 0001:0003a770       ??_E_Iostream_error_category@std@@UAEPAXI@Z 1003b770 f i * CIL library *:* CIL module *
 0001:0003a790       ?name@_Iostream_error_category@std@@UBEPBDXZ 1003b790 f i ui.obj
 0001:0003a7a0       ?message@_Iostream_error_category@std@@UBE?AV?$basic_string@DU?$char_traits@D@std@@V?$allocator@D@2@@2@H@Z 1003b7a0 f i ui.obj
 0001:0003a820       ?equivalent@error_category@std@@UBE_NABVerror_code@2@H@Z 1003b820 f i ui.obj
 0001:0003a850       ?default_error_condition@error_category@std@@UBE?AVerror_condition@2@H@Z 1003b850 f i ui.obj
 0001:0003a860       ?equivalent@error_category@std@@UBE_NHABVerror_condition@2@@Z 1003b860 f i ui.obj
 0001:0003a8a0       ??$_Immortalize_impl@V_Iostream_error_category@std@@@std@@YGHPAX0PAPAX@Z 1003b8a0 f i ui.obj
 0001:0003a8c0       ?make_error_code@std@@YA?AVerror_code@1@W4io_errc@1@@Z 1003b8c0 f i ui.obj
 0001:0003a900       ??_Esystem_error@std@@UAEPAXI@Z 1003b900 f i * CIL library *:* CIL module *
 0001:0003a900       ??_Gfailure@ios_base@std@@UAEPAXI@Z 1003b900 f i ui.obj
 0001:0003a900       ??_Gsystem_error@std@@UAEPAXI@Z 1003b900 f i ui.obj
 0001:0003a900       ??_E_System_error@std@@UAEPAXI@Z 1003b900 f i * CIL library *:* CIL module *
 0001:0003a900       ??_Efailure@ios_base@std@@UAEPAXI@Z 1003b900 f i * CIL library *:* CIL module *
 0001:0003a900       ??_G_System_error@std@@UAEPAXI@Z 1003b900 f i ui.obj
 0001:0003a930       ??0failure@ios_base@std@@QAE@ABV012@@Z 1003b930 f i ui.obj
 0001:0003a980       ??0system_error@std@@QAE@ABV01@@Z 1003b980 f i ui.obj
 0001:0003a9d0       ??0_System_error@std@@QAE@ABV01@@Z 1003b9d0 f i ui.obj
 0001:0003aa10       ??0runtime_error@std@@QAE@ABV01@@Z 1003ba10 f i ui.obj
 0001:0003aa40       ?clear@ios_base@std@@QAEXH_N@Z 1003ba40 f i ui.obj
 0001:0003aac0       ?do_widen@?$ctype@_W@std@@MBEPBDPBD0PA_W@Z 1003bac0 f i ui.obj
 0001:0003ab40       ??0?$basic_string@_WU?$char_traits@_W@std@@V?$allocator@_W@2@@std@@QAE@I_W@Z 1003bb40 f i ui.obj
 0001:0003ac00       ??1facet@locale@std@@MAE@XZ 1003bc00 f i ui.obj
 0001:0003ac10       ??$_Reallocate_grow_by@V<lambda_1>@?1??append@?$basic_string@DU?$char_traits@D@std@@V?$allocator@D@2@@std@@QAEAAV34@ID@Z@ID@?$basic_string@DU?$char_traits@D@std@@V?$allocator@D@2@@std@@AAEAAV01@IV<lambda_1>@?1??append@01@QAEAAV01@ID@Z@ID@Z 1003bc10 f i ui.obj
 0001:0003ad70       ?resize@?$basic_string@DU?$char_traits@D@std@@V?$allocator@D@2@@std@@QAEXID@Z 1003bd70 f i ui.obj
 0001:0003ade0       ___local_stdio_printf_options 1003bde0 f i ui.obj
 0001:0003adf0       __vsprintf_s_l             1003bdf0 f i ui.obj
 0001:0003ae30       _sprintf_s                 1003be30 f i ui.obj
 0001:0003ae50       ??_Gios_base@std@@UAEPAXI@Z 1003be50 f i ui.obj
 0001:0003ae50       ??_Eios_base@std@@UAEPAXI@Z 1003be50 f i * CIL library *:* CIL module *
 0001:0003aeb0       ?_Incref@facet@locale@std@@UAEXXZ 1003beb0 f i ui.obj
 0001:0003aec0       ?_Decref@facet@locale@std@@UAEPAV_Facet_base@3@XZ 1003bec0 f i ui.obj
 0001:0003aee0       ??_E_Facet_base@std@@UAEPAXI@Z 1003bee0 f i * CIL library *:* CIL module *
 0001:0003aee0       ??_G_Facet_base@std@@UAEPAXI@Z 1003bee0 f i ui.obj
 0001:0003af10       ??1locale@std@@QAE@XZ      1003bf10 f i ui.obj
 0001:0003af30       ??1DisableSleepMode@@QAE@XZ 1003bf30 f i extract.obj
 0001:0003af40       ??1BStr@@QAE@XZ            1003bf40 f i extract.obj
 0001:0003af60       ??0ExtractOptions@@QAE@XZ  1003bf60 f   extract.obj
 0001:0003afb0       ?do_update_ui@ExtractProgress@@EAEXXZ 1003bfb0 f i extract.obj
 0001:0003bb60       ??_GExtractProgress@@UAEPAXI@Z 1003cb60 f i extract.obj
 0001:0003bb60       ??_EExtractProgress@@UAEPAXI@Z 1003cb60 f i * CIL library *:* CIL module *
 0001:0003bca0       ?create_file@FileWriteCache@@AAEXXZ 1003cca0 f i extract.obj
 0001:0003bf60       ?allocate_file@FileWriteCache@@AAEXXZ 1003cf60 f i extract.obj
 0001:0003c080       ?write_file@FileWriteCache@@AAEXXZ 1003d080 f i extract.obj
 0001:0003c240       ?close_file@FileWriteCache@@AAEXXZ 1003d240 f i extract.obj
 0001:0003c370       ?write@FileWriteCache@@AAEXXZ 1003d370 f i extract.obj
 0001:0003c430       ??R<lambda_1>@?1??write@FileWriteCache@@AAEXXZ@QBEXABUCacheRecord@2@@Z 1003d430 f i extract.obj
 0001:0003c4f0       ?store@FileWriteCache@@AAEXPBEI@Z 1003d4f0 f i extract.obj
 0001:0003c640       ??0FileWriteCache@@QAE@V?$shared_ptr@VArchive@@@std@@V?$shared_ptr@_N@2@V?$shared_ptr@V?$list@UError@@V?$allocator@UError@@@std@@@std@@@2@V?$shared_ptr@VExtractProgress@@@2@@Z 1003d640 f i extract.obj
 0001:0003c950       ??1FileWriteCache@@QAE@XZ  1003d950 f i extract.obj
 0001:0003cb40       ?store_data@FileWriteCache@@QAEXPBEI@Z 1003db40 f i extract.obj
 0001:0003ccf0       ?QueryInterface@CachedFileExtractStream@@UAGJABU_GUID@@PAPAX@Z 1003dcf0 f i extract.obj
 0001:0003cdb0       ?AddRef@ArchiveSubStream@@UAGKXZ 1003ddb0 f i open.obj
 0001:0003cdb0       ?AddRef@ArchiveOpenStream@@UAGKXZ 1003ddb0 f i open.obj
 0001:0003cdb0       ?AddRef@ArchiveFileDeleter@@UAGKXZ 1003ddb0 f i delete.obj
 0001:0003cdb0       ?AddRef@CachedFileExtractStream@@UAGKXZ 1003ddb0 f i extract.obj
 0001:0003cdb0       ?AddRef@ArchiveFileDeleterStream@@UAGKXZ 1003ddb0 f i delete.obj
 0001:0003cdc0       ?Release@CachedFileExtractStream@@UAGKXZ 1003ddc0 f i extract.obj
 0001:0003cdc0       ?Release@ArchiveOpenStream@@UAGKXZ 1003ddc0 f i open.obj
 0001:0003cdc0       ?Release@ArchiveSubStream@@UAGKXZ 1003ddc0 f i open.obj
 0001:0003cdc0       ?Release@ArchiveFileDeleterStream@@UAGKXZ 1003ddc0 f i delete.obj
 0001:0003cdc0       ?Release@ArchiveFileDeleter@@UAGKXZ 1003ddc0 f i delete.obj
 0001:0003cde0       ?Write@CachedFileExtractStream@@UAGJPBXIPAI@Z 1003dde0 f i extract.obj
 0001:0003cec0       ??_GCachedFileExtractStream@@UAEPAXI@Z 1003dec0 f i extract.obj
 0001:0003cec0       ??_ECachedFileExtractStream@@UAEPAXI@Z 1003dec0 f i * CIL library *:* CIL module *
 0001:0003cf20       ??4Error@@QAEAAU0@ABU0@@Z  1003df20 f i extract.obj
 0001:0003cf70       ??4Error@@QAEAAU0@$$QAU0@@Z 1003df70 f i extract.obj
 0001:0003d040       ??0ArchiveExtractor@@QAE@IABV?$basic_string@_WU?$char_traits@_W@std@@V?$allocator@_W@2@@std@@V?$shared_ptr@VArchive@@@2@V?$shared_ptr@W4OverwriteAction@@@2@V?$shared_ptr@_N@2@V?$shared_ptr@V?$list@UError@@V?$allocator@UError@@@std@@@std@@@2@V?$shared_ptr@VFileWriteCache@@@2@V?$shared_ptr@VExtractProgress@@@2@V?$shared_ptr@V?$set@IU?$less@I@std@@V?$allocator@I@2@@std@@@2@@Z 1003e040 f i extract.obj
 0001:0003d3c0       ?QueryInterface@ArchiveTester@@UAGJABU_GUID@@PAPAX@Z 1003e3c0 f i test.obj
 0001:0003d3c0       ?QueryInterface@ArchiveExtractor@@UAGJABU_GUID@@PAPAX@Z 1003e3c0 f i extract.obj
 0001:0003d4c0       ?SetTotal@ArchiveExtractor@@UAGJ_K@Z 1003e4c0 f i extract.obj
 0001:0003d5b0       ?SetCompleted@ArchiveExtractor@@UAGJPB_K@Z 1003e5b0 f i extract.obj
 0001:0003d750       ?GetStream@ArchiveExtractor@@UAGJIPAPAUISequentialOutStream@@H@Z 1003e750 f i extract.obj
 0001:0003dfb0       ?PrepareOperation@ArchiveExtractor@@UAGJH@Z 1003efb0 f i extract.obj
 0001:0003e030       ?SetOperationResult@ArchiveExtractor@@UAGJH@Z 1003f030 f i extract.obj
 0001:0003e350       ?CryptoGetTextPassword@ArchiveExtractor@@UAGJPAPA_W@Z 1003f350 f i extract.obj
 0001:0003e550       ??_GArchiveExtractor@@UAEPAXI@Z 1003f550 f i extract.obj
 0001:0003e550       ??_EArchiveExtractor@@UAEPAXI@Z 1003f550 f i * CIL library *:* CIL module *
 0001:0003e580       ??1ArchiveExtractor@@UAE@XZ 1003f580 f i extract.obj
 0001:0003e830       ?prepare_dst_dir@Archive@@AAEXABV?$basic_string@_WU?$char_traits@_W@std@@V?$allocator@_W@2@@std@@@Z 1003f830 f   extract.obj
 0001:0003e8e0       ?do_update_ui@PrepareExtract@@EAEXXZ 1003f8e0 f i extract.obj
 0001:0003eb10       ?prepare_extract@PrepareExtract@@AAEXABU?$pair@V?$_Vector_const_iterator@V?$_Vector_val@U?$_Simple_types@I@std@@@std@@@std@@V12@@std@@ABV?$basic_string@_WU?$char_traits@_W@std@@V?$allocator@_W@2@@3@@Z 1003fb10 f i extract.obj
 0001:0003eb60       ??R<lambda_1>@?1??prepare_extract@PrepareExtract@@AAEXABU?$pair@V?$_Vector_const_iterator@V?$_Vector_val@U?$_Simple_types@I@std@@@std@@@std@@V12@@std@@ABV?$basic_string@_WU?$char_traits@_W@std@@V?$allocator@_W@2@@4@@Z@QBEXI@Z 1003fb60 f i extract.obj
 0001:0003ee50       ??_EPrepareExtract@@UAEPAXI@Z 1003fe50 f i * CIL library *:* CIL module *
 0001:0003ee50       ??_GPrepareExtract@@UAEPAXI@Z 1003fe50 f i extract.obj
 0001:0003ee80       ?do_update_ui@SetDirAttr@@EAEXXZ 1003fe80 f i extract.obj
 0001:0003f0b0       ?set_dir_attr@SetDirAttr@@AAEXABU?$pair@V?$_Vector_const_iterator@V?$_Vector_val@U?$_Simple_types@I@std@@@std@@@std@@V12@@std@@ABV?$basic_string@_WU?$char_traits@_W@std@@V?$allocator@_W@2@@3@@Z 100400b0 f i extract.obj
 0001:0003f100       ??R<lambda_1>@?1??set_dir_attr@SetDirAttr@@AAEXABU?$pair@V?$_Vector_const_iterator@V?$_Vector_val@U?$_Simple_types@I@std@@@std@@@std@@V12@@std@@ABV?$basic_string@_WU?$char_traits@_W@std@@V?$allocator@_W@2@@4@@Z@QBEXI@Z 10040100 f i extract.obj
 0001:0003f4c0       ??_EArchiveFileDeleterProgress@@UAEPAXI@Z 100404c0 f i * CIL library *:* CIL module *
 0001:0003f4c0       ??_EDeleteSrcFiles@@UAEPAXI@Z 100404c0 f i * CIL library *:* CIL module *
 0001:0003f4c0       ??_GSetDirAttr@@UAEPAXI@Z  100404c0 f i extract.obj
 0001:0003f4c0       ??_GArchiveFileDeleterProgress@@UAEPAXI@Z 100404c0 f i delete.obj
 0001:0003f4c0       ??_ESetDirAttr@@UAEPAXI@Z  100404c0 f i * CIL library *:* CIL module *
 0001:0003f4c0       ??_GDeleteSrcFiles@@UAEPAXI@Z 100404c0 f i update.obj
 0001:0003f4f0       ?extract@Archive@@QAEXIABV?$vector@IV?$allocator@I@std@@@std@@ABUExtractOptions@@V?$shared_ptr@V?$list@UError@@V?$allocator@UError@@@std@@@std@@@3@PAV23@@Z 100404f0 f   extract.obj
 0001:00040220       ?delete_archive@Archive@@QAEXXZ 10041220 f   extract.obj
 0001:000404c0       ?push_back@?$list@IV?$allocator@I@std@@@std@@QAEXABI@Z 100414c0 f i extract.obj
 0001:00040550       ??1?$list@GV?$allocator@G@std@@@std@@QAE@XZ 10041550 f i rsrc.obj
 0001:00040550       ??1?$list@IV?$allocator@I@std@@@std@@QAE@XZ 10041550 f i extract.obj
 0001:00040590       ?assign@?$list@UCacheRecord@FileWriteCache@@V?$allocator@UCacheRecord@FileWriteCache@@@std@@@std@@QAEXIABUCacheRecord@FileWriteCache@@@Z 10041590 f i extract.obj
 0001:00040780       ??1?$list@UCacheRecord@FileWriteCache@@V?$allocator@UCacheRecord@FileWriteCache@@@std@@@std@@QAE@XZ 10041780 f i extract.obj
 0001:00040810       ?shared_from_this@?$enable_shared_from_this@VArchive@@@std@@QAE?AV?$shared_ptr@VArchive@@@2@XZ 10041810 f i extract.obj
 0001:00040870       ??0?$vector@IV?$allocator@I@std@@@std@@QAE@ABV01@@Z 10041870 f i extract.obj
 0001:000408d0       ?push_back@?$list@V?$basic_string@_WU?$char_traits@_W@std@@V?$allocator@_W@2@@std@@V?$allocator@V?$basic_string@_WU?$char_traits@_W@std@@V?$allocator@_W@2@@std@@@2@@std@@QAEXABV?$basic_string@_WU?$char_traits@_W@std@@V?$allocator@_W@2@@2@@Z 100418d0 f i extract.obj
 0001:000408e0       ??1?$_List_node_insert_op@V?$allocator@U?$_List_node@UCacheRecord@FileWriteCache@@PAX@std@@@std@@@std@@QAE@XZ 100418e0 f i extract.obj
 0001:00040960       ??1?$_Tree@V?$_Tset_traits@IU?$less@I@std@@V?$allocator@I@2@$0A@@std@@@std@@QAE@XZ 10041960 f i extract.obj
 0001:000409a0       ??$?6_WU?$char_traits@_W@std@@@std@@YAAAV?$basic_ostream@_WU?$char_traits@_W@std@@@0@AAV10@PB_W@Z 100419a0 f i extract.obj
 0001:00040c00       ??$?6_WU?$char_traits@_W@std@@_J@std@@YAAAV?$basic_ostream@_WU?$char_traits@_W@std@@@0@AAV10@ABU?$_Smanip@_J@0@@Z 10041c00 f i extract.obj
 0001:00040c30       ??$insert@$0A@$0A@@?$_Tree@V?$_Tset_traits@IU?$less@I@std@@V?$allocator@I@2@$0A@@std@@@std@@QAE?AU?$pair@V?$_Tree_const_iterator@V?$_Tree_val@U?$_Tree_simple_types@I@std@@@std@@@std@@_N@1@ABI@Z 10041c30 f i extract.obj
 0001:00040d20       ??$copy@V?$_List_iterator@V?$_List_val@U?$_List_simple_types@I@std@@@std@@@std@@V?$back_insert_iterator@V?$vector@IV?$allocator@I@std@@@std@@@2@@std@@YA?AV?$back_insert_iterator@V?$vector@IV?$allocator@I@std@@@std@@@0@V?$_List_iterator@V?$_List_val@U?$_List_simple_types@I@std@@@std@@@0@0V10@@Z 10041d20 f i extract.obj
 0001:00040df0       ?_Destroy@?$_Ref_count@VFileWriteCache@@@std@@EAEXXZ 10041df0 f i extract.obj
 0001:00040e10       ??1?$_Temporary_owner@VFileWriteCache@@@std@@QAE@XZ 10041e10 f i extract.obj
 0001:00040e30       ?_Destroy@?$_Ref_count@VExtractProgress@@@std@@EAEXXZ 10041e30 f i extract.obj
 0001:00040e30       ?_Destroy@?$_Ref_count@VArchiveUpdateProgress@@@std@@EAEXXZ 10041e30 f i update.obj
 0001:00040e30       ?_Destroy@?$_Ref_count@VArchiveFileDeleterProgress@@@std@@EAEXXZ 10041e30 f i delete.obj
 0001:00040e40       ??1?$_Temporary_owner@VArchiveFileDeleterProgress@@@std@@QAE@XZ 10041e40 f i delete.obj
 0001:00040e40       ??1?$_Temporary_owner@VExtractProgress@@@std@@QAE@XZ 10041e40 f i extract.obj
 0001:00040e40       ??1?$_Temporary_owner@VArchiveUpdateProgress@@@std@@QAE@XZ 10041e40 f i update.obj
 0001:00040e50       ?_Destroy@?$_Ref_count@W4OverwriteAction@@@std@@EAEXXZ 10041e50 f i extract.obj
 0001:00040e60       ??1?$_Temporary_owner@W4OverwriteAction@@@std@@QAE@XZ 10041e60 f i extract.obj
 0001:00040e70       ?_Destroy@?$_Ref_count@_N@std@@EAEXXZ 10041e70 f i extract.obj
 0001:00040e80       ??1?$_Temporary_owner@_N@std@@QAE@XZ 10041e80 f i extract.obj
 0001:00040e90       ??1?$_Alloc_construct_ptr@V?$allocator@U?$_List_node@GPAX@std@@@std@@@std@@QAE@XZ 10041e90 f i rsrc.obj
 0001:00040e90       ??1?$_Alloc_construct_ptr@V?$allocator@U?$_List_node@IPAX@std@@@std@@@std@@QAE@XZ 10041e90 f i extract.obj
 0001:00040eb0       ??$_Erase_tree@V?$allocator@U?$_Tree_node@IPAX@std@@@std@@@?$_Tree_val@U?$_Tree_simple_types@I@std@@@std@@QAEXAAV?$allocator@U?$_Tree_node@IPAX@std@@@1@PAU?$_Tree_node@IPAX@1@@Z 10041eb0 f i extract.obj
 0001:00040ef0       ?_Destroy@?$_Ref_count@V?$set@IU?$less@I@std@@V?$allocator@I@2@@std@@@std@@EAEXXZ 10041ef0 f i extract.obj
 0001:00040f10       ??1?$_Temporary_owner@V?$set@IU?$less@I@std@@V?$allocator@I@2@@std@@@std@@QAE@XZ 10041f10 f i extract.obj
 0001:00040f30       ??$_Sort_unchecked@PAIU?$less@X@std@@@std@@YAXPAI0HU?$less@X@0@@Z 10041f30 f i extract.obj
 0001:000410d0       ??$_Partition_by_median_guess_unchecked@PAIU?$less@X@std@@@std@@YA?AU?$pair@PAIPAI@0@PAI0U?$less@X@0@@Z 100420d0 f i extract.obj
 0001:00041240       ??$_Guess_median_unchecked@PAIU?$less@X@std@@@std@@YAXPAI00U?$less@X@0@@Z 10042240 f i extract.obj
 0001:00041350       ??$_Pop_heap_hole_by_index@PAIIU?$less@X@std@@@std@@YAXPAIHH$$QAIU?$less@X@0@@Z 10042350 f i extract.obj
 0001:000413dd       ??_ECachedFileExtractStream@@W3AEPAXI@Z 100423dd f i extract.obj
 0001:000413e5       ?QueryInterface@ArchiveExtractor@@W3AGJABU_GUID@@PAPAX@Z 100423e5 f i extract.obj
 0001:000413e5       ?QueryInterface@ArchiveTester@@W3AGJABU_GUID@@PAPAX@Z 100423e5 f i test.obj
 0001:000413ef       ??_EArchiveExtractor@@W7AEPAXI@Z 100423ef f i extract.obj
 0001:000413f7       ?QueryInterface@ArchiveExtractor@@W7AGJABU_GUID@@PAPAX@Z 100423f7 f i extract.obj
 0001:000413f7       ?QueryInterface@ArchiveTester@@W7AGJABU_GUID@@PAPAX@Z 100423f7 f i test.obj
 0001:00041401       ?AddRef@ArchiveFileDeleterStream@@W3AGKXZ 10042401 f i delete.obj
 0001:00041401       ?AddRef@CachedFileExtractStream@@W3AGKXZ 10042401 f i extract.obj
 0001:00041401       ?AddRef@ArchiveSubStream@@W3AGKXZ 10042401 f i open.obj
 0001:00041401       ?AddRef@ArchiveOpenStream@@W3AGKXZ 10042401 f i open.obj
 0001:00041401       ?AddRef@ArchiveFileDeleter@@W3AGKXZ 10042401 f i delete.obj
 0001:0004140b       ?QueryInterface@CachedFileExtractStream@@W3AGJABU_GUID@@PAPAX@Z 1004240b f i extract.obj
 0001:00041415       ?Release@CachedFileExtractStream@@W3AGKXZ 10042415 f i extract.obj
 0001:00041415       ?Release@ArchiveFileDeleterStream@@W3AGKXZ 10042415 f i delete.obj
 0001:00041415       ?Release@ArchiveFileDeleter@@W3AGKXZ 10042415 f i delete.obj
 0001:00041415       ?Release@ArchiveSubStream@@W3AGKXZ 10042415 f i open.obj
 0001:00041415       ?Release@ArchiveOpenStream@@W3AGKXZ 10042415 f i open.obj
 0001:00041420       ??0bad_weak_ptr@std@@QAE@XZ 10042420 f i extract.obj
 0001:00041440       ?what@bad_weak_ptr@std@@UBEPBDXZ 10042440 f i extract.obj
 0001:00041450       ??0bad_weak_ptr@std@@QAE@ABV01@@Z 10042450 f i extract.obj
 0001:00041480       ?_Throw_bad_weak_ptr@std@@YAXXZ 10042480 f i extract.obj
 0001:000414a0       ??4PropVariant@@QAEAAV0@PB_W@Z 100424a0 f i open.obj
 0001:00041550       ??4PropVariant@@QAEAAV0@I@Z 10042550 f i open.obj
 0001:000415b0       ??4PropVariant@@QAEAAV0@_K@Z 100425b0 f i open.obj
 0001:00041610       ??4PropVariant@@QAEAAV0@ABU_FILETIME@@@Z 10042610 f i open.obj
 0001:00041670       ??0OpenOptions@@QAE@XZ     10042670 f   open.obj
 0001:00041700       ?QueryInterface@ArchiveSubStream@@UAGJABU_GUID@@PAPAX@Z 10042700 f i open.obj
 0001:000417e0       ?Read@ArchiveSubStream@@UAGJPAXIPAI@Z 100427e0 f i open.obj
 0001:000417f0       ?Seek@ArchiveSubStream@@UAGJ_JIPA_K@Z 100427f0 f i open.obj
 0001:00041860       ??_EArchiveSubStream@@UAEPAXI@Z 10042860 f i * CIL library *:* CIL module *
 0001:00041860       ??_GArchiveSubStream@@UAEPAXI@Z 10042860 f i open.obj
 0001:000418d0       ?check_device_file@ArchiveOpenStream@@AAEXXZ 100428d0 f i open.obj
 0001:00041a90       ??0ArchiveOpenStream@@QAE@ABV?$basic_string@_WU?$char_traits@_W@std@@V?$allocator@_W@2@@std@@@Z 10042a90 f i open.obj
 0001:00041b40       ?QueryInterface@ArchiveOpenStream@@UAGJABU_GUID@@PAPAX@Z 10042b40 f i open.obj
 0001:00041c20       ?Read@ArchiveOpenStream@@UAGJPAXIPAI@Z 10042c20 f i open.obj
 0001:00041e30       ?Seek@ArchiveOpenStream@@UAGJ_JIPA_K@Z 10042e30 f i open.obj
 0001:00041fe0       ?get_info@ArchiveOpenStream@@QAE?AUFindData@@XZ 10042fe0 f i open.obj
 0001:00042120       ??_GArchiveOpenStream@@UAEPAXI@Z 10043120 f i open.obj
 0001:00042120       ??_EArchiveOpenStream@@UAEPAXI@Z 10043120 f i * CIL library *:* CIL module *
 0001:00042150       ?do_update_ui@ArchiveOpener@@EAEXXZ 10043150 f i open.obj
 0001:000426c0       ??0ArchiveOpener@@QAE@V?$shared_ptr@VArchive@@@std@@@Z 100436c0 f i open.obj
 0001:000428d0       ?QueryInterface@ArchiveOpener@@UAGJABU_GUID@@PAPAX@Z 100438d0 f i open.obj
 0001:000429e0       ?AddRef@SfxUpdateStream@@UAGKXZ 100439e0 f i update.obj
 0001:000429e0       ?AddRef@MultiVolumeUpdateStream@@UAGKXZ 100439e0 f i update.obj
 0001:000429e0       ?AddRef@ArchiveOpener@@UAGKXZ 100439e0 f i open.obj
 0001:000429e0       ?AddRef@SimpleUpdateStream@@UAGKXZ 100439e0 f i update.obj
 0001:000429f0       ?Release@ArchiveOpener@@UAGKXZ 100439f0 f i open.obj
 0001:00042a10       ?SetTotal@ArchiveOpener@@UAGJPB_K0@Z 10043a10 f i open.obj
 0001:00042b00       ?SetCompleted@ArchiveOpener@@UAGJPB_K0@Z 10043b00 f i open.obj
 0001:00042bf0       ?GetProperty@ArchiveOpener@@UAGJKPAUtagPROPVARIANT@@@Z 10043bf0 f i open.obj
 0001:00042dc0       ?GetStream@ArchiveOpener@@UAGJPB_WPAPAUIInStream@@@Z 10043dc0 f i open.obj
 0001:000430c0       ?CryptoGetTextPassword@ArchiveOpener@@UAGJPAPA_W@Z 100440c0 f i open.obj
 0001:000432a0       ??_GArchiveOpener@@UAEPAXI@Z 100442a0 f i open.obj
 0001:000432a0       ??_EArchiveOpener@@UAEPAXI@Z 100442a0 f i * CIL library *:* CIL module *
 0001:00043310       ?get_stream@Archive@@QAE_NIPAPAUIInStream@@@Z 10044310 f   open.obj
 0001:00043420       ?copy_prologue@Archive@@QAEJPAUIOutStream@@@Z 10044420 f   open.obj
 0001:00043510       ?open@Archive@@AAE_NPAUIInStream@@ABV?$vector@EV?$allocator@E@std@@@std@@@Z 10044510 f   open.obj
 0001:000439d0       ?detect@Archive@@CA?AV?$list@UArcEntry@@V?$allocator@UArcEntry@@@std@@@std@@PAEI_NABV?$basic_string@_WU?$char_traits@_W@std@@V?$allocator@_W@2@@3@ABV?$list@V?$vector@EV?$allocator@E@std@@@std@@V?$allocator@V?$vector@EV?$allocator@E@std@@@std@@@2@@3@PAUIInStream@@@Z 100449d0 f   open.obj
 0001:00044170       ??1?$set@V?$vector@EV?$allocator@E@std@@@std@@U?$less@V?$vector@EV?$allocator@E@std@@@std@@@2@V?$allocator@V?$vector@EV?$allocator@E@std@@@std@@@2@@std@@QAE@XZ 10045170 f i open.obj
 0001:00044190       ?get_physize@Archive@@AAE_KXZ 10045190 f   open.obj
 0001:00044260       ?open@Archive@@CAXABUOpenOptions@@AAV?$vector@V?$shared_ptr@VArchive@@@std@@V?$allocator@V?$shared_ptr@VArchive@@@std@@@2@@std@@@Z 10045260 f   open.obj
 0001:00044d20       ?open@Archive@@SA?AV?$unique_ptr@V?$vector@V?$shared_ptr@VArchive@@@std@@V?$allocator@V?$shared_ptr@VArchive@@@std@@@2@@std@@U?$default_delete@V?$vector@V?$shared_ptr@VArchive@@@std@@V?$allocator@V?$shared_ptr@VArchive@@@std@@@2@@std@@@2@@std@@ABUOpenOptions@@@Z 10045d20 f   open.obj
 0001:00044de0       ?reopen@Archive@@QAEXXZ    10045de0 f   open.obj
 0001:000450d0       ?close@Archive@@QAEXXZ     100460d0 f   open.obj
 0001:00045130       ??1?$ComObject@UIArchiveOpenCallback@@@@QAE@XZ 10046130 f i open.obj
 0001:000451a0       ??6?$basic_ostream@_WU?$char_traits@_W@std@@@std@@QAEAAV01@_K@Z 100461a0 f i open.obj
 0001:00045310       ?_Reallocate_exactly@?$vector@UStrPos@@V?$allocator@UStrPos@@@std@@@std@@AAEXI@Z 10046310 f i msearch.obj
 0001:00045310       ?_Reallocate_exactly@?$vector@USigData@@V?$allocator@USigData@@@std@@@std@@AAEXI@Z 10046310 f i open.obj
 0001:000453f0       ?_Change_array@?$vector@UStrPos@@V?$allocator@UStrPos@@@std@@@std@@AAEXQAUStrPos@@II@Z 100463f0 f i msearch.obj
 0001:000453f0       ?_Change_array@?$vector@USigData@@V?$allocator@USigData@@@std@@@std@@AAEXQAUSigData@@II@Z 100463f0 f i open.obj
 0001:00045450       ?allocate@?$allocator@USigData@@@std@@QAEPAUSigData@@I@Z 10046450 f i open.obj
 0001:00045450       ?allocate@?$allocator@UStrPos@@@std@@QAEPAUStrPos@@I@Z 10046450 f i msearch.obj
 0001:000454b0       ?deallocate@?$allocator@USigData@@@std@@QAEXQAUSigData@@I@Z 100464b0 f i open.obj
 0001:000454f0       ??$insert@$0A@$0A@@?$_Tree@V?$_Tset_traits@V?$basic_string@_WU?$char_traits@_W@std@@V?$allocator@_W@2@@std@@U?$less@V?$basic_string@_WU?$char_traits@_W@std@@V?$allocator@_W@2@@std@@@2@V?$allocator@V?$basic_string@_WU?$char_traits@_W@std@@V?$allocator@_W@2@@std@@@2@$0A@@std@@@std@@QAE?AU?$pair@V?$_Tree_const_iterator@V?$_Tree_val@U?$_Tree_simple_types@V?$basic_string@_WU?$char_traits@_W@std@@V?$allocator@_W@2@@std@@@std@@@std@@@std@@_N@1@$$QAV?$basic_string@_WU?$char_traits@_W@std@@V?$allocator@_W@2@@1@@Z 100464f0 f i open.obj
 0001:00045650       ??$_Emplace_reallocate@USigData@@@?$vector@USigData@@V?$allocator@USigData@@@std@@@std@@QAEPAUSigData@@QAU2@$$QAU2@@Z 10046650 f i open.obj
 0001:00045650       ??$_Emplace_reallocate@UStrPos@@@?$vector@UStrPos@@V?$allocator@UStrPos@@@std@@@std@@QAEPAUStrPos@@QAU2@$$QAU2@@Z 10046650 f i msearch.obj
 0001:000458f0       ??$insert@$0A@$0A@@?$_Tree@V?$_Tset_traits@V?$vector@EV?$allocator@E@std@@@std@@U?$less@V?$vector@EV?$allocator@E@std@@@std@@@2@V?$allocator@V?$vector@EV?$allocator@E@std@@@std@@@2@$0A@@std@@@std@@QAE?AU?$pair@V?$_Tree_const_iterator@V?$_Tree_val@U?$_Tree_simple_types@V?$vector@EV?$allocator@E@std@@@std@@@std@@@std@@@std@@_N@1@ABV?$vector@EV?$allocator@E@std@@@1@@Z 100468f0 f i open.obj
 0001:00045e20       ??$_Move_unchecked@PAV?$shared_ptr@VArchive@@@std@@PAV12@@std@@YAPAV?$shared_ptr@VArchive@@@0@PAV10@00@Z 10046e20 f i open.obj
 0001:00045eb0       ??$_Emplace_reallocate@ABV?$shared_ptr@VArchive@@@std@@@?$vector@V?$shared_ptr@VArchive@@@std@@V?$allocator@V?$shared_ptr@VArchive@@@std@@@2@@std@@QAEPAV?$shared_ptr@VArchive@@@1@QAV21@ABV21@@Z 10046eb0 f i open.obj
 0001:00046020       ??$_Emplace@ABUArcEntry@@@?$list@UArcEntry@@V?$allocator@UArcEntry@@@std@@@std@@QAEPAU?$_List_node@UArcEntry@@PAX@1@QAU21@ABUArcEntry@@@Z 10047020 f i open.obj
 0001:000460c0       ??$_Emplace@UArcEntry@@@?$list@UArcEntry@@V?$allocator@UArcEntry@@@std@@@std@@QAEPAU?$_List_node@UArcEntry@@PAX@1@QAU21@$$QAUArcEntry@@@Z 100470c0 f i open.obj
 0001:00046190       ??$_Assign_cast@AAUArcEntry@@V?$_List_unchecked_iterator@V?$_List_val@U?$_List_simple_types@UArcEntry@@@std@@@std@@@std@@@?$list@UArcEntry@@V?$allocator@UArcEntry@@@std@@@std@@AAEXV?$_List_unchecked_iterator@V?$_List_val@U?$_List_simple_types@UArcEntry@@@std@@@std@@@1@V21@@Z 10047190 f i open.obj
 0001:00046380       ??$_Erase_tree@V?$allocator@U?$_Tree_node@V?$vector@EV?$allocator@E@std@@@std@@PAX@std@@@std@@@?$_Tree_val@U?$_Tree_simple_types@V?$vector@EV?$allocator@E@std@@@std@@@std@@@std@@QAEXAAV?$allocator@U?$_Tree_node@V?$vector@EV?$allocator@E@std@@@std@@PAX@std@@@1@PAU?$_Tree_node@V?$vector@EV?$allocator@E@std@@@std@@PAX@1@@Z 10047380 f i open.obj
 0001:00046410       ??$_Copy_nodes@U_Copy_tag@?$_Tree@V?$_Tset_traits@V?$basic_string@_WU?$char_traits@_W@std@@V?$allocator@_W@2@@std@@U?$less@V?$basic_string@_WU?$char_traits@_W@std@@V?$allocator@_W@2@@std@@@2@V?$allocator@V?$basic_string@_WU?$char_traits@_W@std@@V?$allocator@_W@2@@std@@@2@$0A@@std@@@std@@@?$_Tree@V?$_Tset_traits@V?$basic_string@_WU?$char_traits@_W@std@@V?$allocator@_W@2@@std@@U?$less@V?$basic_string@_WU?$char_traits@_W@std@@V?$allocator@_W@2@@std@@@2@V?$allocator@V?$basic_string@_WU?$char_traits@_W@std@@V?$allocator@_W@2@@std@@@2@$0A@@std@@@std@@IAEPAU?$_Tree_node@V?$basic_string@_WU?$char_traits@_W@std@@V?$allocator@_W@2@@std@@PAX@1@PAU21@0U_Copy_tag@01@@Z 10047410 f i open.obj
 0001:00046500       ??$_Uninitialized_move@PAV?$shared_ptr@VArchive@@@std@@V?$allocator@V?$shared_ptr@VArchive@@@std@@@2@@std@@YAPAV?$shared_ptr@VArchive@@@0@QAV10@0PAV10@AAV?$allocator@V?$shared_ptr@VArchive@@@std@@@0@@Z 10047500 f i open.obj
 0001:00046560       ??1?$_List_node_insert_op@V?$allocator@U?$_List_node@UArcEntry@@PAX@std@@@std@@@std@@QAE@XZ 10047560 f i open.obj
 0001:000465e0       ??1?$_Alloc_construct_ptr@V?$allocator@U?$_Tree_node@V?$vector@EV?$allocator@E@std@@@std@@PAX@std@@@std@@@std@@QAE@XZ 100475e0 f i open.obj
 0001:000465e0       ??1?$_Tree_temp_node_alloc@V?$allocator@U?$_Tree_node@V?$vector@EV?$allocator@E@std@@@std@@PAX@std@@@std@@@std@@QAE@XZ 100475e0 f i open.obj
 0001:000465e0       ??1?$_Alloc_construct_ptr@V?$allocator@U?$_List_node@UIconImage@@PAX@std@@@std@@@std@@QAE@XZ 100475e0 f i rsrc.obj
 0001:000465f3       ?AddRef@ArchiveOpener@@WM@AGKXZ 100475f3 f i open.obj
 0001:000465f3       ?AddRef@SfxUpdateStream@@WM@AGKXZ 100475f3 f i update.obj
 0001:000465f3       ?AddRef@SimpleUpdateStream@@WM@AGKXZ 100475f3 f i update.obj
 0001:000465f3       ?AddRef@MultiVolumeUpdateStream@@WM@AGKXZ 100475f3 f i update.obj
 0001:000465fd       ??_EArchiveSubStream@@W3AEPAXI@Z 100475fd f i open.obj
 0001:00046605       ??_EArchiveOpener@@WM@AEPAXI@Z 10047605 f i open.obj
 0001:0004660d       ??_EArchiveOpenStream@@W3AEPAXI@Z 1004760d f i open.obj
 0001:00046615       ?QueryInterface@ArchiveSubStream@@W3AGJABU_GUID@@PAPAX@Z 10047615 f i open.obj
 0001:0004661f       ?QueryInterface@ArchiveOpenStream@@W3AGJABU_GUID@@PAPAX@Z 1004761f f i open.obj
 0001:00046629       ?Release@ArchiveOpener@@W3AGKXZ 10047629 f i open.obj
 0001:00046633       ?QueryInterface@ArchiveOpener@@W3AGJABU_GUID@@PAPAX@Z 10047633 f i open.obj
 0001:0004663d       ??_EArchiveOpener@@WBI@AEPAXI@Z 1004763d f i open.obj
 0001:00046645       ?Release@ArchiveOpener@@W7AGKXZ 10047645 f i open.obj
 0001:0004664f       ?QueryInterface@ArchiveOpener@@W7AGJABU_GUID@@PAPAX@Z 1004764f f i open.obj
 0001:00046659       ?AddRef@ArchiveOpener@@W3AGKXZ 10047659 f i open.obj
 0001:00046663       ?Release@ArchiveOpener@@WM@AGKXZ 10047663 f i open.obj
 0001:0004666d       ?QueryInterface@ArchiveOpener@@WM@AGJABU_GUID@@PAPAX@Z 1004766d f i open.obj
 0001:00046677       ?AddRef@ArchiveOpener@@W7AGKXZ 10047677 f i open.obj
 0001:00046690       ??4PropVariant@@QAEAAV0@ABV?$basic_string@_WU?$char_traits@_W@std@@V?$allocator@_W@2@@std@@@Z 10047690 f i update.obj
 0001:00046730       ?do_update_ui@ArchiveUpdateProgress@@EAEXXZ 10047730 f i update.obj
 0001:00047570       ??0ArchiveUpdateProgress@@QAE@_NABV?$basic_string@_WU?$char_traits@_W@std@@V?$allocator@_W@2@@std@@@Z 10048570 f i update.obj
 0001:00047710       ?on_write_archive@ArchiveUpdateProgress@@QAEXI@Z 10048710 f i update.obj
 0001:000477c0       ??_EArchiveUpdateProgress@@UAEPAXI@Z 100487c0 f i * CIL library *:* CIL module *
 0001:000477c0       ??_GArchiveUpdateProgress@@UAEPAXI@Z 100487c0 f i update.obj
 0001:000478b0       ??0UpdateStream@@QAE@V?$shared_ptr@VArchiveUpdateProgress@@@std@@@Z 100488b0 f i update.obj
 0001:00047930       ??1UpdateStream@@UAE@XZ    10048930 f i update.obj
 0001:00047980       ??_EUpdateStream@@UAEPAXI@Z 10048980 f i * CIL library *:* CIL module *
 0001:00047980       ??_GUpdateStream@@UAEPAXI@Z 10048980 f i update.obj
 0001:000479e0       ??0SimpleUpdateStream@@QAE@ABV?$basic_string@_WU?$char_traits@_W@std@@V?$allocator@_W@2@@std@@V?$shared_ptr@VArchiveUpdateProgress@@@2@@Z 100489e0 f i update.obj
 0001:00047b40       ?QueryInterface@MultiVolumeUpdateStream@@UAGJABU_GUID@@PAPAX@Z 10048b40 f i update.obj
 0001:00047b40       ?QueryInterface@SimpleUpdateStream@@UAGJABU_GUID@@PAPAX@Z 10048b40 f i update.obj
 0001:00047b40       ?QueryInterface@SfxUpdateStream@@UAGJABU_GUID@@PAPAX@Z 10048b40 f i update.obj
 0001:00047c20       ?Release@SimpleUpdateStream@@UAGKXZ 10048c20 f i update.obj
 0001:00047c20       ?Release@MultiVolumeUpdateStream@@UAGKXZ 10048c20 f i update.obj
 0001:00047c20       ?Release@SfxUpdateStream@@UAGKXZ 10048c20 f i update.obj
 0001:00047c40       ?Write@SfxUpdateStream@@UAGJPBXIPAI@Z 10048c40 f i update.obj
 0001:00047c40       ?Write@SimpleUpdateStream@@UAGJPBXIPAI@Z 10048c40 f i update.obj
 0001:00047d80       ?Seek@SimpleUpdateStream@@UAGJ_JIPA_K@Z 10048d80 f i update.obj
 0001:00047eb0       ?SetSize@SimpleUpdateStream@@UAGJ_K@Z 10048eb0 f i update.obj
 0001:00048010       ?clean_files@SfxUpdateStream@@UAEXXZ 10049010 f i update.obj
 0001:00048010       ?clean_files@SimpleUpdateStream@@UAEXXZ 10049010 f i update.obj
 0001:000480c0       ??_ESimpleUpdateStream@@UAEPAXI@Z 100490c0 f i * CIL library *:* CIL module *
 0001:000480c0       ??_GSimpleUpdateStream@@UAEPAXI@Z 100490c0 f i update.obj
 0001:00048130       ??0SfxUpdateStream@@QAE@ABV?$basic_string@_WU?$char_traits@_W@std@@V?$allocator@_W@2@@std@@ABUSfxOptions@@V?$shared_ptr@VArchiveUpdateProgress@@@2@@Z 10049130 f i update.obj
 0001:000482c0       ?Seek@SfxUpdateStream@@UAGJ_JIPA_K@Z 100492c0 f i update.obj
 0001:00048440       ?SetSize@SfxUpdateStream@@UAGJ_K@Z 10049440 f i update.obj
 0001:000485b0       ??_GSfxUpdateStream@@UAEPAXI@Z 100495b0 f i update.obj
 0001:000485b0       ??_ESfxUpdateStream@@UAEPAXI@Z 100495b0 f i * CIL library *:* CIL module *
 0001:00048620       ?get_volume_path@MultiVolumeUpdateStream@@AAE?AV?$basic_string@_WU?$char_traits@_W@std@@V?$allocator@_W@2@@std@@_K@Z 10049620 f i update.obj
 0001:00048920       ?get_last_volume_idx@MultiVolumeUpdateStream@@AAE_KXZ 10049920 f i update.obj
 0001:00048950       ??0MultiVolumeUpdateStream@@QAE@ABV?$basic_string@_WU?$char_traits@_W@std@@V?$allocator@_W@2@@std@@_KV?$shared_ptr@VArchiveUpdateProgress@@@2@@Z 10049950 f i update.obj
 0001:00048b20       ?Write@MultiVolumeUpdateStream@@UAGJPBXIPAI@Z 10049b20 f i update.obj
 0001:00049190       ?Seek@MultiVolumeUpdateStream@@UAGJ_JIPA_K@Z 1004a190 f i update.obj
 0001:00049340       ?SetSize@MultiVolumeUpdateStream@@UAGJ_K@Z 1004a340 f i update.obj
 0001:00049710       ?clean_files@MultiVolumeUpdateStream@@UAEXXZ 1004a710 f i update.obj
 0001:000498f0       ??_GMultiVolumeUpdateStream@@UAEPAXI@Z 1004a8f0 f i update.obj
 0001:000498f0       ??_EMultiVolumeUpdateStream@@UAEPAXI@Z 1004a8f0 f i * CIL library *:* CIL module *
 0001:000499b0       ?QueryInterface@FileReadStream@@UAGJABU_GUID@@PAPAX@Z 1004a9b0 f i update.obj
 0001:00049ab0       ?Read@FileReadStream@@UAGJPAXIPAI@Z 1004aab0 f i update.obj
 0001:00049c50       ?Seek@FileReadStream@@UAGJ_JIPA_K@Z 1004ac50 f i update.obj
 0001:00049d80       ?GetSize@FileReadStream@@UAGJPA_K@Z 1004ad80 f i update.obj
 0001:00049e70       ??_EFileReadStream@@UAEPAXI@Z 1004ae70 f i * CIL library *:* CIL module *
 0001:00049e70       ??_GFileReadStream@@UAEPAXI@Z 1004ae70 f i update.obj
 0001:00049ee0       ?do_update_ui@PrepareUpdate@@EAEXXZ 1004aee0 f i update.obj
 0001:0004a110       ?process_file@PrepareUpdate@@AAE_NABV?$basic_string@_WU?$char_traits@_W@std@@V?$allocator@_W@2@@std@@ABUFindData@@IAAI@Z 1004b110 f i update.obj
 0001:0004a650       ??R<lambda_1>@?1??process_file@PrepareUpdate@@AAE_NABV?$basic_string@_WU?$char_traits@_W@std@@V?$allocator@_W@2@@std@@ABUFindData@@IAAI@Z@QBE_NII@Z 1004b650 f i update.obj
 0001:0004a6d0       ?process_file_enum@PrepareUpdate@@AAE_NAAVFileEnum@@ABV?$basic_string@_WU?$char_traits@_W@std@@V?$allocator@_W@2@@std@@I@Z 1004b6d0 f i update.obj
 0001:0004ab80       ??0PrepareUpdate@@QAE@ABV?$basic_string@_WU?$char_traits@_W@std@@V?$allocator@_W@2@@std@@ABV?$vector@V?$basic_string@_WU?$char_traits@_W@std@@V?$allocator@_W@2@@std@@V?$allocator@V?$basic_string@_WU?$char_traits@_W@std@@V?$allocator@_W@2@@std@@@2@@2@IAAVArchive@@AAV?$map@IUFileIndexInfo@@U?$less@I@std@@V?$allocator@U?$pair@$$CBIUFileIndexInfo@@@std@@@3@@2@AAIW4OverwriteAction@@AA_NAAV?$list@UError@@V?$allocator@UError@@@std@@@2@PAVFileFilter@Far@@6@Z 1004bb80 f i update.obj
 0001:0004af40       ??1DirList@@QAE@XZ         1004bf40 f i update.obj
 0001:0004af50       ??_EPrepareUpdate@@UAEPAXI@Z 1004bf50 f i * CIL library *:* CIL module *
 0001:0004af50       ??_GPrepareUpdate@@UAEPAXI@Z 1004bf50 f i update.obj
 0001:0004af80       ??1AttachSfxModuleProgress@@UAE@XZ 1004bf80 f i sfx.obj
 0001:0004af80       ??1PrepareUpdate@@UAE@XZ   1004bf80 f i update.obj
 0001:0004aff0       ??0ArchiveUpdater@@QAE@ABV?$basic_string@_WU?$char_traits@_W@std@@V?$allocator@_W@2@@std@@0IV?$shared_ptr@V?$map@IUFileIndexInfo@@U?$less@I@std@@V?$allocator@U?$pair@$$CBIUFileIndexInfo@@@std@@@3@@std@@@2@ABUUpdateOptions@@V?$shared_ptr@_N@2@V?$shared_ptr@V?$list@UError@@V?$allocator@UError@@@std@@@std@@@2@V?$shared_ptr@VArchiveUpdateProgress@@@2@@Z 1004bff0 f i update.obj
 0001:0004b210       ?QueryInterface@ArchiveUpdater@@UAGJABU_GUID@@PAPAX@Z 1004c210 f i update.obj
 0001:0004b310       ?SetTotal@ArchiveUpdater@@UAGJ_K@Z 1004c310 f i update.obj
 0001:0004b490       ?SetCompleted@ArchiveUpdater@@UAGJPB_K@Z 1004c490 f i update.obj
 0001:0004b630       ?GetUpdateItemInfo@ArchiveUpdater@@UAGJIPAH0PAI@Z 1004c630 f i update.obj
 0001:0004b6c0       ?GetProperty@ArchiveUpdater@@UAGJIKPAUtagPROPVARIANT@@@Z 1004c6c0 f i update.obj
 0001:0004b920       ?GetStream@ArchiveUpdater@@UAGJIPAPAUISequentialInStream@@@Z 1004c920 f i update.obj
 0001:0004bd20       ?SetOperationResult@ArchiveUpdater@@UAGJH@Z 1004cd20 f i update.obj
 0001:0004be70       ?CryptoGetTextPassword2@ArchiveUpdater@@UAGJPAHPAPA_W@Z 1004ce70 f i update.obj
 0001:0004bfe0       ??_GArchiveUpdater@@UAEPAXI@Z 1004cfe0 f i update.obj
 0001:0004bfe0       ??_EArchiveUpdater@@UAEPAXI@Z 1004cfe0 f i * CIL library *:* CIL module *
 0001:0004c000       ??1ArchiveUpdater@@UAE@XZ  1004d000 f i update.obj
 0001:0004c1a0       ?set_properties@Archive@@AAEXPAUIOutArchive@@ABUUpdateOptions@@@Z 1004d1a0 f   update.obj
 0001:0004e710       ?do_update_ui@DeleteSrcFiles@@EAEXXZ 1004f710 f i update.obj
 0001:0004e940       ?delete_src_file@DeleteSrcFiles@@AAEXABV?$basic_string@_WU?$char_traits@_W@std@@V?$allocator@_W@2@@std@@@Z 1004f940 f i update.obj
 0001:0004ea20       ?delete_src_dir@DeleteSrcFiles@@AAEXABV?$basic_string@_WU?$char_traits@_W@std@@V?$allocator@_W@2@@std@@@Z 1004fa20 f i update.obj
 0001:0004ece0       ??0DeleteSrcFiles@@QAE@ABV?$basic_string@_WU?$char_traits@_W@std@@V?$allocator@_W@2@@std@@ABV?$vector@V?$basic_string@_WU?$char_traits@_W@std@@V?$allocator@_W@2@@std@@V?$allocator@V?$basic_string@_WU?$char_traits@_W@std@@V?$allocator@_W@2@@std@@@2@@2@AA_NAAV?$list@UError@@V?$allocator@UError@@@std@@@2@@Z 1004fce0 f i update.obj
 0001:0004efc0       ?create@Archive@@QAEXABV?$basic_string@_WU?$char_traits@_W@std@@V?$allocator@_W@2@@std@@ABV?$vector@V?$basic_string@_WU?$char_traits@_W@std@@V?$allocator@_W@2@@std@@V?$allocator@V?$basic_string@_WU?$char_traits@_W@std@@V?$allocator@_W@2@@std@@@2@@3@ABUUpdateOptions@@V?$shared_ptr@V?$list@UError@@V?$allocator@UError@@@std@@@std@@@3@@Z 1004ffc0 f   update.obj
 0001:0004f7a0       ?update@Archive@@QAEXABV?$basic_string@_WU?$char_traits@_W@std@@V?$allocator@_W@2@@std@@ABV?$vector@V?$basic_string@_WU?$char_traits@_W@std@@V?$allocator@_W@2@@std@@V?$allocator@V?$basic_string@_WU?$char_traits@_W@std@@V?$allocator@_W@2@@std@@@2@@3@0ABUUpdateOptions@@V?$shared_ptr@V?$list@UError@@V?$allocator@UError@@@std@@@std@@@3@@Z 100507a0 f   update.obj
 0001:0004fe80       ?create_dir@Archive@@QAEXABV?$basic_string@_WU?$char_traits@_W@std@@V?$allocator@_W@2@@std@@0@Z 10050e80 f   update.obj
 0001:000507f0       ??1?$vector@VPropVariant@@V?$allocator@VPropVariant@@@std@@@std@@QAE@XZ 100517f0 f i update.obj
 0001:00050850       ??A?$map@IUFileIndexInfo@@U?$less@I@std@@V?$allocator@U?$pair@$$CBIUFileIndexInfo@@@std@@@3@@std@@QAEAAUFileIndexInfo@@ABI@Z 10051850 f i update.obj
 0001:00050930       ?erase@?$_Tree@V?$_Tmap_traits@IUFileIndexInfo@@U?$less@I@std@@V?$allocator@U?$pair@$$CBIUFileIndexInfo@@@std@@@3@$0A@@std@@@std@@QAEIABI@Z 10051930 f i update.obj
 0001:00050a70       ??6?$basic_ostream@_WU?$char_traits@_W@std@@@std@@QAEAAV01@I@Z 10051a70 f i update.obj
 0001:00050be0       ?deallocate@?$allocator@PB_W@std@@QAEXQAPB_WI@Z 10051be0 f i update.obj
 0001:00050c20       ?_Destroy@?$vector@VPropVariant@@V?$allocator@VPropVariant@@@std@@@std@@AAEXPAVPropVariant@@0@Z 10051c20 f i update.obj
 0001:00050c40       ?deallocate@?$allocator@VPropVariant@@@std@@QAEXQAVPropVariant@@I@Z 10051c40 f i update.obj
 0001:00050c80       ?_Extract@?$_Tree_val@U?$_Tree_simple_types@U?$pair@$$CBIUFileIndexInfo@@@std@@@std@@@std@@QAEPAU?$_Tree_node@U?$pair@$$CBIUFileIndexInfo@@@std@@PAX@2@V?$_Tree_unchecked_const_iterator@V?$_Tree_val@U?$_Tree_simple_types@U?$pair@$$CBIUFileIndexInfo@@@std@@@std@@@std@@U_Iterator_base0@2@@2@@Z 10051c80 f i update.obj
 0001:00050f30       ?_Rrotate@?$_Tree_val@U?$_Tree_simple_types@U?$pair@$$CBIUFileIndexInfo@@@std@@@std@@@std@@QAEXPAU?$_Tree_node@U?$pair@$$CBIUFileIndexInfo@@@std@@PAX@2@@Z 10051f30 f i update.obj
 0001:00050f90       ?_Lrotate@?$_Tree_val@U?$_Tree_simple_types@U?$pair@$$CBIUFileIndexInfo@@@std@@@std@@@std@@QAEXPAU?$_Tree_node@U?$pair@$$CBIUFileIndexInfo@@@std@@PAX@2@@Z 10051f90 f i update.obj
 0001:00050fe0       ??$equal_range@V?$_Vector_iterator@V?$_Vector_val@U?$_Simple_types@I@std@@@std@@@std@@HV<lambda_1>@?1??process_file@PrepareUpdate@@AAE_NABV?$basic_string@_WU?$char_traits@_W@std@@V?$allocator@_W@2@@2@ABUFindData@@IAAI@Z@@std@@YA?AU?$pair@V?$_Vector_iterator@V?$_Vector_val@U?$_Simple_types@I@std@@@std@@@std@@V12@@0@V?$_Vector_iterator@V?$_Vector_val@U?$_Simple_types@I@std@@@std@@@0@0ABHV<lambda_1>@?1??process_file@PrepareUpdate@@AAE_NABV?$basic_string@_WU?$char_traits@_W@std@@V?$allocator@_W@2@@0@ABUFindData@@IAAI@Z@@Z 10051fe0 f i update.obj
 0001:00051200       ??$construct@VPropVariant@@V1@@?$_Default_allocator_traits@V?$allocator@VPropVariant@@@std@@@std@@SAXAAV?$allocator@VPropVariant@@@1@QAVPropVariant@@$$QAV3@@Z 10052200 f i update.obj
 0001:00051240       ??$_Emplace_reallocate@VPropVariant@@@?$vector@VPropVariant@@V?$allocator@VPropVariant@@@std@@@std@@QAEPAVPropVariant@@QAV2@$$QAV2@@Z 10052240 f i update.obj
 0001:000514c0       ??$_Destroy_range@V?$allocator@VPropVariant@@@std@@@std@@YAXPAVPropVariant@@QAV1@AAV?$allocator@VPropVariant@@@0@@Z 100524c0 f i update.obj
 0001:00051560       ??$_Erase_tree@V?$allocator@U?$_Tree_node@U?$pair@$$CBIUFileIndexInfo@@@std@@PAX@std@@@std@@@?$_Tree_val@U?$_Tree_simple_types@U?$pair@$$CBIUFileIndexInfo@@@std@@@std@@@std@@QAEXAAV?$allocator@U?$_Tree_node@U?$pair@$$CBIUFileIndexInfo@@@std@@PAX@std@@@1@PAU?$_Tree_node@U?$pair@$$CBIUFileIndexInfo@@@std@@PAX@1@@Z 10052560 f i update.obj
 0001:000515f0       ??$_Freenode@V?$allocator@U?$_Tree_node@U?$pair@$$CBIUFileIndexInfo@@@std@@PAX@std@@@std@@@?$_Tree_node@U?$pair@$$CBIUFileIndexInfo@@@std@@PAX@std@@SAXAAV?$allocator@U?$_Tree_node@U?$pair@$$CBIUFileIndexInfo@@@std@@PAX@std@@@1@PAU01@@Z 100525f0 f i update.obj
 0001:00051660       ?_Destroy@?$_Ref_count@V?$map@IUFileIndexInfo@@U?$less@I@std@@V?$allocator@U?$pair@$$CBIUFileIndexInfo@@@std@@@3@@std@@@std@@EAEXXZ 10052660 f i update.obj
 0001:00051690       ??1?$_Temporary_owner@V?$map@IUFileIndexInfo@@U?$less@I@std@@V?$allocator@U?$pair@$$CBIUFileIndexInfo@@@std@@@3@@std@@@std@@QAE@XZ 10052690 f i update.obj
 0001:000516c0       ?_Umove@?$vector@VPropVariant@@V?$allocator@VPropVariant@@@std@@@std@@AAEPAVPropVariant@@PAV3@00@Z 100526c0 f i update.obj
 0001:00051770       ??1?$_Alloc_construct_ptr@V?$allocator@U?$_Tree_node@U?$pair@$$CBIUFileIndexInfo@@@std@@PAX@std@@@std@@@std@@QAE@XZ 10052770 f i update.obj
 0001:00051790       ??1?$_Uninitialized_backout_al@V?$allocator@VPropVariant@@@std@@@std@@QAE@XZ 10052790 f i update.obj
 0001:0005179d       ?Release@MultiVolumeUpdateStream@@WM@AGKXZ 1005279d f i update.obj
 0001:0005179d       ?Release@SimpleUpdateStream@@WM@AGKXZ 1005279d f i update.obj
 0001:0005179d       ?Release@SfxUpdateStream@@WM@AGKXZ 1005279d f i update.obj
 0001:000517a7       ??_ESimpleUpdateStream@@WM@AEPAXI@Z 100527a7 f i update.obj
 0001:000517af       ?QueryInterface@SimpleUpdateStream@@WM@AGJABU_GUID@@PAPAX@Z 100527af f i update.obj
 0001:000517af       ?QueryInterface@MultiVolumeUpdateStream@@WM@AGJABU_GUID@@PAPAX@Z 100527af f i update.obj
 0001:000517af       ?QueryInterface@SfxUpdateStream@@WM@AGJABU_GUID@@PAPAX@Z 100527af f i update.obj
 0001:000517b9       ??_ESfxUpdateStream@@WM@AEPAXI@Z 100527b9 f i update.obj
 0001:000517c1       ?QueryInterface@ArchiveUpdater@@W3AGJABU_GUID@@PAPAX@Z 100527c1 f i update.obj
 0001:000517cb       ?QueryInterface@ArchiveUpdater@@W7AGJABU_GUID@@PAPAX@Z 100527cb f i update.obj
 0001:000517d5       ?QueryInterface@FileReadStream@@W3AGJABU_GUID@@PAPAX@Z 100527d5 f i update.obj
 0001:000517df       ??_EArchiveUpdater@@W7AEPAXI@Z 100527df f i update.obj
 0001:000517e7       ??_EFileReadStream@@W7AEPAXI@Z 100527e7 f i update.obj
 0001:000517ef       ?QueryInterface@FileReadStream@@W7AGJABU_GUID@@PAPAX@Z 100527ef f i update.obj
 0001:000517f9       ??_EMultiVolumeUpdateStream@@WM@AEPAXI@Z 100527f9 f i update.obj
 0001:00051810       ?do_update_ui@ArchiveFileDeleterProgress@@EAEXXZ 10052810 f i delete.obj
 0001:00051d90       ??0ArchiveFileDeleterStream@@QAE@ABV?$basic_string@_WU?$char_traits@_W@std@@V?$allocator@_W@2@@std@@V?$shared_ptr@VProgressMonitor@@@2@@Z 10052d90 f i delete.obj
 0001:00051ee0       ?QueryInterface@ArchiveFileDeleterStream@@UAGJABU_GUID@@PAPAX@Z 10052ee0 f i delete.obj
 0001:00051fc0       ?Write@ArchiveFileDeleterStream@@UAGJPBXIPAI@Z 10052fc0 f i delete.obj
 0001:000520f0       ?Seek@ArchiveFileDeleterStream@@UAGJ_JIPA_K@Z 100530f0 f i delete.obj
 0001:00052220       ?SetSize@ArchiveFileDeleterStream@@UAGJ_K@Z 10053220 f i delete.obj
 0001:00052380       ??_GArchiveFileDeleterStream@@UAEPAXI@Z 10053380 f i delete.obj
 0001:00052380       ??_EArchiveFileDeleterStream@@UAEPAXI@Z 10053380 f i * CIL library *:* CIL module *
 0001:000523f0       ?QueryInterface@ArchiveFileDeleter@@UAGJABU_GUID@@PAPAX@Z 100533f0 f i delete.obj
 0001:000524d0       ?SetTotal@ArchiveFileDeleter@@UAGJ_K@Z 100534d0 f i delete.obj
 0001:000525a0       ?SetCompleted@ArchiveFileDeleter@@UAGJPB_K@Z 100535a0 f i delete.obj
 0001:00052680       ?GetUpdateItemInfo@ArchiveFileDeleter@@UAGJIPAH0PAI@Z 10053680 f i delete.obj
 0001:000526b0       ?GetProperty@ArchiveFileDeleter@@UAGJIKPAUtagPROPVARIANT@@@Z 100536b0 f i delete.obj
 0001:000527d0       ?GetStream@ArchiveFileDeleter@@UAGJIPAPAUISequentialInStream@@@Z 100537d0 f i delete.obj
 0001:000527e0       ?PrepareOperation@ArchiveTester@@UAGJH@Z 100537e0 f i test.obj
 0001:000527e0       ?SetOperationResult@ArchiveFileDeleter@@UAGJH@Z 100537e0 f i delete.obj
 0001:000527f0       ??_EArchiveFileDeleter@@UAEPAXI@Z 100537f0 f i * CIL library *:* CIL module *
 0001:000527f0       ??_GArchiveFileDeleter@@UAEPAXI@Z 100537f0 f i delete.obj
 0001:000528a0       ?enum_deleted_indices@Archive@@AAEXIAAV?$vector@IV?$allocator@I@std@@@std@@@Z 100538a0 f   delete.obj
 0001:00052930       ?delete_files@Archive@@QAEXABV?$vector@IV?$allocator@I@std@@@std@@@Z 10053930 f   delete.obj
 0001:000531cc       ?QueryInterface@ArchiveFileDeleter@@W3AGJABU_GUID@@PAPAX@Z 100541cc f i delete.obj
 0001:000531d6       ??_EArchiveFileDeleter@@W3AEPAXI@Z 100541d6 f i delete.obj
 0001:000531de       ?QueryInterface@ArchiveFileDeleterStream@@W3AGJABU_GUID@@PAPAX@Z 100541de f i delete.obj
 0001:000531e8       ??_EArchiveFileDeleterStream@@W3AEPAXI@Z 100541e8 f i delete.obj
 0001:000531f0       ?size@str_view@SimpleXML@@QBEIXZ 100541f0 f i options.obj
 0001:00053200       ??_GIParseCallback@SimpleXML@@UAEPAXI@Z 10054200 f i options.obj
 0001:00053200       ??_EIParseCallback@SimpleXML@@UAEPAXI@Z 10054200 f i * CIL library *:* CIL module *
 0001:00053410       ??1xml_parser@@UAE@XZ      10054410 f i options.obj
 0001:00053430       ?OnTag@xml_parser@@UBE?AW4cbRet@SimpleXML@@HPBVstr_view@3@ABV43@@Z 10054430 f i options.obj
 0001:00053520       ?OnBody@xml_parser@@UBE?AW4cbRet@SimpleXML@@HPBVstr_view@3@ABV43@@Z 10054520 f i options.obj
 0001:000536f0       ?OnAttr@xml_parser@@UBE?AW4cbRet@SimpleXML@@HPBVstr_view@3@ABV43@1@Z 100546f0 f i options.obj
 0001:000539c0       ?parse@xml_parser@@QAE_NABV?$basic_string@_WU?$char_traits@_W@std@@V?$allocator@_W@2@@std@@@Z 100549c0 f i options.obj
 0001:00053b30       ??_Exml_parser@@UAEPAXI@Z  10054b30 f i * CIL library *:* CIL module *
 0001:00053b30       ??_Gxml_parser@@UAEPAXI@Z  10054b30 f i options.obj
 0001:00053f80       ?get_str@OptionsKey@@QAE?AV?$basic_string@_WU?$char_traits@_W@std@@V?$allocator@_W@2@@std@@PB_WABV23@@Z 10054f80 f i options.obj
 0001:00054080       ?set_int@OptionsKey@@QAEXPB_WII@Z 10055080 f i options.obj
 0001:00054100       ?set_bool@OptionsKey@@QAEXPB_W_N1@Z 10055100 f i options.obj
 0001:00054180       ?set_str@OptionsKey@@QAEXPB_WABV?$basic_string@_WU?$char_traits@_W@std@@V?$allocator@_W@2@@std@@1@Z 10055180 f i options.obj
 0001:00054240       ??0Options@@QAE@XZ         10055240 f   options.obj
 0001:00054490       ?load_sfx_options@@YAXAAVOptionsKey@@AAUSfxOptions@@@Z 10055490 f   options.obj
 0001:00054b50       ?save_sfx_options@@YAXAAVOptionsKey@@ABUSfxOptions@@@Z 10055b50 f   options.obj
 0001:00054d70       ?load@Options@@QAEXXZ      10055d70 f   options.obj
 0001:00055a20       ??1OptionsKey@@QAE@XZ      10056a20 f i options.obj
 0001:00055a90       ?save@Options@@QBEXXZ      10056a90 f   options.obj
 0001:00056060       ?get_profile_key_name@@YA?AV?$basic_string@_WU?$char_traits@_W@std@@V?$allocator@_W@2@@std@@ABV12@@Z 10057060 f   options.obj
 0001:000561b0       ??0ProfileOptions@@QAE@XZ  100571b0 f   options.obj
 0001:00056260       ??0UpdateOptions@@QAE@XZ   10057260 f   options.obj
 0001:000562b0       ??0SfxOptions@@QAE@XZ      100572b0 f   options.obj
 0001:000563f0       ?load@UpdateProfiles@@QAEXXZ 100573f0 f   options.obj
 0001:00057070       ?save@UpdateProfiles@@QBEXXZ 10058070 f   options.obj
 0001:00057330       ?find_by_name@UpdateProfiles@@QAEIABV?$basic_string@_WU?$char_traits@_W@std@@V?$allocator@_W@2@@std@@@Z 10058330 f   options.obj
 0001:000574e0       ?find_by_options@UpdateProfiles@@QAEIABUUpdateOptions@@@Z 100584e0 f   options.obj
 0001:00057530       ?update@UpdateProfiles@@QAEXABV?$basic_string@_WU?$char_traits@_W@std@@V?$allocator@_W@2@@std@@ABUUpdateOptions@@@Z 10058530 f   options.obj
 0001:000577c0       ??4ProfileOptions@@QAEAAU0@ABU0@@Z 100587c0 f i options.obj
 0001:00057900       ?get_app_option@@YA_NIPB_WAA_N@Z 10058900 f   options.obj
 0001:000579c0       ?push_back@?$vector@UUpdateProfile@@V?$allocator@UUpdateProfile@@@std@@@std@@QAEXABUUpdateProfile@@@Z 100589c0 f i options.obj
 0001:00057a50       ??1?$vector@UUpdateProfile@@V?$allocator@UUpdateProfile@@@std@@@std@@QAE@XZ 10058a50 f i options.obj
 0001:00057ae0       ?_Xrange@?$vector@UUpdateProfile@@V?$allocator@UUpdateProfile@@@std@@@std@@CAXXZ 10058ae0 f i options.obj
 0001:00057af0       ?_Destroy@?$vector@UUpdateProfile@@V?$allocator@UUpdateProfile@@@std@@@std@@AAEXPAUUpdateProfile@@0@Z 10058af0 f i options.obj
 0001:00057b20       ?deallocate@?$allocator@UUpdateProfile@@@std@@QAEXQAUUpdateProfile@@I@Z 10058b20 f i options.obj
 0001:00057b60       ??$equal@PBDPBD@std@@YA_NQBD000@Z 10058b60 f i options.obj
 0001:00057ec0       ??$construct@UExternalCodec@@ABU1@@?$_Default_allocator_traits@V?$allocator@UExternalCodec@@@std@@@std@@SAXAAV?$allocator@UExternalCodec@@@1@QAUExternalCodec@@ABU3@@Z 10058ec0 f i options.obj
 0001:00057f50       ??$_Emplace_reallocate@ABUExternalCodec@@@?$vector@UExternalCodec@@V?$allocator@UExternalCodec@@@std@@@std@@QAEPAUExternalCodec@@QAU2@ABU2@@Z 10058f50 f i options.obj
 0001:00058150       ??$_Emplace_reallocate@ABUUpdateProfile@@@?$vector@UUpdateProfile@@V?$allocator@UUpdateProfile@@@std@@@std@@QAEPAUUpdateProfile@@QAU2@ABU2@@Z 10059150 f i options.obj
 0001:000586e0       ??$_Uninitialized_move@PAUExternalCodec@@V?$allocator@UExternalCodec@@@std@@@std@@YAPAUExternalCodec@@QAU1@0PAU1@AAV?$allocator@UExternalCodec@@@0@@Z 100596e0 f i options.obj
 0001:00058800       ??$_Uninitialized_move@PAUUpdateProfile@@V?$allocator@UUpdateProfile@@@std@@@std@@YAPAUUpdateProfile@@QAU1@0PAU1@AAV?$allocator@UUpdateProfile@@@0@@Z 10059800 f i options.obj
 0001:0005a140       ??0ProfileOptions@@QAE@$$QAU0@@Z 1005b140 f i options.obj
 0001:0005a3a0       ??0SfxOptions@@QAE@$$QAU0@@Z 1005b3a0 f i options.obj
 0001:0005ab40       ??$iter_swap@PAUUpdateProfile@@PAU1@@std@@YAXPAUUpdateProfile@@0@Z 1005bb40 f i options.obj
 0001:0005b200       ?create_state_matrix@@YAPAVStateMatrix@@ABV?$vector@USigData@@V?$allocator@USigData@@@std@@@std@@@Z 1005c200 f   msearch.obj
 0001:0005b370       ?msearch@@YA?AV?$vector@UStrPos@@V?$allocator@UStrPos@@@std@@@std@@PAEIABV?$vector@USigData@@V?$allocator@USigData@@@std@@@2@_N@Z 1005c370 f   msearch.obj
 0001:0005b9d0       ??1?$unique_ptr@VStateMatrix@@U?$default_delete@VStateMatrix@@@std@@@std@@QAE@XZ 1005c9d0 f i msearch.obj
 0001:0005b9f0       ??1?$_Tidy_guard@V?$vector@V?$vector@EV?$allocator@E@std@@@std@@V?$allocator@V?$vector@EV?$allocator@E@std@@@std@@@2@@std@@@std@@QAE@XZ 1005c9f0 f i msearch.obj
 0001:0005ba00       ?_Xlen@?$vector@_NV?$allocator@_N@std@@@std@@QBEXXZ 1005ca00 f i msearch.obj
 0001:0005ba10       ??1?$_Tree_head_scoped_ptr@V?$allocator@U?$_Tree_node@U?$pair@$$CBV?$basic_string@_WU?$char_traits@_W@std@@V?$allocator@_W@2@@std@@V12@@std@@PAX@std@@@std@@V?$_Tree_val@U?$_Tree_simple_types@U?$pair@$$CBV?$basic_string@_WU?$char_traits@_W@std@@V?$allocator@_W@2@@std@@V12@@std@@@std@@@2@@std@@QAE@XZ 1005ca10 f i msearch.obj
 0001:0005ba40       ??$_Sort_unchecked@PAUStrPos@@U?$less@X@std@@@std@@YAXPAUStrPos@@0HU?$less@X@0@@Z 1005ca40 f i msearch.obj
 0001:0005bc50       ??$_Partition_by_median_guess_unchecked@PAUStrPos@@U?$less@X@std@@@std@@YA?AU?$pair@PAUStrPos@@PAU1@@0@PAUStrPos@@0U?$less@X@0@@Z 1005cc50 f i msearch.obj
 0001:0005be60       ??$_Guess_median_unchecked@PAUStrPos@@U?$less@X@std@@@std@@YAXPAUStrPos@@00U?$less@X@0@@Z 1005ce60 f i msearch.obj
 0001:0005c0a0       ??$_Pop_heap_hole_by_index@PAUStrPos@@U1@U?$less@X@std@@@std@@YAXPAUStrPos@@HH$$QAU1@U?$less@X@0@@Z 1005d0a0 f i msearch.obj
 0001:0005c150       ?uint_to_hex_str@@YA?AV?$basic_string@_WU?$char_traits@_W@std@@V?$allocator@_W@2@@std@@_KI@Z 1005d150 f   attr.obj
 0001:0005c210       ?format_str_prop@@YA?AV?$basic_string@_WU?$char_traits@_W@std@@V?$allocator@_W@2@@std@@ABVPropVariant@@@Z 1005d210 f   attr.obj
 0001:0005c270       ?format_int_prop@@YA?AV?$basic_string@_WU?$char_traits@_W@std@@V?$allocator@_W@2@@std@@ABVPropVariant@@@Z 1005d270 f   attr.obj
 0001:0005c370       ?format_uint_prop@@YA?AV?$basic_string@_WU?$char_traits@_W@std@@V?$allocator@_W@2@@std@@ABVPropVariant@@@Z 1005d370 f   attr.obj
 0001:0005c3f0       ?format_size_prop@@YA?AV?$basic_string@_WU?$char_traits@_W@std@@V?$allocator@_W@2@@std@@ABVPropVariant@@@Z 1005d3f0 f   attr.obj
 0001:0005c690       ?format_filetime_prop@@YA?AV?$basic_string@_WU?$char_traits@_W@std@@V?$allocator@_W@2@@std@@ABVPropVariant@@@Z 1005d690 f   attr.obj
 0001:0005c820       ?format_crc_prop@@YA?AV?$basic_string@_WU?$char_traits@_W@std@@V?$allocator@_W@2@@std@@ABVPropVariant@@@Z 1005d820 f   attr.obj
 0001:0005c900       ?format_posix_attrib_prop@@YA?AV?$basic_string@_WU?$char_traits@_W@std@@V?$allocator@_W@2@@std@@ABVPropVariant@@@Z 1005d900 f   attr.obj
 0001:0005cd50       ?format_attrib_prop@@YA?AV?$basic_string@_WU?$char_traits@_W@std@@V?$allocator@_W@2@@std@@ABVPropVariant@@@Z 1005dd50 f   attr.obj
 0001:0005d1f0       ?get_attr_list@Archive@@QAE?AV?$list@UAttr@@V?$allocator@UAttr@@@std@@@std@@I@Z 1005e1f0 f   attr.obj
 0001:0005d8d0       ?load_arc_attr@Archive@@AAEXXZ 1005e8d0 f   attr.obj
 0001:0005f000       ?load_update_props@Archive@@QAEXXZ 10060000 f   attr.obj
 0001:0005f570       ?push_back@?$list@UAttr@@V?$allocator@UAttr@@@std@@@std@@QAEXABUAttr@@@Z 10060570 f i attr.obj
 0001:0005f630       ?do_update_ui@ArchiveTester@@EAEXXZ 10060630 f i test.obj
 0001:0005fc10       ??0ArchiveTester@@QAE@IV?$shared_ptr@VArchive@@@std@@@Z 10060c10 f i test.obj
 0001:0005fde0       ?SetTotal@ArchiveTester@@UAGJ_K@Z 10060de0 f i test.obj
 0001:0005feb0       ?SetCompleted@ArchiveTester@@UAGJPB_K@Z 10060eb0 f i test.obj
 0001:0005ff90       ?GetStream@ArchiveTester@@UAGJIPAPAUISequentialOutStream@@H@Z 10060f90 f i test.obj
 0001:00060240       ?SetOperationResult@ArchiveTester@@UAGJH@Z 10061240 f i test.obj
 0001:000603e0       ?CryptoGetTextPassword@ArchiveTester@@UAGJPAPA_W@Z 100613e0 f i test.obj
 0001:00060580       ??_EArchiveTester@@UAEPAXI@Z 10061580 f i * CIL library *:* CIL module *
 0001:00060580       ??_GArchiveTester@@UAEPAXI@Z 10061580 f i test.obj
 0001:00060650       ?prepare_test@Archive@@AAEXIAAV?$list@IV?$allocator@I@std@@@std@@@Z 10061650 f   test.obj
 0001:000606d0       ?test@Archive@@QAEXIABV?$vector@IV?$allocator@I@std@@@std@@@Z 100616d0 f   test.obj
 0001:00060988       ??_EArchiveTester@@W7AEPAXI@Z 10061988 f i test.obj
 0001:00060990       ??_EArchiveTester@@WBA@AEPAXI@Z 10061990 f i test.obj
 0001:000609a0       ?al_round@@YAHN@Z          100619a0 f   common.obj
 0001:000609f0       ?calc_percent@@YAI_K0@Z    100619f0 f   common.obj
 0001:00060ad0       ?get_module_version@@YA_KABV?$basic_string@_WU?$char_traits@_W@std@@V?$allocator@_W@2@@std@@@Z 10061ad0 f   common.obj
 0001:00060b70       ?parse_size_string@@YA_KABV?$basic_string@_WU?$char_traits@_W@std@@V?$allocator@_W@2@@std@@@Z 10061b70 f   common.obj
 0001:00060cc0       ?expand_macros@@YA?AV?$basic_string@_WU?$char_traits@_W@std@@V?$allocator@_W@2@@std@@ABV12@@Z 10061cc0 f   common.obj
 0001:000613b0       ?load_file@@YA?AV?$basic_string@_WU?$char_traits@_W@std@@V?$allocator@_W@2@@std@@ABV12@PAI@Z 100623b0 f   common.obj
 0001:00061670       ?auto_rename@@YA?AV?$basic_string@_WU?$char_traits@_W@std@@V?$allocator@_W@2@@std@@ABV12@@Z 10062670 f   common.obj
 0001:00061a80       ?do_update_ui@AttachSfxModuleProgress@@EAEXXZ 10062a80 f i sfx.obj
 0001:00061d20       ??_EAttachSfxModuleProgress@@UAEPAXI@Z 10062d20 f i * CIL library *:* CIL module *
 0001:00061d20       ??_GAttachSfxModuleProgress@@UAEPAXI@Z 10062d20 f i sfx.obj
 0001:00061d50       ?generate_install_config@@YA?AV?$vector@EV?$allocator@E@std@@@std@@ABUSfxInstallConfig@@@Z 10062d50 f   sfx.obj
 0001:00062240       ?create_sfx_module@@YAXABV?$basic_string@_WU?$char_traits@_W@std@@V?$allocator@_W@2@@std@@ABUSfxOptions@@@Z 10063240 f   sfx.obj
 0001:000624e0       ?attach_sfx_module@@YAXABV?$basic_string@_WU?$char_traits@_W@std@@V?$allocator@_W@2@@std@@ABUSfxOptions@@@Z 100634e0 f   sfx.obj
 0001:00062af0       ?set_control_state@SfxOptionsDialog@@AAEXXZ 10063af0 f i sfx.obj
 0001:00062ca0       ?read_controls@SfxOptionsDialog@@AAE?AUSfxOptions@@XZ 10063ca0 f i sfx.obj
 0001:00063230       ?write_controls@SfxOptionsDialog@@AAEXABUSfxOptions@@@Z 10064230 f i sfx.obj
 0001:00063580       ?dialog_proc@SfxOptionsDialog@@EAEHHHPAX@Z 10064580 f i sfx.obj
 0001:00063810       ??0SfxOptionsDialog@@QAE@AAUSfxOptions@@ABUUpdateProfiles@@@Z 10064810 f i sfx.obj
 0001:00063a70       ?show@SfxOptionsDialog@@QAE_NXZ 10064a70 f i sfx.obj
 0001:00065400       ??1SfxProfile@@QAE@XZ      10066400 f i sfx.obj
 0001:00065460       ?sfx_options_dialog@@YA_NAAUSfxOptions@@ABUUpdateProfiles@@@Z 10066460 f   sfx.obj
 0001:00065530       ??1SfxOptionsDialog@@QAE@XZ 10066530 f i sfx.obj
 0001:00065550       ??1?$vector@USfxProfile@@V?$allocator@USfxProfile@@@std@@@std@@QAE@XZ 10066550 f i sfx.obj
 0001:000655d0       ?_Destroy@?$vector@USfxProfile@@V?$allocator@USfxProfile@@@std@@@std@@AAEXPAUSfxProfile@@0@Z 100665d0 f i sfx.obj
 0001:00065600       ?deallocate@?$allocator@USfxProfile@@@std@@QAEXQAUSfxProfile@@I@Z 10066600 f i sfx.obj
 0001:00065640       ??$for_each@V?$_Vector_const_iterator@V?$_Vector_val@U?$_Simple_types@USfxModule@@@std@@@std@@@std@@V<lambda_1>@?1??show@SfxOptionsDialog@@QAE_NXZ@@std@@YA?AV<lambda_1>@?1??show@SfxOptionsDialog@@QAE_NXZ@V?$_Vector_const_iterator@V?$_Vector_val@U?$_Simple_types@USfxModule@@@std@@@std@@@0@0V1?1??23@QAE_NXZ@@Z 10066640 f i sfx.obj
 0001:00065740       ??$_Emplace_reallocate@ABUSfxProfile@@@?$vector@USfxProfile@@V?$allocator@USfxProfile@@@std@@@std@@QAEPAUSfxProfile@@QAU2@ABU2@@Z 10066740 f i sfx.obj
 0001:00065960       ??$_Uninitialized_move@PAUSfxProfile@@V?$allocator@USfxProfile@@@std@@@std@@YAPAUSfxProfile@@QAU1@0PAU1@AAV?$allocator@USfxProfile@@@0@@Z 10066960 f i sfx.obj
 0001:000659e0       ?lc@@YA?AV?$basic_string@_WU?$char_traits@_W@std@@V?$allocator@_W@2@@std@@ABV12@@Z 100669e0 f   cmdline.obj
 0001:00065bf0       ?parse_command@@YA?AUCommandArgs@@ABV?$basic_string@_WU?$char_traits@_W@std@@V?$allocator@_W@2@@std@@@Z 10066bf0 f   cmdline.obj
 0001:00066320       ?parse_plugin_call@@YA?AUCommandArgs@@PBUOpenMacroInfo@@@Z 10067320 f   cmdline.obj
 0001:000668c0       ?parse_param@@YA?AUParam@@ABV?$basic_string@_WU?$char_traits@_W@std@@V?$allocator@_W@2@@std@@@Z 100678c0 f   cmdline.obj
 0001:00066e90       ?parse_bool_value@@YA_NABV?$basic_string@_WU?$char_traits@_W@std@@V?$allocator@_W@2@@std@@@Z 10067e90 f   cmdline.obj
 0001:00066f70       ?parse_tri_state_value@@YA?AW4TriState@@ABV?$basic_string@_WU?$char_traits@_W@std@@V?$allocator@_W@2@@std@@@Z 10067f70 f   cmdline.obj
 0001:00067080       ?parse_listfile@@YA?AV?$list@V?$basic_string@_WU?$char_traits@_W@std@@V?$allocator@_W@2@@std@@V?$allocator@V?$basic_string@_WU?$char_traits@_W@std@@V?$allocator@_W@2@@std@@@2@@std@@ABV?$basic_string@_WU?$char_traits@_W@std@@V?$allocator@_W@2@@2@@Z 10068080 f   cmdline.obj
 0001:000672e0       ?parse_open_command@@YA?AUOpenCommand@@ABUCommandArgs@@@Z 100682e0 f   cmdline.obj
 0001:00067790       ?parse_update_command@@YA?AUUpdateCommand@@ABUCommandArgs@@@Z 10068790 f   cmdline.obj
 0001:000690a0       ?parse_extract_command@@YA?AUExtractCommand@@ABUCommandArgs@@@Z 1006a0a0 f   cmdline.obj
 0001:00069200       ?parse_extractitems_command@@YA?AUExtractItemsCommand@@ABUCommandArgs@@@Z 1006a200 f   cmdline.obj
 0001:00069330       ?parse_test_command@@YA?AUTestCommand@@ABUCommandArgs@@@Z 1006a330 f   cmdline.obj
 0001:00069570       ?erase@?$vector@V?$basic_string@_WU?$char_traits@_W@std@@V?$allocator@_W@2@@std@@V?$allocator@V?$basic_string@_WU?$char_traits@_W@std@@V?$allocator@_W@2@@std@@@2@@std@@QAE?AV?$_Vector_iterator@V?$_Vector_val@U?$_Simple_types@V?$basic_string@_WU?$char_traits@_W@std@@V?$allocator@_W@2@@std@@@std@@@std@@@2@V?$_Vector_const_iterator@V?$_Vector_val@U?$_Simple_types@V?$basic_string@_WU?$char_traits@_W@std@@V?$allocator@_W@2@@std@@@std@@@std@@@2@@Z 1006a570 f i cmdline.obj
 0001:00069690       ??BRsrcId@@QBEPB_WXZ       1006a690 f i rsrc.obj
 0001:000696b0       ?load_icon_file@@YA?AV?$list@UIconImage@@V?$allocator@UIconImage@@@std@@@std@@ABV?$basic_string@_WU?$char_traits@_W@std@@V?$allocator@_W@2@@2@@Z 1006a6b0 f   rsrc.obj
 0001:00069b50       ??1IconImage@@QAE@XZ       1006ab50 f i rsrc.obj
 0001:00069ba0       ?load_icon_rsrc@@YA?AUIconRsrc@@PAUHINSTANCE__@@PB_WG@Z 1006aba0 f   rsrc.obj
 0001:00069eb0       ??1IconRsrc@@QAE@XZ        1006aeb0 f i rsrc.obj
 0001:00069f10       ??1IconImageRsrc@@QAE@XZ   1006af10 f i rsrc.obj
 0001:00069f60       ??0IconRsrc@@QAE@$$QAU0@@Z 1006af60 f i rsrc.obj
 0001:0006a040       ?enum_names_proc@@YGHPAUHINSTANCE__@@PB_WPA_WJ@Z 1006b040 f   rsrc.obj
 0001:0006a180       ?enum_langs_proc@@YGHPAUHINSTANCE__@@PB_W1GJ@Z 1006b180 f   rsrc.obj
 0001:0006a230       ??1RsrcModule@@QAE@XZ      1006b230 f i rsrc.obj
 0001:0006a250       ??0ResourceUpdate@@QAE@ABV?$basic_string@_WU?$char_traits@_W@std@@V?$allocator@_W@2@@std@@@Z 1006b250 f i rsrc.obj
 0001:0006a2b0       ??1ResourceUpdate@@QAE@XZ  1006b2b0 f i rsrc.obj
 0001:0006a2c0       ?update@ResourceUpdate@@QAEXPB_W0GPBEK@Z 1006b2c0 f i rsrc.obj
 0001:0006a320       ?finalize@ResourceUpdate@@QAEXXZ 1006b320 f i rsrc.obj
 0001:0006a380       ?replace_icon@@YAXABV?$basic_string@_WU?$char_traits@_W@std@@V?$allocator@_W@2@@std@@0@Z 1006b380 f   rsrc.obj
 0001:0006ad10       ?encode_WORD@VersionEncoder@@QAEXG@Z 1006bd10 f i rsrc.obj
 0001:0006ad30       ?pad@VersionEncoder@@QAEXXZ 1006bd30 f i rsrc.obj
 0001:0006ad60       ?replace_ver_info@@YAXABV?$basic_string@_WU?$char_traits@_W@std@@V?$allocator@_W@2@@std@@ABUSfxVersionInfo@@@Z 1006bd60 f   rsrc.obj
 0001:0006bd20       ??6?$basic_ostream@_WU?$char_traits@_W@std@@@std@@QAEAAV01@G@Z 1006cd20 f i rsrc.obj
 0001:0006be90       ??1?$list@UIdLang@@V?$allocator@UIdLang@@@std@@@std@@QAE@XZ 1006ce90 f i rsrc.obj
 0001:0006bf20       ??1?$list@UIconRsrc@@V?$allocator@UIconRsrc@@@std@@@std@@QAE@XZ 1006cf20 f i rsrc.obj
 0001:0006bf70       ??1?$list@VRsrcId@@V?$allocator@VRsrcId@@@std@@@std@@QAE@XZ 1006cf70 f i rsrc.obj
 0001:0006c000       ?push_back@?$list@UIconImageRsrc@@V?$allocator@UIconImageRsrc@@@std@@@std@@QAEXABUIconImageRsrc@@@Z 1006d000 f i rsrc.obj
 0001:0006c0d0       ??1?$list@UIconImageRsrc@@V?$allocator@UIconImageRsrc@@@std@@@std@@QAE@XZ 1006d0d0 f i rsrc.obj
 0001:0006c160       ??1?$list@UIconImage@@V?$allocator@UIconImage@@@std@@@std@@QAE@XZ 1006d160 f i rsrc.obj
 0001:0006c1f0       ?insert@?$vector@EV?$allocator@E@std@@@std@@QAE?AV?$_Vector_iterator@V?$_Vector_val@U?$_Simple_types@E@std@@@std@@@2@V?$_Vector_const_iterator@V?$_Vector_val@U?$_Simple_types@E@std@@@std@@@2@IABE@Z 1006d1f0 f i rsrc.obj
 0001:0006c3b0       ?_Change_array@?$vector@EV?$allocator@E@std@@@std@@AAEXQAEII@Z 1006d3b0 f i rsrc.obj
 0001:0006c410       ?_Reallocate_exactly@?$vector@EV?$allocator@E@std@@@std@@AAEXI@Z 1006d410 f i rsrc.obj
 0001:0006c9b0       ??$_Emplace@ABUIconRsrc@@@?$list@UIconRsrc@@V?$allocator@UIconRsrc@@@std@@@std@@QAEPAU?$_List_node@UIconRsrc@@PAX@1@QAU21@ABUIconRsrc@@@Z 1006d9b0 f i rsrc.obj
 0001:0006ca90       ??1?$_Alloc_construct_ptr@V?$allocator@U?$_List_node@VRsrcId@@PAX@std@@@std@@@std@@QAE@XZ 1006da90 f i rsrc.obj
 0001:0006cab0       ??$_Insert_range@PBE@?$vector@EV?$allocator@E@std@@@std@@AAEXV?$_Vector_const_iterator@V?$_Vector_val@U?$_Simple_types@E@std@@@std@@@1@PBE1Uforward_iterator_tag@1@@Z 1006dab0 f i rsrc.obj
 0001:0006cc40       ??$_Construct_range_unchecked@V?$_List_unchecked_const_iterator@V?$_List_val@U?$_List_simple_types@UIconImageRsrc@@@std@@@std@@U_Iterator_base0@2@@std@@@?$list@UIconImageRsrc@@V?$allocator@UIconImageRsrc@@@std@@@std@@AAEXV?$_List_unchecked_const_iterator@V?$_List_val@U?$_List_simple_types@UIconImageRsrc@@@std@@@std@@U_Iterator_base0@2@@1@0@Z 1006dc40 f i rsrc.obj
 0001:0006ce00       ??1?$_List_node_insert_op@V?$allocator@U?$_List_node@UIconImageRsrc@@PAX@std@@@std@@@std@@QAE@XZ 1006de00 f i rsrc.obj
 0001:0006ce80       ?dialog_proc@Dialog@Far@@MAEHHHPAX@Z 1006de80 f i farutils.obj
 0001:0006cea0       ?get_plugin_module_path@Far@@YA?AV?$basic_string@_WU?$char_traits@_W@std@@V?$allocator@_W@2@@std@@XZ 1006dea0 f   farutils.obj
 0001:0006cf80       ?get_msg@Far@@YA?AV?$basic_string@_WU?$char_traits@_W@std@@V?$allocator@_W@2@@std@@H@Z 1006df80 f   farutils.obj
 0001:0006cfd0       ?get_optimal_msg_width@Far@@YAIXZ 1006dfd0 f   farutils.obj
 0001:0006d010       ?message@Far@@YAHABU_GUID@@ABV?$basic_string@_WU?$char_traits@_W@std@@V?$allocator@_W@2@@std@@H_K@Z 1006e010 f   farutils.obj
 0001:0006d050       ?menu@Far@@YAHABU_GUID@@ABV?$basic_string@_WU?$char_traits@_W@std@@V?$allocator@_W@2@@std@@ABVMenuItems@1@PB_W@Z 1006e050 f   farutils.obj
 0001:0006d230       ?get_progress_bar_str@Far@@YA?AV?$basic_string@_WU?$char_traits@_W@std@@V?$allocator@_W@2@@std@@I_K0@Z 1006e230 f   farutils.obj
 0001:0006d350       ?post_macro@Far@@YA_NABV?$basic_string@_WU?$char_traits@_W@std@@V?$allocator@_W@2@@std@@@Z 1006e350 f   farutils.obj
 0001:0006d3d0       ?get_panel_info@Far@@YA_NPAXAAUPanelInfo@@@Z 1006e3d0 f   farutils.obj
 0001:0006d3f0       ?is_real_file_panel@Far@@YA_NABUPanelInfo@@@Z 1006e3f0 f   farutils.obj
 0001:0006d410       ?get_panel_dir@Far@@YA?AV?$basic_string@_WU?$char_traits@_W@std@@V?$allocator@_W@2@@std@@PAX@Z 1006e410 f   farutils.obj
 0001:0006d560       ?get_panel_item@Far@@YAXPAXW4FILE_CONTROL_COMMANDS@@IAAV?$Buffer@E@@@Z 1006e560 f   farutils.obj
 0001:0006d650       ?get_panel_item@Far@@YA?AUPanelItem@1@PAXW4FILE_CONTROL_COMMANDS@@I@Z 1006e650 f   farutils.obj
 0001:0006d7a0       ?error_dlg@Far@@YAXABV?$basic_string@_WU?$char_traits@_W@std@@V?$allocator@_W@2@@std@@ABUError@@@Z 1006e7a0 f   farutils.obj
 0001:0006dee0       ?info_dlg@Far@@YAXABU_GUID@@ABV?$basic_string@_WU?$char_traits@_W@std@@V?$allocator@_W@2@@std@@1@Z 1006eee0 f   farutils.obj
 0001:0006e040       ?input_dlg@Far@@YA_NABU_GUID@@ABV?$basic_string@_WU?$char_traits@_W@std@@V?$allocator@_W@2@@std@@1AAV34@_K@Z 1006f040 f   farutils.obj
 0001:0006e120       ?get_label_len@Dialog@Far@@IAEIABV?$basic_string@_WU?$char_traits@_W@std@@V?$allocator@_W@2@@std@@_K@Z 1006f120 f   farutils.obj
 0001:0006e170       ?frame@Dialog@Far@@AAEXABV?$basic_string@_WU?$char_traits@_W@std@@V?$allocator@_W@2@@std@@@Z 1006f170 f   farutils.obj
 0001:0006e230       ??0DialogItem@Far@@QAE@XZ  1006f230 f i farutils.obj
 0001:0006e2a0       ?internal_dialog_proc@Dialog@Far@@CGHPAXHH0@Z 1006f2a0 f   farutils.obj
 0001:0006e3b0       ??0Dialog@Far@@QAE@ABV?$basic_string@_WU?$char_traits@_W@std@@V?$allocator@_W@2@@std@@PBU_GUID@@IPB_W_K@Z 1006f3b0 f   farutils.obj
 0001:0006e460       ?separator@Dialog@Far@@QAEIXZ 1006f460 f   farutils.obj
 0001:0006e510       ?separator@Dialog@Far@@QAEIABV?$basic_string@_WU?$char_traits@_W@std@@V?$allocator@_W@2@@std@@@Z 1006f510 f   farutils.obj
 0001:0006e5f0       ?label@Dialog@Far@@QAEIABV?$basic_string@_WU?$char_traits@_W@std@@V?$allocator@_W@2@@std@@I_K@Z 1006f5f0 f   farutils.obj
 0001:0006e6f0       ?edit_box@Dialog@Far@@QAEIABV?$basic_string@_WU?$char_traits@_W@std@@V?$allocator@_W@2@@std@@I_K@Z 1006f6f0 f   farutils.obj
 0001:0006e7f0       ?history_edit_box@Dialog@Far@@QAEIABV?$basic_string@_WU?$char_traits@_W@std@@V?$allocator@_W@2@@std@@0I_K@Z 1006f7f0 f   farutils.obj
 0001:0006e860       ?pwd_edit_box@Dialog@Far@@QAEIABV?$basic_string@_WU?$char_traits@_W@std@@V?$allocator@_W@2@@std@@I_K@Z 1006f860 f   farutils.obj
 0001:0006e950       ?button@Dialog@Far@@QAEIABV?$basic_string@_WU?$char_traits@_W@std@@V?$allocator@_W@2@@std@@_K@Z 1006f950 f   farutils.obj
 0001:0006ea60       ?check_box@Dialog@Far@@QAEIABV?$basic_string@_WU?$char_traits@_W@std@@V?$allocator@_W@2@@std@@H_K@Z 1006fa60 f   farutils.obj
 0001:0006eb80       ?radio_button@Dialog@Far@@QAEIABV?$basic_string@_WU?$char_traits@_W@std@@V?$allocator@_W@2@@std@@_N_K@Z 1006fb80 f   farutils.obj
 0001:0006eca0       ?combo_box@Dialog@Far@@QAEIABV?$vector@V?$basic_string@_WU?$char_traits@_W@std@@V?$allocator@_W@2@@std@@V?$allocator@V?$basic_string@_WU?$char_traits@_W@std@@V?$allocator@_W@2@@std@@@2@@std@@II_K@Z 1006fca0 f   farutils.obj
 0001:0006ee60       ?show@Dialog@Far@@QAEHXZ   1006fe60 f   farutils.obj
 0001:0006f1c0       ?get_text@Dialog@Far@@QBE?AV?$basic_string@_WU?$char_traits@_W@std@@V?$allocator@_W@2@@std@@I@Z 100701c0 f   farutils.obj
 0001:0006f2a0       ?set_text@Dialog@Far@@QAEXIABV?$basic_string@_WU?$char_traits@_W@std@@V?$allocator@_W@2@@std@@@Z 100702a0 f   farutils.obj
 0001:0006f2d0       ?get_check@Dialog@Far@@QBE_NI@Z 100702d0 f   farutils.obj
 0001:0006f2f0       ?set_list_pos@Dialog@Far@@QAEXII@Z 100702f0 f   farutils.obj
 0001:0006f340       ?enable@Dialog@Far@@QAEXI_N@Z 10070340 f   farutils.obj
 0001:0006f360       ?get_absolute_path@Far@@YA?AV?$basic_string@_WU?$char_traits@_W@std@@V?$allocator@_W@2@@std@@ABV23@@Z 10070360 f   farutils.obj
 0001:0006f470       ?match_masks@Far@@YA_NABV?$basic_string@_WU?$char_traits@_W@std@@V?$allocator@_W@2@@std@@0@Z 10070470 f   farutils.obj
 0001:0006f4a0       ?panel_go_to_dir@Far@@YA_NPAXABV?$basic_string@_WU?$char_traits@_W@std@@V?$allocator@_W@2@@std@@@Z 100704a0 f   farutils.obj
 0001:0006f520       ?panel_go_to_file@Far@@YA_NPAXABV?$basic_string@_WU?$char_traits@_W@std@@V?$allocator@_W@2@@std@@@Z 10070520 f   farutils.obj
 0001:0006fab0       ?get_lang_id@Far@@YAKXZ    10070ab0 f   farutils.obj
 0001:0006fba0       ??1Settings@Far@@QAE@XZ    10070ba0 f   farutils.obj
 0001:0006fc00       ?create@Settings@Far@@QAE_N_N@Z 10070c00 f   farutils.obj
 0001:0006fcd0       ?set_dir@Settings@Far@@QAE_NABV?$basic_string@_WU?$char_traits@_W@std@@V?$allocator@_W@2@@std@@@Z 10070cd0 f   farutils.obj
 0001:0006fda0       ?list_dir@Settings@Far@@QAE_NAAV?$vector@V?$basic_string@_WU?$char_traits@_W@std@@V?$allocator@_W@2@@std@@V?$allocator@V?$basic_string@_WU?$char_traits@_W@std@@V?$allocator@_W@2@@std@@@2@@std@@@Z 10070da0 f   farutils.obj
 0001:0006ff90       ?get@Settings@Far@@QAE_NIPB_WAA_K@Z 10070f90 f   farutils.obj
 0001:00070000       ??1?$vector@UFarMenuItem@@V?$allocator@UFarMenuItem@@@std@@@std@@QAE@XZ 10071000 f i farutils.obj
 0001:00070060       ?_Reallocate_exactly@?$vector@UFarMenuItem@@V?$allocator@UFarMenuItem@@@std@@@std@@AAEXI@Z 10071060 f i farutils.obj
 0001:00070130       ?_Change_array@?$vector@UFarMenuItem@@V?$allocator@UFarMenuItem@@@std@@@std@@AAEXQAUFarMenuItem@@II@Z 10071130 f i farutils.obj
 0001:00070190       ??$_Emplace_reallocate@ABUFarMenuItem@@@?$vector@UFarMenuItem@@V?$allocator@UFarMenuItem@@@std@@@std@@QAEPAUFarMenuItem@@QAU2@ABU2@@Z 10071190 f i farutils.obj
 0001:00070270       ??$_Emplace_reallocate@ABUDialogItem@Far@@@?$vector@UDialogItem@Far@@V?$allocator@UDialogItem@Far@@@std@@@std@@QAEPAUDialogItem@Far@@QAU23@ABU23@@Z 10071270 f i farutils.obj
 0001:00070430       ?long_path@@YA?AV?$basic_string@_WU?$char_traits@_W@std@@V?$allocator@_W@2@@std@@ABV12@@Z 10071430 f   pathutils.obj
 0001:00070530       ?long_path_norm@@YA?AV?$basic_string@_WU?$char_traits@_W@std@@V?$allocator@_W@2@@std@@ABV12@@Z 10071530 f   pathutils.obj
 0001:000705f0       ?add_trailing_slash@@YA?AV?$basic_string@_WU?$char_traits@_W@std@@V?$allocator@_W@2@@std@@ABV12@@Z 100715f0 f   pathutils.obj
 0001:00070630       ?locate_path_root@@YAXABV?$basic_string@_WU?$char_traits@_W@std@@V?$allocator@_W@2@@std@@AAIAA_N@Z 10071630 f   pathutils.obj
 0001:00070720       ?extract_file_name@@YA?AV?$basic_string@_WU?$char_traits@_W@std@@V?$allocator@_W@2@@std@@ABV12@@Z 10071720 f   pathutils.obj
 0001:00070880       ?extract_file_path@@YA?AV?$basic_string@_WU?$char_traits@_W@std@@V?$allocator@_W@2@@std@@ABV12@@Z 10071880 f   pathutils.obj
 0001:00070a00       ?extract_file_ext@@YA?AV?$basic_string@_WU?$char_traits@_W@std@@V?$allocator@_W@2@@std@@ABV12@@Z 10071a00 f   pathutils.obj
 0001:00070af0       ?is_root_path@@YA_NABV?$basic_string@_WU?$char_traits@_W@std@@V?$allocator@_W@2@@std@@@Z 10071af0 f   pathutils.obj
 0001:00070b40       ?is_absolute_path@@YA_NABV?$basic_string@_WU?$char_traits@_W@std@@V?$allocator@_W@2@@std@@@Z 10071b40 f   pathutils.obj
 0001:00070c30       ?remove_path_root@@YA?AV?$basic_string@_WU?$char_traits@_W@std@@V?$allocator@_W@2@@std@@ABV12@@Z 10071c30 f   pathutils.obj
 0001:00070d30       ?correct_filename@@YA?AV?$basic_string@_WU?$char_traits@_W@std@@V?$allocator@_W@2@@std@@ABV12@H_N@Z 10071d30 f   pathutils.obj
 0001:00071190       ?substr_match@@YA_NABV?$basic_string@_WU?$char_traits@_W@std@@V?$allocator@_W@2@@std@@IPB_W@Z 10072190 f   strutils.obj
 0001:00071210       ?word_wrap@@YA?AV?$basic_string@_WU?$char_traits@_W@std@@V?$allocator@_W@2@@std@@ABV12@I@Z 10072210 f   strutils.obj
 0001:00071620       ?strip@@YA?AV?$basic_string@_WU?$char_traits@_W@std@@V?$allocator@_W@2@@std@@ABV12@@Z 10072620 f   strutils.obj
 0001:000716d0       ?int_to_str@@YA?AV?$basic_string@_WU?$char_traits@_W@std@@V?$allocator@_W@2@@std@@H@Z 100726d0 f   strutils.obj
 0001:00071760       ?str_to_uint@@YA_KABV?$basic_string@_WU?$char_traits@_W@std@@V?$allocator@_W@2@@std@@@Z 10072760 f   strutils.obj
 0001:000717f0       ?uint_to_str@@YA?AV?$basic_string@_WU?$char_traits@_W@std@@V?$allocator@_W@2@@std@@_K@Z 100727f0 f   strutils.obj
 0001:00071920       ?split@@YA?AV?$list@V?$basic_string@_WU?$char_traits@_W@std@@V?$allocator@_W@2@@std@@V?$allocator@V?$basic_string@_WU?$char_traits@_W@std@@V?$allocator@_W@2@@std@@@2@@std@@ABV?$basic_string@_WU?$char_traits@_W@std@@V?$allocator@_W@2@@2@_W@Z 10072920 f   strutils.obj
 0001:00071b20       ?format_data_size@@YA?AV?$basic_string@_WU?$char_traits@_W@std@@V?$allocator@_W@2@@std@@_KQAPB_W@Z 10072b20 f   strutils.obj
 0001:00072280       ?unquote@@YA?AV?$basic_string@_WU?$char_traits@_W@std@@V?$allocator@_W@2@@std@@ABV12@@Z 10073280 f   strutils.obj
 0001:000722e0       ?search_and_replace@@YA?AV?$basic_string@_WU?$char_traits@_W@std@@V?$allocator@_W@2@@std@@ABV12@00@Z 100732e0 f   strutils.obj
 0001:00072580       ??0Error@@QAE@JABV?$basic_string@_WU?$char_traits@_W@std@@V?$allocator@_W@2@@std@@PBDH@Z 10073580 f i sysutils.obj
 0001:00072670       ??_ECriticalSection@@UAEPAXI@Z 10073670 f i * CIL library *:* CIL module *
 0001:00072670       ??_GCriticalSection@@UAEPAXI@Z 10073670 f i sysutils.obj
 0001:000726a0       ?get_system_message@@YA?AV?$basic_string@_WU?$char_traits@_W@std@@V?$allocator@_W@2@@std@@JK@Z 100736a0 f   sysutils.obj
 0001:00072a10       ?ansi_to_unicode@@YA?AV?$basic_string@_WU?$char_traits@_W@std@@V?$allocator@_W@2@@std@@ABV?$basic_string@DU?$char_traits@D@std@@V?$allocator@D@2@@2@I@Z 10073a10 f   sysutils.obj
 0001:00072b40       ?expand_env_vars@@YA?AV?$basic_string@_WU?$char_traits@_W@std@@V?$allocator@_W@2@@std@@ABV12@@Z 10073b40 f   sysutils.obj
 0001:00072c60       ??1File@@QAE@XZ            10073c60 f   sysutils.obj
 0001:00072cd0       ?open@File@@QAEXABV?$basic_string@_WU?$char_traits@_W@std@@V?$allocator@_W@2@@std@@KKKK@Z 10073cd0 f   sysutils.obj
 0001:00072d30       ?open_nt@File@@QAE_NABV?$basic_string@_WU?$char_traits@_W@std@@V?$allocator@_W@2@@std@@KKKK@Z 10073d30 f   sysutils.obj
 0001:00072e40       ?size@File@@QAE_KXZ        10073e40 f   sysutils.obj
 0001:00072eb0       ?read@File@@QAEIPAXI@Z     10073eb0 f   sysutils.obj
 0001:00072f20       ?read_nt@File@@QAE_NPAXIAAI@Z 10073f20 f   sysutils.obj
 0001:00072f60       ?write@File@@QAEIPBXI@Z    10073f60 f   sysutils.obj
 0001:00072fd0       ?set_pos@File@@QAE_K_JK@Z  10073fd0 f   sysutils.obj
 0001:00073040       ?set_end@File@@QAEXXZ      10074040 f   sysutils.obj
 0001:00073090       ?exists@File@@SA_NABV?$basic_string@_WU?$char_traits@_W@std@@V?$allocator@_W@2@@std@@@Z 10074090 f   sysutils.obj
 0001:00073130       ?set_attr@File@@SAXABV?$basic_string@_WU?$char_traits@_W@std@@V?$allocator@_W@2@@std@@K@Z 10074130 f   sysutils.obj
 0001:00073210       ?set_attr_nt@File@@SA_NABV?$basic_string@_WU?$char_traits@_W@std@@V?$allocator@_W@2@@std@@K@Z 10074210 f   sysutils.obj
 0001:000732b0       ?delete_file@File@@SAXABV?$basic_string@_WU?$char_traits@_W@std@@V?$allocator@_W@2@@std@@@Z 100742b0 f   sysutils.obj
 0001:00073390       ?delete_file_nt@File@@SA_NABV?$basic_string@_WU?$char_traits@_W@std@@V?$allocator@_W@2@@std@@@Z 10074390 f   sysutils.obj
 0001:00073430       ?create_dir_nt@File@@SA_NABV?$basic_string@_WU?$char_traits@_W@std@@V?$allocator@_W@2@@std@@@Z 10074430 f   sysutils.obj
 0001:000734d0       ?remove_dir@File@@SAXABV?$basic_string@_WU?$char_traits@_W@std@@V?$allocator@_W@2@@std@@@Z 100744d0 f   sysutils.obj
 0001:000735b0       ?move_file@File@@SAXABV?$basic_string@_WU?$char_traits@_W@std@@V?$allocator@_W@2@@std@@0K@Z 100745b0 f   sysutils.obj
 0001:000736d0       ?get_find_data@File@@SA?AUFindData@@ABV?$basic_string@_WU?$char_traits@_W@std@@V?$allocator@_W@2@@std@@@Z 100746d0 f   sysutils.obj
 0001:00073730       ?get_find_data_nt@File@@SA_NABV?$basic_string@_WU?$char_traits@_W@std@@V?$allocator@_W@2@@std@@AAUFindData@@@Z 10074730 f   sysutils.obj
 0001:00073800       ??1Key@@QAE@XZ             10074800 f   sysutils.obj
 0001:00073820       ?query_str_nt@Key@@QAE_NAAV?$basic_string@_WU?$char_traits@_W@std@@V?$allocator@_W@2@@std@@PB_W@Z 10074820 f   sysutils.obj
 0001:00073920       ??1FileEnum@@QAE@XZ        10074920 f   sysutils.obj
 0001:000739d0       ?next@FileEnum@@QAE_NXZ    100749d0 f   sysutils.obj
 0001:00073b80       ?next_nt@FileEnum@@QAE_NAA_N@Z 10074b80 f   sysutils.obj
 0001:00074010       ??0DirList@@QAE@ABV?$basic_string@_WU?$char_traits@_W@std@@V?$allocator@_W@2@@std@@@Z 10075010 f   sysutils.obj
 0001:00074190       ??0TempFile@@QAE@XZ        10075190 f   sysutils.obj
 0001:000743c0       ??1TempFile@@QAE@XZ        100753c0 f   sysutils.obj
 0001:00074430       ?format_file_time@@YA?AV?$basic_string@_WU?$char_traits@_W@std@@V?$allocator@_W@2@@std@@ABU_FILETIME@@@Z 10075430 f   sysutils.obj
 0001:00074610       ?upcase@@YA?AV?$basic_string@_WU?$char_traits@_W@std@@V?$allocator@_W@2@@std@@ABV12@@Z 10075610 f   sysutils.obj
 0001:000746d0       ??6?$basic_ostream@_WU?$char_traits@_W@std@@@std@@QAEAAV01@J@Z 100756d0 f i sysutils.obj
 0001:00074850       ??1?$_Alloc_construct_ptr@V?$allocator@U?$_List_node@UFindData@@PAX@std@@@std@@@std@@QAE@XZ 10075850 f i sysutils.obj
 0001:00074870       ?GetOEMCP@patched@@SGIXZ   10075870 f i Patch7zCP.obj
 0001:00074880       ?GetACP@patched@@SGIXZ     10075880 f i Patch7zCP.obj
 0001:00074890       ?MultiByteToWideChar@patched@@SGHIKPBDHPA_WH@Z 10075890 f i Patch7zCP.obj
 0001:000748c0       ?WideCharToMultiByte@patched@@SGHIKPB_WHPADHPBDPAH@Z 100758c0 f i Patch7zCP.obj
 0001:00074af0       ?SetCP@Patch7zCP@@SAXII@Z  10075af0 f   Patch7zCP.obj
 0001:00074bb0       ??0ParseException@SimpleXML@@QAE@W4parseRet@1@PBD@Z 10075bb0 f i SimpleXML.obj
 0001:00074bd0       ?ensure_next@View@SimpleXML@@QAEXABVstr_view@2@@Z 10075bd0 f i SimpleXML.obj
 0001:00074c40       ?skip_name@View@SimpleXML@@QAEDH@Z 10075c40 f i SimpleXML.obj
 0001:00074d10       ?find_tag_end@View@SimpleXML@@QAEDXZ 10075d10 f i SimpleXML.obj
 0001:00074db0       ?parse@SimpleXML@@YA?AW4parseRet@1@PBDIPBVIParseCallback@1@@Z 10075db0 f   SimpleXML.obj
 0001:000757b0       _EncodePointerWrapper@4    100767b0 f   vc_crt_fix_impl.obj
 0001:00075810       _DecodePointerWrapper@4    10076810 f   vc_crt_fix_impl.obj
 0001:00075860       _GetModuleHandleExWWrapper@12 10076860 f   vc_crt_fix_impl.obj
 0001:00075b90       _InitializeSListHeadWrapper@4 10076b90 f   vc_crt_fix_impl.obj
 0001:00075be0       _InterlockedFlushSListWrapper@4 10076be0 f   vc_crt_fix_impl.obj
 0001:00075c30       _InterlockedPopEntrySListWrapper@4 10076c30 f   vc_crt_fix_impl.obj
 0001:00075c80       _InterlockedPushEntrySListWrapper@8 10076c80 f   vc_crt_fix_impl.obj
 0001:00075cd0       _InterlockedPushListSListExWrapper@16 10076cd0 f   vc_crt_fix_impl.obj
 0001:00075d20       _RtlFirstEntrySListWrapper@4 10076d20 f   vc_crt_fix_impl.obj
 0001:00075d70       _QueryDepthSListWrapper@4  10076d70 f   vc_crt_fix_impl.obj
 0001:00075dc0       _GetNumaHighestNodeNumberWrapper@4 10076dc0 f   vc_crt_fix_impl.obj
 0001:00075e30       _GetLogicalProcessorInformationWrapper@8 10076e30 f   vc_crt_fix_impl.obj
 0001:00075e90       _SetThreadStackGuaranteeWrapper@4 10076e90 f   vc_crt_fix_impl.obj
 0001:00075ef0       ??0bad_alloc@std@@QAE@XZ   10076ef0 f i libcpmt:xthrow.obj
 0001:00075f08       ??0length_error@std@@QAE@ABV01@@Z 10076f08 f i libcpmt:xthrow.obj
 0001:00075f23       ??0length_error@std@@QAE@PBD@Z 10076f23 f i libcpmt:xthrow.obj
 0001:00075f42       ??0logic_error@std@@QAE@ABV01@@Z 10076f42 f i libcpmt:xthrow.obj
 0001:00075f5d       ??0out_of_range@std@@QAE@ABV01@@Z 10076f5d f i libcpmt:xthrow.obj
 0001:00075f78       ??0out_of_range@std@@QAE@PBD@Z 10076f78 f i libcpmt:xthrow.obj
 0001:00075f97       ??0runtime_error@std@@QAE@PBD@Z 10076f97 f i libcpmt:xthrow.obj
 0001:00075fb6       ??_G__non_rtti_object@std@@UAEPAXI@Z 10076fb6 f i libvcruntime:rtti.obj
 0001:00075fb6       ??_Glogic_error@std@@UAEPAXI@Z 10076fb6 f i libcpmt:xthrow.obj
 0001:00075fb6       ??_E__non_rtti_object@std@@UAEPAXI@Z 10076fb6 f i libvcruntime:rtti.obj
 0001:00075fb6       ??_Eout_of_range@std@@UAEPAXI@Z 10076fb6 f i libcpmt:xthrow.obj
 0001:00075fb6       ??_Gbad_typeid@std@@UAEPAXI@Z 10076fb6 f i libvcruntime:rtti.obj
 0001:00075fb6       ??_Elogic_error@std@@UAEPAXI@Z 10076fb6 f i libcpmt:xthrow.obj
 0001:00075fb6       ??_Elength_error@std@@UAEPAXI@Z 10076fb6 f i libcpmt:xthrow.obj
 0001:00075fb6       ??_Gbad_exception@std@@UAEPAXI@Z 10076fb6 f i libvcruntime:frame.obj
 0001:00075fb6       ??_Ebad_typeid@std@@UAEPAXI@Z 10076fb6 f i libvcruntime:rtti.obj
 0001:00075fb6       ??_Glength_error@std@@UAEPAXI@Z 10076fb6 f i libcpmt:xthrow.obj
 0001:00075fb6       ??_Ebad_exception@std@@UAEPAXI@Z 10076fb6 f i libvcruntime:frame.obj
 0001:00075fb6       ??_Gout_of_range@std@@UAEPAXI@Z 10076fb6 f i libcpmt:xthrow.obj
 0001:00075fe3       ?__scrt_throw_std_bad_alloc@@YAXXZ 10076fe3 f   LIBCMT:throw_bad_alloc.obj
 0001:00075fe3       ?_Xbad_alloc@std@@YAXXZ    10076fe3 f   libcpmt:xthrow.obj
 0001:00076000       ?_Xlength_error@std@@YAXPBD@Z 10077000 f   libcpmt:xthrow.obj
 0001:00076020       ?_Xout_of_range@std@@YAXPBD@Z 10077020 f   libcpmt:xthrow.obj
 0001:00076040       ?_Xruntime_error@std@@YAXPBD@Z 10077040 f   libcpmt:xthrow.obj
 0001:00076060       ?_Callfns@ios_base@std@@AAEXW4event@12@@Z 10077060 f i libcpmt:ios.obj
 0001:00076093       ?_Ios_base_dtor@ios_base@std@@CAXPAV12@@Z 10077093 f   libcpmt:ios.obj
 0001:000760d3       ?_Tidy@ios_base@std@@AAEXXZ 100770d3 f i libcpmt:ios.obj
 0001:00076149       ?uncaught_exception@std@@YA_NXZ 10077149 f   libcpmt:uncaught_exception.obj
 0001:0007614e       __Mbrtowc                  1007714e f   libcpmt:xmbtowc.obj
 0001:000762d7       ??0_Locimp@locale@std@@AAE@_N@Z 100772d7 f i libcpmt:locale0.obj
 0001:00076318       ??1_Fac_node@std@@QAE@XZ   10077318 f i libcpmt:locale0.obj
 0001:00076349       ??1_Fac_tidy_reg_t@std@@QAE@XZ 10077349 f i libcpmt:locale0.obj
 0001:00076370       ??1_Locimp@locale@std@@MAE@XZ 10077370 f i libcpmt:locale0.obj
 0001:0007639b       ??4?$_Yarn@D@std@@QAEAAV01@PBD@Z 1007739b f i libcpmt:locale0.obj
 0001:000763ef       ??_G_Locimp@locale@std@@MAEPAXI@Z 100773ef f i libcpmt:locale0.obj
 0001:000763ef       ??_E_Locimp@locale@std@@MAEPAXI@Z 100773ef f i libcpmt:locale0.obj
 0001:00076411       ?_Facet_Register@std@@YAXPAV_Facet_base@1@@Z 10077411 f   libcpmt:locale0.obj
 0001:0007643d       ?_Getgloballocale@locale@std@@CAPAV_Locimp@12@XZ 1007743d f   libcpmt:locale0.obj
 0001:00076443       ?_Init@locale@std@@CAPAV_Locimp@12@_N@Z 10077443 f   libcpmt:locale0.obj
 0001:000764d3       ?_Locimp_dtor@_Locimp@locale@std@@CAXPAV123@@Z 100774d3 f   libcpmt:locale0.obj
 0001:00076543       ?_Locinfo_ctor@_Locinfo@std@@SAXPAV12@PBD@Z 10077543 f   libcpmt:locale0.obj
 0001:0007658e       ?_Locinfo_dtor@_Locinfo@std@@SAXPAV12@@Z 1007758e f   libcpmt:locale0.obj
 0001:000765a8       ?_New_Locimp@_Locimp@locale@std@@CAPAV123@_N@Z 100775a8 f   libcpmt:locale0.obj
 0001:000765cb       ?_Setgloballocale@locale@std@@CAXPAX@Z 100775cb f   libcpmt:locale0.obj
 0001:000765f3       __Deletegloballocale       100775f3 f   libcpmt:locale0.obj
 0001:00076658       ?_Syserror_map@std@@YAPBDH@Z 10077658 f   libcpmt:syserror.obj
 0001:0007667d       ?_Execute_once@std@@YAHAAUonce_flag@1@P6GHPAX1PAPAX@Z1@Z 1007767d f   libcpmt:xonce.obj
 0001:00076695       ??0_Init_locks@std@@QAE@XZ 10077695 f   libcpmt:xlock.obj
 0001:000766c2       ??0_Lockit@std@@QAE@H@Z    100776c2 f   libcpmt:xlock.obj
 0001:000766f3       ??1_Init_locks@std@@QAE@XZ 100776f3 f   libcpmt:xlock.obj
 0001:0007671a       ??1_Lockit@std@@QAE@XZ     1007771a f   libcpmt:xlock.obj
 0001:00076739       __Getcvt                   10077739 f   libcpmt:xwctomb.obj
 0001:000767ac       __Wcrtomb                  100777ac f   libcpmt:xwctomb.obj
 0001:00076808       __Getctype                 10077808 f   libcpmt:_tolower.obj
 0001:00076873       __Towupper                 10077873 f   libcpmt:xtowupper.obj
 0001:000768d7       __Towlower                 100778d7 f   libcpmt:xtowlower.obj
 0001:00076937       __Getwctype                10077937 f   libcpmt:xgetwctype.obj
 0001:00076957       __Getwctypes               10077957 f   libcpmt:xgetwctype.obj
 0001:00076976       ?setw@std@@YA?AU?$_Smanip@_J@1@_J@Z 10077976 f   libcpmt:iomanip.obj
 0001:000769a4       ??1_Init_atexit@@QAE@XZ    100779a4 f i libcpmt:iosptrs.obj
 0001:00076a07       ?_Atexit@@YAXP6AXXZ@Z      10077a07 f   libcpmt:iosptrs.obj
 0001:00076cf0       ___crtInitOnceExecuteOnce  10077cf0 f   libcpmt:winapisupp.obj
 0001:00076d7a       ___crtInitializeCriticalSectionEx 10077d7a f   libcpmt:winapisupp.obj
 0001:00076daf       __Mtxdst                   10077daf f   libcpmt:xmtx.obj
 0001:00076dbd       __Mtxinit                  10077dbd f   libcpmt:xmtx.obj
 0001:00076dd4       __Mtxlock                  10077dd4 f   libcpmt:xmtx.obj
 0001:00076de2       __Mtxunlock                10077de2 f   libcpmt:xmtx.obj
 0001:00076df0       __freea_crt                10077df0 f i libcpmt:StlLCMapStringA.obj
 0001:00076e0e       ___crtLCMapStringW         10077e0e f   libcpmt:StlLCMapStringW.obj
 0001:00076e48       _GetTableIndexFromLocaleName 10077e48 f   libcpmt:winapinls.obj
 0001:00076e96       ___crtDownlevelLocaleNameToLCID 10077e96 f   libcpmt:winapinls.obj
 0001:00076ec0       ___crtLCMapStringEx        10077ec0 f   libcpmt:winapinls.obj
 0001:00076f13       ___wcsnicmp_ascii          10077f13 f   libcpmt:winapinls.obj
 0001:00076f7b       @__security_check_cookie@4 10077f7b f   LIBCMT:secchk.obj
 0001:00076f8c       ??3@YAXPAXI@Z              10077f8c f   LIBCMT:delete_scalar_size.obj
 0001:00076f9a       ??_M@YGXPAXIIP6EX0@Z@Z     10077f9a f   LIBCMT:ehvecdtr.obj
 0001:0007701f       ?__ArrayUnwind@@YGXPAXIIP6EX0@Z@Z 1007801f f   LIBCMT:ehvecdtr.obj
 0001:000770af       ??2@YAPAXI@Z               100780af f   LIBCMT:new_scalar.obj
 0001:000770df       ??_Gtype_info@@UAEPAXI@Z   100780df f i LIBCMT:std_type_info_static.obj
 0001:000770df       ??_Etype_info@@UAEPAXI@Z   100780df f i LIBCMT:std_type_info_static.obj
 0001:00077146       ___scrt_acquire_startup_lock 10078146 f   LIBCMT:utility.obj
 0001:00077178       ___scrt_dllmain_after_initialize_c 10078178 f   LIBCMT:utility.obj
 0001:000771a3       ___scrt_dllmain_before_initialize_c 100781a3 f   LIBCMT:utility.obj
 0001:000771b1       ___scrt_dllmain_crt_thread_attach 100781b1 f   LIBCMT:utility.obj
 0001:000771d0       ___scrt_dllmain_crt_thread_detach 100781d0 f   LIBCMT:utility.obj
 0001:000771dd       ___scrt_dllmain_exception_filter 100781dd f   LIBCMT:utility.obj
 0001:00077211       ___scrt_dllmain_uninitialize_c 10078211 f   LIBCMT:utility.obj
 0001:00077234       ___scrt_dllmain_uninitialize_critical 10078234 f   LIBCMT:utility.obj
 0001:00077241       ___scrt_initialize_crt     10078241 f   LIBCMT:utility.obj
 0001:0007727a       ___scrt_initialize_onexit_tables 1007827a f   LIBCMT:utility.obj
 0001:00077301       ___scrt_is_nonwritable_in_current_image 10078301 f   LIBCMT:utility.obj
 0001:00077395       ___scrt_release_startup_lock 10078395 f   LIBCMT:utility.obj
 0001:000773b2       ___scrt_uninitialize_crt   100783b2 f   LIBCMT:utility.obj
 0001:000773da       __onexit                   100783da f   LIBCMT:utility.obj
 0001:00077407       _atexit                    10078407 f   LIBCMT:utility.obj
 0001:0007741c       ??_V@YAXPAX@Z              1007841c f   LIBCMT:delete_array.obj
 0001:00077421       ??_U@YAPAXI@Z              10078421 f   LIBCMT:new_array.obj
 0001:0007742a       ?__scrt_initialize_type_info@@YAXXZ 1007842a f   LIBCMT:tncleanup.obj
 0001:00077436       ?__scrt_uninitialize_type_info@@YAXXZ 10078436 f   LIBCMT:tncleanup.obj
 0001:00077442       ??_L@YGXPAXIIP6EX0@Z1@Z    10078442 f   LIBCMT:ehvecctr.obj
 0001:000777f1       __DllMainCRTStartup@12     100787f1 f   LIBCMT:dll_dllmain.obj
 0001:00077814       __EH_epilog3               10078814 f   LIBCMT:ehprolg3.obj
 0001:00077829       __EH_epilog3_GS            10078829 f   LIBCMT:ehprolg3.obj
 0001:0007783a       __EH_prolog3               1007883a f   LIBCMT:ehprolg3.obj
 0001:0007786e       __EH_prolog3_GS            1007886e f   LIBCMT:ehprolg3.obj
 0001:000778a5       __EH_prolog3_catch         100788a5 f   LIBCMT:ehprolg3.obj
 0001:000778e0       __alloca_probe_16          100788e0 f   LIBCMT:alloca16.obj
 0001:000778f6       __alloca_probe_8           100788f6     LIBCMT:alloca16.obj
 0001:00077910       __allmul                   10078910 f   LIBCMT:llmul.obj
 0001:00077950       __aulldiv                  10078950 f   LIBCMT:ulldiv.obj
 0001:000779b8       ___raise_securityfailure   100789b8 f   LIBCMT:gs_report.obj
 0001:000779e0       ___report_gsfailure        100789e0 f   LIBCMT:gs_report.obj
 0001:00077ad9       ___report_rangecheckfailure 10078ad9 f   LIBCMT:gs_report.obj
 0001:00077ae5       ___report_securityfailure  10078ae5 f   LIBCMT:gs_report.obj
 0001:00077bb3       ??3@YAXPAX@Z               10078bb3 f   LIBCMT:delete_scalar.obj
 0001:00077bc0       __SEH_prolog4              10078bc0 f   LIBCMT:sehprolg4.obj
 0001:00077c06       __SEH_epilog4              10078c06 f   LIBCMT:sehprolg4.obj
 0001:00077c1b       ?__scrt_throw_std_bad_array_new_length@@YAXXZ 10078c1b f   LIBCMT:throw_bad_alloc.obj
 0001:00077c38       ___isa_available_init      10078c38 f   LIBCMT:cpu_disp.obj
 0001:00077e08       ?length@charNode@@UBEHXZ   10078e08 f   libvcruntime:undname.obj
 0001:00077e08       ?raw_length@charNode@@UBEHXZ 10078e08 f   libvcruntime:undname.obj
 0001:00077e08       __get_startup_argv_mode    10078e08 f   LIBCMT:argv_mode.obj
 0001:00077e0c       ___scrt_is_ucrt_dll_in_use 10078e0c f   LIBCMT:ucrt_detection.obj
 0001:00077e18       ___scrt_fastfail           10078e18 f   LIBCMT:utility_desktop.obj
 0001:00077f32       __crt_debugger_hook        10078f32 f   LIBCMT:utility_desktop.obj
 0001:00077f87       ___security_init_cookie    10078f87 f   LIBCMT:gs_support.obj
 0001:00077fd2       _DllMain@12                10078fd2 f   LIBCMT:dll_dllmain_stub.obj
 0001:00077fd8       ___local_stdio_scanf_options 10078fd8 f i LIBCMT:default_local_stdio_options.obj
 0001:00077fde       ___scrt_initialize_default_local_stdio_options 10078fde f   LIBCMT:default_local_stdio_options.obj
 0001:00077ffb       ___scrt_get_dyn_tls_init_callback 10078ffb f   LIBCMT:dyn_tls_init.obj
 0001:00078001       __RTC_Initialize           10079001 f   LIBCMT:initsect.obj
 0001:0007802d       __RTC_Terminate            1007902d f   LIBCMT:initsect.obj
 0001:00078060       __chkstk                   10079060 f   LIBCMT:chkstk.obj
 0001:00078060       __alloca_probe             10079060 f   LIBCMT:chkstk.obj
 0001:0007808d       _IsProcessorFeaturePresent@4 1007908d f   kernel32:KERNEL32.dll
 0001:00078093       ?GetRangeOfTrysToCheck@__FrameHandler3@@SA?AU?$pair@Viterator@TryBlockMap@__FrameHandler3@@V123@@std@@AAVTryBlockMap@1@HPAXPBU_s_FuncInfo@@H@Z 10079093 f   libvcruntime:trnsctrl.obj
 0001:00078103       ?_CallCatchBlock2@@YAPAXPAUEHRegistrationNode@@PBU_s_FuncInfo@@PAXHK@Z 10079103 f   libvcruntime:trnsctrl.obj
 0001:00078161       ?_CallSETranslator@@YAHPAUEHExceptionRecord@@PAUEHRegistrationNode@@PAX2PBU_s_FuncInfo@@H1@Z 10079161 f   libvcruntime:trnsctrl.obj
 0001:00078247       ?_JumpToContinuation@@YGXPAXPAUEHRegistrationNode@@@Z 10079247 f   libvcruntime:trnsctrl.obj
 0001:00078277       ?_UnwindNestedFrames@@YGXPAUEHRegistrationNode@@PAUEHExceptionRecord@@@Z 10079277 f   libvcruntime:trnsctrl.obj
 0001:000782ca       __CatchGuardHandler        100792ca f   libvcruntime:trnsctrl.obj
 0001:000782fb       __CreateFrameInfo          100792fb f   libvcruntime:trnsctrl.obj
 0001:0007831f       __FindAndUnlinkFrame       1007931f f   libvcruntime:trnsctrl.obj
 0001:00078367       __TranslatorGuardHandler   10079367 f   libvcruntime:trnsctrl.obj
 0001:00078404       ___CxxFrameHandler3        10079404 f   libvcruntime:trnsctrl.obj
 0001:0007843a       ___DestructExceptionObject 1007943a f   libvcruntime:ehhelpers.obj
 0001:000784db       ?_CallMemberFunction0@@YGXQAX0@Z 100794db f i libvcruntime:ehhelpers.obj
 0001:00078540       __IsExceptionObjectToBeDestroyed 10079540 f   libvcruntime:ehhelpers.obj
 0001:00078566       ___AdjustPointer           10079566 f   libvcruntime:ehhelpers.obj
 0001:0007858b       ___FrameUnwindFilter       1007958b f   libvcruntime:ehhelpers.obj
 0001:000785e1       ___current_exception       100795e1 f   libvcruntime:ehhelpers.obj
 0001:000785ea       ___current_exception_context 100795ea f   libvcruntime:ehhelpers.obj
 0001:000785f3       ___std_terminate           100795f3 f   libvcruntime:ehhelpers.obj
 0001:000785f8       ___std_exception_copy      100795f8 f   libvcruntime:std_exception.obj
 0001:0007865b       ___std_exception_destroy   1007965b f   libvcruntime:std_exception.obj
 0001:0007867a       __get_purecall_handler     1007967a f   libvcruntime:purevirt.obj
 0001:00078680       __purecall                 10079680 f   libvcruntime:purevirt.obj
 0001:000786a5       ___std_type_info_compare   100796a5 f   libvcruntime:std_type_info.obj
 0001:000786e1       ___std_type_info_destroy_list 100796e1 f   libvcruntime:std_type_info.obj
 0001:00078704       ___std_type_info_name      10079704 f   libvcruntime:std_type_info.obj
 0001:000787c9       ??0__non_rtti_object@std@@QAE@ABV01@@Z 100797c9 f i libvcruntime:rtti.obj
 0001:000787e4       ??0bad_typeid@std@@QAE@ABV01@@Z 100797e4 f i libvcruntime:rtti.obj
 0001:000787ff       ?__construct_from_string_literal@__non_rtti_object@std@@SA?AV12@QBD@Z 100797ff f i libvcruntime:rtti.obj
 0001:0007881b       ?__construct_from_string_literal@bad_typeid@std@@SA?AV12@QBD@Z 1007981b f i libvcruntime:rtti.obj
 0001:00078837       ___RTtypeid                10079837 f   libvcruntime:rtti.obj
 0001:000788c4       _wcschr                    100798c4 f   libvcruntime:wcschr.obj
 0001:0007898b       _wcsrchr                   1007998b f   libvcruntime:wcsrchr.obj
 0001:00078a2d       __CxxThrowException@8      10079a2d f   libvcruntime:throw.obj
 0001:00078a99       ___uncaught_exception      10079a99 f   libvcruntime:uncaught_exception.obj
 0001:00078ab0       _memcpy                    10079ab0 f   libvcruntime:memcpy.obj
 0001:00079030       _memmove                   1007a030 f   libvcruntime:memmove.obj
 0001:000795b0       _memset                    1007a5b0 f   libvcruntime:memset.obj
 0001:00079710       _memchr                    1007a710 f   libvcruntime:memchr.obj
 0001:000797bd       _memcmp                    1007a7bd f   libvcruntime:memcmp.obj
 0001:0007a7b0       __except_handler4          1007b7b0 f   libvcruntime:chandler4.obj
 0001:0007a90e       ___vcrt_initialize         1007b90e f   libvcruntime:initialization.obj
 0001:0007a92d       ___vcrt_thread_attach      1007b92d f   libvcruntime:initialization.obj
 0001:0007a938       ___vcrt_thread_detach      1007b938 f   libvcruntime:initialization.obj
 0001:0007a943       ___vcrt_uninitialize       1007b943 f   libvcruntime:initialization.obj
 0001:0007a95a       ___vcrt_uninitialize_critical 1007b95a f   libvcruntime:initialization.obj
 0001:0007a962       ___vcrt_freefls@4          1007b962 f   libvcruntime:per_thread_data.obj
 0001:0007a97e       ___vcrt_freeptd            1007b97e f   libvcruntime:per_thread_data.obj
 0001:0007a9b4       ___vcrt_getptd             1007b9b4 f   libvcruntime:per_thread_data.obj
 0001:0007a9c2       ___vcrt_getptd_noexit      1007b9c2 f   libvcruntime:per_thread_data.obj
 0001:0007aa54       ___vcrt_getptd_noinit      1007ba54 f   libvcruntime:per_thread_data.obj
 0001:0007aa8b       ___vcrt_initialize_ptd     1007ba8b f   libvcruntime:per_thread_data.obj
 0001:0007aabe       ___vcrt_uninitialize_ptd   1007babe f   libvcruntime:per_thread_data.obj
 0001:0007b21c       ??$TypeMatchHelper@V__FrameHandler3@@@@YAHPBU_s_HandlerType@@PBU_s_CatchableType@@PBU_s_ThrowInfo@@@Z 1007c21c f i libvcruntime:frame.obj
 0001:0007b2aa       ??$__InternalCxxFrameHandler@V__FrameHandler3@@@@YA?AW4_EXCEPTION_DISPOSITION@@PAUEHExceptionRecord@@PAUEHRegistrationNode@@PAU_CONTEXT@@PAXPBU_s_FuncInfo@@H1E@Z 1007c2aa f i libvcruntime:frame.obj
 0001:0007b3ac       ??0bad_exception@std@@QAE@ABV01@@Z 1007c3ac f i libvcruntime:frame.obj
 0001:0007b3c7       ??0bad_exception@std@@QAE@XZ 1007c3c7 f i libvcruntime:frame.obj
 0001:0007b627       ?FrameUnwindToEmptyState@__FrameHandler3@@SAXPAUEHRegistrationNode@@PAXPBU_s_FuncInfo@@@Z 1007c627 f   libvcruntime:frame.obj
 0001:0007b63f       ?FrameUnwindToState@__FrameHandler3@@SAXPAUEHRegistrationNode@@PAXPBU_s_FuncInfo@@H@Z 1007c63f f   libvcruntime:frame.obj
 0001:0007b7c1       ?_CallMemberFunction1@@YGXQAX00@Z 1007c7c1 f i libvcruntime:frame.obj
 0001:0007b7d1       ?_CallMemberFunction2@@YGXQAX00H@Z 1007c7d1 f i libvcruntime:frame.obj
 0001:0007b7e4       ?getESTypes@__FrameHandler3@@SAPBU_s_ESTypeList@@PBU_s_FuncInfo@@@Z 1007c7e4 f i libvcruntime:frame.obj
 0001:0007b7f0       __CallSettingFrame@12      1007c7f0 f   libvcruntime:lowhelpr.obj
 0001:0007b817       __NLG_Return               1007c817     libvcruntime:lowhelpr.obj
 0001:0007b83c       ___except_validate_context_record 1007c83c f   libvcruntime:jbcxrval.obj
 0001:0007b86c       ___except_validate_jump_buffer 1007c86c f   libvcruntime:jbcxrval.obj
 0001:0007b899       ??$?0$00@DName@@QAE@PBDU?$StringLifeSelector@$00@@@Z 1007c899 f i libvcruntime:undname.obj
 0001:0007b8cc       ??$?0$0A@@DName@@QAE@PBDU?$StringLifeSelector@$0A@@@@Z 1007c8cc f i libvcruntime:undname.obj
 0001:0007b8cc       ??$?0$01@DName@@QAE@PBDU?$StringLifeSelector@$01@@@Z 1007c8cc f i libvcruntime:undname.obj
 0001:0007b8ff       ??$?0$0A@@pcharNode@@QAE@PBDHU?$StringLifeSelector@$0A@@@@Z 1007c8ff f i libvcruntime:undname.obj
 0001:0007b8ff       ??$?0$01@pcharNode@@QAE@PBDHU?$StringLifeSelector@$01@@@Z 1007c8ff f i libvcruntime:undname.obj
 0001:0007b93f       ??$append@VpcharNode@@@DName@@AAEXPBVpcharNode@@@Z 1007c93f f i libvcruntime:undname.obj
 0001:0007b93f       ??$append@VDNameStatusNode@@@DName@@AAEXPBVDNameStatusNode@@@Z 1007c93f f i libvcruntime:undname.obj
 0001:0007b93f       ??$append@VcharNode@@@DName@@AAEXPBVcharNode@@@Z 1007c93f f i libvcruntime:undname.obj
 0001:0007b93f       ??$append@VDNameNode@@@DName@@AAEXPBVDNameNode@@@Z 1007c93f f i libvcruntime:undname.obj
 0001:0007b983       ??$doPchar@$00@DName@@AAEXPBDH@Z 1007c983 f i libvcruntime:undname.obj
 0001:0007b9ef       ??$doPchar@$01@DName@@AAEXPBDH@Z 1007c9ef f i libvcruntime:undname.obj
 0001:0007b9ef       ??$doPchar@$0A@@DName@@AAEXPBDH@Z 1007c9ef f i libvcruntime:undname.obj
 0001:0007ba60       ??0DName@@QAE@AAPBDD@Z     1007ca60 f   libvcruntime:undname.obj
 0001:0007bae0       ??0DName@@QAE@ABUStringLiteral@@@Z 1007cae0 f   libvcruntime:undname.obj
 0001:0007bb07       ??0DName@@QAE@PAV0@@Z      1007cb07 f   libvcruntime:undname.obj
 0001:0007bb4e       ??0DName@@QAE@W4DNameStatus@@@Z 1007cb4e f   libvcruntime:undname.obj
 0001:0007bb8e       ??0DName@@QAE@_J@Z         1007cb8e f   libvcruntime:undname.obj
 0001:0007bc1a       ??0DName@@QAE@_K@Z         1007cc1a f   libvcruntime:undname.obj
 0001:0007bc80       ??0UnDecorator@@QAE@PBDP6APADJ@ZK@Z 1007cc80 f i libvcruntime:undname.obj
 0001:0007bccc       ??0pDNameNode@@QAE@PAVDName@@@Z 1007cccc f   libvcruntime:undname.obj
 0001:0007bcfb       ??2@YAPAXIAAV_HeapManager@@H@Z 1007ccfb f   libvcruntime:undname.obj
 0001:0007bd1a       ??4DName@@QAEAAV0@ABUStringLiteral@@@Z 1007cd1a f   libvcruntime:undname.obj
 0001:0007bd3b       ??4DName@@QAEAAV0@W4DNameStatus@@@Z 1007cd3b f   libvcruntime:undname.obj
 0001:0007bd6d       ??AReplicator@@QBE?AVDName@@H@Z 1007cd6d f   libvcruntime:undname.obj
 0001:0007bdb3       ??H@YA?AVDName@@ABUStringLiteral@@ABV0@@Z 1007cdb3 f i libvcruntime:undname.obj
 0001:0007bdd5       ??H@YA?AVDName@@DABV0@@Z   1007cdd5 f i libvcruntime:undname.obj
 0001:0007be00       ??H@YA?AVDName@@W4DNameStatus@@ABV0@@Z 1007ce00 f i libvcruntime:undname.obj
 0001:0007be22       ??HDName@@QBE?AV0@ABUStringLiteral@@@Z 1007ce22 f   libvcruntime:undname.obj
 0001:0007be44       ??HDName@@QBE?AV0@ABV0@@Z  1007ce44 f   libvcruntime:undname.obj
 0001:0007be66       ??HDName@@QBE?AV0@D@Z      1007ce66 f   libvcruntime:undname.obj
 0001:0007be88       ??HDName@@QBE?AV0@W4DNameStatus@@@Z 1007ce88 f   libvcruntime:undname.obj
 0001:0007beaa       ??YDName@@QAEAAV0@ABUStringLiteral@@@Z 1007ceaa f   libvcruntime:undname.obj
 0001:0007bf02       ??YDName@@QAEAAV0@ABV0@@Z  1007cf02 f   libvcruntime:undname.obj
 0001:0007bf59       ??YDName@@QAEAAV0@D@Z      1007cf59 f   libvcruntime:undname.obj
 0001:0007bfae       ??YDName@@QAEAAV0@W4DNameStatus@@@Z 1007cfae f   libvcruntime:undname.obj
 0001:0007bfee       ??YReplicator@@QAEAAV0@ABVDName@@@Z 1007cfee f   libvcruntime:undname.obj
 0001:0007c036       ??_5DName@@QAEAAV0@ABV0@@Z 1007d036 f   libvcruntime:undname.obj
 0001:0007c052       ?Destructor@_HeapManager@@QAEXXZ 1007d052 f i libvcruntime:undname.obj
 0001:0007c08a       ?UScore@UnDecorator@@SA?AUStringLiteral@@W4Tokens@@@Z 1007d08a f   libvcruntime:undname.obj
 0001:0007c0b1       ?composeDeclaration@UnDecorator@@CA?AVDName@@ABV2@@Z 1007d0b1 f i libvcruntime:undname.obj
 0001:0007cdb2       ?doPchar@DName@@AAEXD@Z    1007ddb2 f   libvcruntime:undname.obj
 0001:0007cded       ?getArgumentList@UnDecorator@@CA?AVDName@@XZ 1007dded f   libvcruntime:undname.obj
 0001:0007cee3       ?getArgumentTypes@UnDecorator@@CA?AVDName@@XZ 1007dee3 f   libvcruntime:undname.obj
 0001:0007cffc       ?getArrayType@UnDecorator@@CA?AVDName@@ABV2@@Z 1007dffc f i libvcruntime:undname.obj
 0001:0007d1b6       ?getBasedType@UnDecorator@@CA?AVDName@@XZ 1007e1b6 f   libvcruntime:undname.obj
 0001:0007d271       ?getBasicDataType@UnDecorator@@CA?AVDName@@ABV2@@Z 1007e271 f   libvcruntime:undname.obj
 0001:0007d73c       ?getCallingConvention@UnDecorator@@CA?AVDName@@XZ 1007e73c f   libvcruntime:undname.obj
 0001:0007d819       ?getDataIndirectType@UnDecorator@@CA?AVDName@@ABV2@W4IndirectionKind@@0H@Z 1007e819 f   libvcruntime:undname.obj
 0001:0007de97       ?getDataIndirectType@UnDecorator@@CA?AVDName@@XZ 1007ee97 f i libvcruntime:undname.obj
 0001:0007dec5       ?getDataType@UnDecorator@@CA?AVDName@@PAV2@@Z 1007eec5 f   libvcruntime:undname.obj
 0001:0007df9c       ?getDecoratedName@UnDecorator@@CA?AVDName@@XZ 1007ef9c f   libvcruntime:undname.obj
 0001:0007e206       ?getDimension@UnDecorator@@CA?AVDName@@_N@Z 1007f206 f   libvcruntime:undname.obj
 0001:0007e346       ?getDispatchTarget@UnDecorator@@CA?AVDName@@XZ 1007f346 f   libvcruntime:undname.obj
 0001:0007e39a       ?getECSUDataType@UnDecorator@@CA?AVDName@@XZ 1007f39a f   libvcruntime:undname.obj
 0001:0007e522       ?getEnumType@UnDecorator@@CA?AVDName@@XZ 1007f522 f i libvcruntime:undname.obj
 0001:0007e642       ?getExtendedDataIndirectType@UnDecorator@@CA?AVDName@@AAW4IndirectionKind@@AA_NH@Z 1007f642 f   libvcruntime:undname.obj
 0001:0007e7e0       ?getExternalDataType@UnDecorator@@CA?AVDName@@ABV2@@Z 1007f7e0 f i libvcruntime:undname.obj
 0001:0007e845       ?getFunctionIndirectType@UnDecorator@@CA?AVDName@@ABV2@@Z 1007f845 f   libvcruntime:undname.obj
 0001:0007ebf8       ?getLastChar@DName@@QBEDXZ 1007fbf8 f i libvcruntime:undname.obj
 0001:0007ec18       ?getLastChar@DNameStatusNode@@UBEDXZ 1007fc18 f i libvcruntime:undname.obj
 0001:0007ec24       ?getLastChar@charNode@@UBEDXZ 1007fc24 f i libvcruntime:undname.obj
 0001:0007ec28       ?getLastChar@pDNameNode@@UBEDXZ 1007fc28 f i libvcruntime:undname.obj
 0001:0007ec36       ?getLastChar@pairNode@@UBEDXZ 1007fc36 f i libvcruntime:undname.obj
 0001:0007ec6b       ?getLastChar@pcharNode@@UBEDXZ 1007fc6b f i libvcruntime:undname.obj
 0001:0007ec7d       ?getLexicalFrame@UnDecorator@@CA?AVDName@@XZ 1007fc7d f i libvcruntime:undname.obj
 0001:0007ecae       ?getMemoryWithBuffer@_HeapManager@@QAEPAXI@Z 1007fcae f   libvcruntime:undname.obj
 0001:0007ed20       ?getMemoryWithoutBuffer@_HeapManager@@QAEPAXI@Z 1007fd20 f   libvcruntime:undname.obj
 0001:0007ed40       ?getNoexcept@UnDecorator@@CA?AVDName@@XZ 1007fd40 f   libvcruntime:undname.obj
 0001:0007ed94       ?getNumberOfDimensions@UnDecorator@@CAHXZ 1007fd94 f   libvcruntime:undname.obj
 0001:0007edf5       ?getOperatorName@UnDecorator@@CA?AVDName@@_NPA_N@Z 1007fdf5 f i libvcruntime:undname.obj
 0001:0007f45e       ?getPrimaryDataType@UnDecorator@@CA?AVDName@@ABV2@@Z 1008045e f   libvcruntime:undname.obj
 0001:0007f67d       ?getPtrRefDataType@UnDecorator@@CA?AVDName@@ABV2@H@Z 1008067d f   libvcruntime:undname.obj
 0001:0007f7ea       ?getPtrRefType@UnDecorator@@CA?AVDName@@ABV2@0W4IndirectionKind@@@Z 100807ea f   libvcruntime:undname.obj
 0001:0007f8fb       ?getRestrictionSpec@UnDecorator@@CA?AVDName@@XZ 100808fb f   libvcruntime:undname.obj
 0001:0007fa24       ?getReturnType@UnDecorator@@CA?AVDName@@PAV2@@Z 10080a24 f   libvcruntime:undname.obj
 0001:0007fa53       ?getScope@UnDecorator@@CA?AVDName@@XZ 10080a53 f   libvcruntime:undname.obj
 0001:0007fe05       ?getScopedName@UnDecorator@@CA?AVDName@@XZ 10080e05 f   libvcruntime:undname.obj
 0001:0007fef0       ?getSignedDimension@UnDecorator@@CA?AVDName@@XZ 10080ef0 f   libvcruntime:undname.obj
 0001:0007ff41       ?getString@DName@@QBEPADPAD0@Z 10080f41 f i libvcruntime:undname.obj
 0001:0007ff6e       ?getString@DName@@QBEPADPADH@Z 10080f6e f i libvcruntime:undname.obj
 0001:0007ffc3       ?getString@DNameStatusNode@@UBEPADPAD0@Z 10080fc3 f i libvcruntime:undname.obj
 0001:0007fffc       ?getString@charNode@@UBEPADPAD0@Z 10080ffc f i libvcruntime:undname.obj
 0001:00080011       ?getString@pDNameNode@@UBEPADPAD0@Z 10081011 f i libvcruntime:undname.obj
 0001:00080028       ?getString@pairNode@@UBEPADPAD0@Z 10081028 f i libvcruntime:undname.obj
 0001:0008006e       ?getString@pcharNode@@UBEPADPAD0@Z 1008106e f i libvcruntime:undname.obj
 0001:00080089       ?getStringEncoding@UnDecorator@@CA?AVDName@@W4PrefixKind@@H@Z 10081089 f   libvcruntime:undname.obj
 0001:00080141       ?getStringHelper@@YAPADPADPBD1H@Z 10081141 f i libvcruntime:undname.obj
 0001:0008016b       ?getSymbolName@UnDecorator@@CA?AVDName@@XZ 1008116b f i libvcruntime:undname.obj
 0001:000801b3       ?getTemplateArgumentList@UnDecorator@@CA?AVDName@@XZ 100811b3 f   libvcruntime:undname.obj
 0001:0008033d       ?getTemplateName@UnDecorator@@CA?AVDName@@_N@Z 1008133d f   libvcruntime:undname.obj
 0001:00080483       ?getTemplateNonTypeArgument@UnDecorator@@CA?AVDName@@XZ 10081483 f   libvcruntime:undname.obj
 0001:00080838       ?getTemplateTypeArgument@UnDecorator@@CA?AVDName@@XZ 10081838 f   libvcruntime:undname.obj
 0001:0008093e       ?getThisType@UnDecorator@@CA?AVDName@@XZ 1008193e f i libvcruntime:undname.obj
 0001:0008096d       ?getThrowTypes@UnDecorator@@CA?AVDName@@XZ 1008196d f   libvcruntime:undname.obj
 0001:00080990       ?getTypeEncoding@UnDecorator@@CAHXZ 10081990 f i libvcruntime:undname.obj
 0001:00080cc0       ?getUndecoratedName@UnDecorator@@QAEPADPADH@Z 10081cc0 f i libvcruntime:undname.obj
 0001:00080d8c       ?getVCallThunkType@UnDecorator@@CA?AVDName@@XZ 10081d8c f i libvcruntime:undname.obj
 0001:00080de2       ?getVdispMapType@UnDecorator@@CA?AVDName@@ABV2@@Z 10081de2 f i libvcruntime:undname.obj
 0001:00080e43       ?getVfTableType@UnDecorator@@CA?AVDName@@ABV2@@Z 10081e43 f i libvcruntime:undname.obj
 0001:00080fb7       ?getZName@UnDecorator@@CA?AVDName@@_N0@Z 10081fb7 f   libvcruntime:undname.obj
 0001:000811ba       ?length@DName@@QBEHXZ      100821ba f i libvcruntime:undname.obj
 0001:000811d9       ?length@pDNameNode@@UBEHXZ 100821d9 f i libvcruntime:undname.obj
 0001:000811e7       ?length@pairNode@@UBEHXZ   100821e7 f i libvcruntime:undname.obj
 0001:0008122d       ?make@DNameStatusNode@@SAPBV1@W4DNameStatus@@@Z 1008222d f i libvcruntime:undname.obj
 0001:00081249       ?parseDecoratedName@UnDecorator@@CA?AVDName@@XZ 10082249 f   libvcruntime:undname.obj
 0001:00081343       ?raw_length@pDNameNode@@UBEHXZ 10082343 f i libvcruntime:undname.obj
 0001:00081347       ?raw_length@pairNode@@UBEHXZ 10082347 f i libvcruntime:undname.obj
 0001:0008139d       ___unDName                 1008239d f   libvcruntime:undname.obj
 0001:000813c0       ___unDNameEx               100823c0 f   libvcruntime:undname.obj
 0001:00081460       __local_unwind4            10082460 f   libvcruntime:exsup4.obj
 0001:00081538       __seh_longjmp_unwind4@4    10082538 f   libvcruntime:exsup4.obj
 0001:00081560       @_EH4_CallFilterFunc@8     10082560 f   libvcruntime:exsup4.obj
 0001:00081578       @_EH4_TransferToHandler@8  10082578 f   libvcruntime:exsup4.obj
 0001:00081594       @_EH4_GlobalUnwind2@8      10082594 f   libvcruntime:exsup4.obj
 0001:000815b0       @_EH4_LocalUnwind@16       100825b0 f   libvcruntime:exsup4.obj
 0001:000815c7       ___vcrt_initialize_locks   100825c7 f   libvcruntime:locks.obj
 0001:00081603       ___vcrt_lock               10082603 f   libvcruntime:locks.obj
 0001:00081618       ___vcrt_uninitialize_locks 10082618 f   libvcruntime:locks.obj
 0001:00081647       ___vcrt_unlock             10082647 f   libvcruntime:locks.obj
 0001:00081751       ___vcrt_FlsAlloc           10082751 f   libvcruntime:winapi_downlevel.obj
 0001:0008178c       ___vcrt_FlsFree            1008278c f   libvcruntime:winapi_downlevel.obj
 0001:000817c7       ___vcrt_FlsGetValue        100827c7 f   libvcruntime:winapi_downlevel.obj
 0001:00081802       ___vcrt_FlsSetValue        10082802 f   libvcruntime:winapi_downlevel.obj
 0001:00081840       ___vcrt_InitializeCriticalSectionEx 10082840 f   libvcruntime:winapi_downlevel.obj
 0001:00081887       _unexpected                10082887 f   libvcruntime:unexpected.obj
 0001:000818a4       ?GetCurrentState@__FrameHandler3@@SAHPAUEHRegistrationNode@@PAXPBU_s_FuncInfo@@@Z 100828a4 f   libvcruntime:ehstate.obj
 0001:000818c1       ?SetState@__FrameHandler3@@SAXPAUEHRegistrationNode@@PBU_s_FuncInfo@@H@Z 100828c1 f   libvcruntime:ehstate.obj
 0001:000818d0       __global_unwind2           100828d0 f   libvcruntime:exsup.obj
 0001:00081936       __local_unwind2            10082936 f   libvcruntime:exsup.obj
 0001:000819ba       __abnormal_termination     100829ba f   libvcruntime:exsup.obj
 0001:000819e0       __NLG_Notify1              100829e0 f   libvcruntime:exsup.obj
 0001:000819ec       __NLG_Notify               100829ec f   libvcruntime:exsup.obj
 0001:00081a03       __NLG_Dispatch2            10082a03     libvcruntime:exsup.obj
 0001:00081a03       __NLG_Dispatch             10082a03     libvcruntime:exsup.obj
 0001:00081a0b       __NLG_Call                 10082a0b f   libvcruntime:exsup.obj
 0001:00081a0d       __NLG_Return2              10082a0d     libvcruntime:exsup.obj
 0001:00081a0e       ___acrt_call_reportfault   10082a0e f   libucrt:invalid_parameter.obj
 0001:00081b47       ___acrt_initialize_invalid_parameter_handler 10082b47 f   libucrt:invalid_parameter.obj
 0001:00081b56       __invalid_parameter        10082b56 f   libucrt:invalid_parameter.obj
 0001:00081bba       __invalid_parameter_noinfo 10082bba f   libucrt:invalid_parameter.obj
 0001:00081bca       __invalid_parameter_noinfo_noreturn 10082bca f   libucrt:invalid_parameter.obj
 0001:00081be7       __invoke_watson            10082be7 f   libucrt:invalid_parameter.obj
 0001:00081e1c       __i64tow                   10082e1c f   libucrt:xtoa.obj
 0001:00081e5d       __itow_s                   10082e5d f   libucrt:xtoa.obj
 0001:00081e90       __ui64tow                  10082e90 f   libucrt:xtoa.obj
 0001:00081eb2       _wcscpy_s                  10082eb2 f   libucrt:wcscpy_s.obj
 0001:00081f16       ??0_LocaleUpdate@@QAE@QAU__crt_locale_pointers@@@Z 10082f16 f i libucrt:wcsicmp.obj
 0001:00081f99       ??1_LocaleUpdate@@QAE@XZ   10082f99 f i libucrt:wcsicmp.obj
 0001:00081fa9       ___ascii_wcsicmp           10082fa9 f   libucrt:wcsicmp.obj
 0001:00081fe8       __towlower_internal        10082fe8 f i libucrt:wcsicmp.obj
 0001:00082027       __wcsicmp                  10083027 f   libucrt:wcsicmp.obj
 0001:00082070       __wcsicmp_l                10083070 f   libucrt:wcsicmp.obj
 0001:0008231e       ??$count@D@formatting_buffer@__crt_stdio_output@@QBEIXZ 1008331e f i libucrt:output.obj
 0001:00082336       ??$ensure_buffer_is_big_enough@D@formatting_buffer@__crt_stdio_output@@QAE_NI@Z 10083336 f i libucrt:output.obj
 0001:000823b3       ??$is_wide_character_specifier@D@__crt_stdio_output@@YA_N_KDW4length_modifier@0@@Z 100833b3 f i libucrt:output.obj
 0001:000823e4       ??$scratch_data@D@formatting_buffer@__crt_stdio_output@@QAEPADXZ 100833e4 f i libucrt:output.obj
 0001:00082402       ??$type_case_integer_parse_into_buffer@I@?$output_processor@DV?$string_output_adapter@D@__crt_stdio_output@@V?$format_validation_base@DV?$string_output_adapter@D@__crt_stdio_output@@@2@@__crt_stdio_output@@AAEXII_N@Z 10083402 f i libucrt:output.obj
 0001:00082475       ??$type_case_integer_parse_into_buffer@_K@?$output_processor@DV?$string_output_adapter@D@__crt_stdio_output@@V?$format_validation_base@DV?$string_output_adapter@D@__crt_stdio_output@@@2@@__crt_stdio_output@@AAEX_KI_N@Z 10083475 f i libucrt:output.obj
 0001:00082503       ??$write_multiple_characters@V?$string_output_adapter@D@__crt_stdio_output@@D@__crt_stdio_output@@YAXABV?$string_output_adapter@D@0@DHQAH@Z 10083503 f i libucrt:output.obj
 0001:0008252f       ??0?$common_data@D@__crt_stdio_output@@IAE@XZ 1008352f f i libucrt:output.obj
 0001:00082574       ??0?$output_adapter_data@DV?$string_output_adapter@D@__crt_stdio_output@@@__crt_stdio_output@@IAE@ABV?$string_output_adapter@D@1@_KQBDQAU__crt_locale_pointers@@QAD@Z 10083574 f i libucrt:output.obj
 0001:000825b0       ??1formatting_buffer@__crt_stdio_output@@QAE@XZ 100835b0 f i libucrt:output.obj
 0001:000825ca       ??4?$__crt_unique_heap_ptr@DU__crt_internal_free_policy@@@@QAEAAV0@$$QAV0@@Z 100835ca f i libucrt:output.obj
 0001:000825ee       ?crop_zeroes@__crt_stdio_output@@YAXPADQAU__crt_locale_pointers@@@Z 100835ee f i libucrt:output.obj
 0001:0008264e       ?find_next_state@?$output_processor@DV?$string_output_adapter@D@__crt_stdio_output@@V?$format_validation_base@DV?$string_output_adapter@D@__crt_stdio_output@@@2@@__crt_stdio_output@@ABE?AW4state@2@DW432@@Z 1008364e f i libucrt:output.obj
 0001:0008268e       ?force_decimal_point@__crt_stdio_output@@YAXPADQAU__crt_locale_pointers@@@Z 1008368e f i libucrt:output.obj
 0001:000826ea       ?parse_int_from_format_string@?$output_processor@DV?$string_output_adapter@D@__crt_stdio_output@@V?$format_validation_base@DV?$string_output_adapter@D@__crt_stdio_output@@@2@@__crt_stdio_output@@AAE_NQAH@Z 100836ea f i libucrt:output.obj
 0001:0008275e       ?process@?$output_processor@DV?$string_output_adapter@D@__crt_stdio_output@@V?$format_validation_base@DV?$string_output_adapter@D@__crt_stdio_output@@@2@@__crt_stdio_output@@QAEHXZ 1008375e f i libucrt:output.obj
 0001:00082882       ?state_case_flag@?$output_processor@DV?$string_output_adapter@D@__crt_stdio_output@@V?$format_validation_base@DV?$string_output_adapter@D@__crt_stdio_output@@@2@@__crt_stdio_output@@AAE_NXZ 10083882 f i libucrt:output.obj
 0001:000828bf       ?state_case_normal@?$output_processor@DV?$string_output_adapter@D@__crt_stdio_output@@V?$format_validation_base@DV?$string_output_adapter@D@__crt_stdio_output@@@2@@__crt_stdio_output@@AAE_NXZ 100838bf f i libucrt:output.obj
 0001:000828de       ?state_case_normal_common@?$output_processor@DV?$string_output_adapter@D@__crt_stdio_output@@V?$format_validation_base@DV?$string_output_adapter@D@__crt_stdio_output@@@2@@__crt_stdio_output@@AAE_NXZ 100838de f i libucrt:output.obj
 0001:00082908       ?state_case_normal_tchar@?$output_processor@DV?$string_output_adapter@D@__crt_stdio_output@@V?$format_validation_base@DV?$string_output_adapter@D@__crt_stdio_output@@@2@@__crt_stdio_output@@AAE_ND@Z 10083908 f i libucrt:output.obj
 0001:0008296c       ?state_case_precision@?$output_processor@DV?$string_output_adapter@D@__crt_stdio_output@@V?$format_validation_base@DV?$string_output_adapter@D@__crt_stdio_output@@@2@@__crt_stdio_output@@AAE_NXZ 1008396c f i libucrt:output.obj
 0001:00082992       ?state_case_size@?$output_processor@DV?$string_output_adapter@D@__crt_stdio_output@@V?$format_validation_base@DV?$string_output_adapter@D@__crt_stdio_output@@@2@@__crt_stdio_output@@AAE_NXZ 10083992 f i libucrt:output.obj
 0001:00082ae0       ?state_case_type@?$output_processor@DV?$string_output_adapter@D@__crt_stdio_output@@V?$format_validation_base@DV?$string_output_adapter@D@__crt_stdio_output@@@2@@__crt_stdio_output@@AAE_NXZ 10083ae0 f i libucrt:output.obj
 0001:00082d12       ?state_case_width@?$output_processor@DV?$string_output_adapter@D@__crt_stdio_output@@V?$format_validation_base@DV?$string_output_adapter@D@__crt_stdio_output@@@2@@__crt_stdio_output@@AAE_NXZ 10083d12 f i libucrt:output.obj
 0001:00082d3d       ?to_integer_size@__crt_stdio_output@@YAIW4length_modifier@1@@Z 10083d3d f i libucrt:output.obj
 0001:00082d91       ?type_case_Z@?$output_processor@DV?$string_output_adapter@D@__crt_stdio_output@@V?$format_validation_base@DV?$string_output_adapter@D@__crt_stdio_output@@@2@@__crt_stdio_output@@AAE_NXZ 10083d91 f i libucrt:output.obj
 0001:00082deb       ?type_case_a@?$output_processor@DV?$string_output_adapter@D@__crt_stdio_output@@V?$format_validation_base@DV?$string_output_adapter@D@__crt_stdio_output@@@2@@__crt_stdio_output@@AAE_NXZ 10083deb f i libucrt:output.obj
 0001:00082f3a       ?type_case_c_tchar@?$output_processor@DV?$string_output_adapter@D@__crt_stdio_output@@V?$format_validation_base@DV?$string_output_adapter@D@__crt_stdio_output@@@2@@__crt_stdio_output@@AAE_ND@Z 10083f3a f i libucrt:output.obj
 0001:00082fca       ?type_case_integer@?$output_processor@DV?$string_output_adapter@D@__crt_stdio_output@@V?$format_validation_base@DV?$string_output_adapter@D@__crt_stdio_output@@@2@@__crt_stdio_output@@AAE_NI_N@Z 10083fca f i libucrt:output.obj
 0001:0008311b       ?type_case_n@?$output_processor@DV?$string_output_adapter@D@__crt_stdio_output@@V?$format_validation_base@DV?$string_output_adapter@D@__crt_stdio_output@@@2@@__crt_stdio_output@@AAE_NXZ 1008411b f i libucrt:output.obj
 0001:0008318f       ?type_case_o@?$output_processor@DV?$string_output_adapter@D@__crt_stdio_output@@V?$format_validation_base@DV?$string_output_adapter@D@__crt_stdio_output@@@2@@__crt_stdio_output@@AAE_NXZ 1008418f f i libucrt:output.obj
 0001:000831ae       ?type_case_p@?$output_processor@DV?$string_output_adapter@D@__crt_stdio_output@@V?$format_validation_base@DV?$string_output_adapter@D@__crt_stdio_output@@@2@@__crt_stdio_output@@AAE_NXZ 100841ae f i libucrt:output.obj
 0001:000831c6       ?type_case_s@?$output_processor@DV?$string_output_adapter@D@__crt_stdio_output@@V?$format_validation_base@DV?$string_output_adapter@D@__crt_stdio_output@@@2@@__crt_stdio_output@@AAE_NXZ 100841c6 f i libucrt:output.obj
 0001:00083237       ?validate@?$string_output_adapter@D@__crt_stdio_output@@QBE_NXZ 10084237 f i libucrt:output.obj
 0001:00083237       ?validate@?$c_string_character_source@_W@__crt_strtox@@QBE_NXZ 10084237 f i libucrt:strtox.obj
 0001:00083237       ?validate@?$c_string_character_source@D@__crt_strtox@@QBE_NXZ 10084237 f i libucrt:strtox.obj
 0001:00083252       ?validate_and_update_state_at_end_of_format_string@?$format_validation_base@DV?$string_output_adapter@D@__crt_stdio_output@@@__crt_stdio_output@@IBE_NXZ 10084252 f i libucrt:output.obj
 0001:00083274       ?write_character@?$string_output_adapter@D@__crt_stdio_output@@QBE_NDQAH@Z 10084274 f i libucrt:output.obj
 0001:000832b6       ?write_stored_string_tchar@?$output_processor@DV?$string_output_adapter@D@__crt_stdio_output@@V?$format_validation_base@DV?$string_output_adapter@D@__crt_stdio_output@@@2@@__crt_stdio_output@@AAE_ND@Z 100842b6 f i libucrt:output.obj
 0001:0008335d       ?write_string@?$string_output_adapter@D@__crt_stdio_output@@QBEXQBDHQAHAAV__crt_deferred_errno_cache@@@Z 1008435d f i libucrt:output.obj
 0001:000833c4       ___acrt_locale_get_ctype_array_value 100843c4 f i libucrt:output.obj
 0001:000833e6       ___stdio_common_vsprintf_s 100843e6 f   libucrt:output.obj
 0001:0008340a       _frexp                     1008440a f   libucrt:frexp.obj
 0001:00083510       _strcspn                   10084510 f   libucrt:strcspn.obj
 0001:00083556       _localeconv                10084556 f   libucrt:localeconv.obj
 0001:0008357e       _terminate                 1008457e f   libucrt:terminate.obj
 0001:000835ba       _free                      100845ba f   libucrt:free.obj
 0001:000835d5       _calloc                    100845d5 f   libucrt:calloc.obj
 0001:000835e0       ??$is_overflow_condition@K@__crt_strtox@@YA_NIK@Z 100845e0 f i libucrt:strtox.obj
 0001:00083611       ??$is_overflow_condition@_K@__crt_strtox@@YA_NI_K@Z 10084611 f i libucrt:strtox.obj
 0001:00083652       ??$make_c_string_character_source@_WPAPA_W@__crt_strtox@@YA?AV?$c_string_character_source@_W@0@QB_WQAPA_W@Z 10084652 f i libucrt:strtox.obj
 0001:00083652       ??$make_c_string_character_source@DPAPAD@__crt_strtox@@YA?AV?$c_string_character_source@D@0@QBDQAPAD@Z 10084652 f i libucrt:strtox.obj
 0001:0008366d       ??$parse_integer@KV?$c_string_character_source@D@__crt_strtox@@@__crt_strtox@@YAKQAU__crt_locale_pointers@@V?$c_string_character_source@D@0@H_N@Z 1008466d f i libucrt:strtox.obj
 0001:00083892       ??$parse_integer@KV?$c_string_character_source@_W@__crt_strtox@@@__crt_strtox@@YAKQAU__crt_locale_pointers@@V?$c_string_character_source@_W@0@H_N@Z 10084892 f i libucrt:strtox.obj
 0001:00083e9a       ??$parse_integer@_KV?$c_string_character_source@_W@__crt_strtox@@@__crt_strtox@@YA_KQAU__crt_locale_pointers@@V?$c_string_character_source@_W@0@H_N@Z 10084e9a f i libucrt:strtox.obj
 0001:0008456b       ?unget@?$c_string_character_source@D@__crt_strtox@@QAEXD@Z 1008556b f i libucrt:strtox.obj
 0001:00084594       ?unget@?$c_string_character_source@_W@__crt_strtox@@QAEX_W@Z 10085594 f i libucrt:strtox.obj
 0001:000845c2       __ischartype_l             100855c2 f i libucrt:strtox.obj
 0001:00084616       __wcstoui64                10085616 f   libucrt:strtox.obj
 0001:00084640       _strtol                    10085640 f   libucrt:strtox.obj
 0001:0008466a       _strtoul                   1008566a f   libucrt:strtox.obj
 0001:00084694       __tolower_l                10085694 f   libucrt:tolower_toupper.obj
 0001:00084798       _tolower                   10085798 f   libucrt:tolower_toupper.obj
 0001:000847c8       __wtol                     100857c8 f   libucrt:atox.obj
 0001:000847c8       __wtoi                     100857c8 f   libucrt:atox.obj
 0001:000847eb       _atol                      100857eb f   libucrt:atox.obj
 0001:0008480e       _wcsncpy                   1008580e f   libucrt:wcsncpy.obj
 0001:00084851       ___acrt_initialize_heap    10085851 f   libucrt:heap_handle.obj
 0001:00084862       ___acrt_uninitialize_heap  10085862 f   libucrt:heap_handle.obj
 0001:0008486c       __get_heap_handle          1008586c f   libucrt:heap_handle.obj
 0001:00084872       __memicmp                  10085872 f   libucrt:memicmp.obj
 0001:000848d4       __memicmp_l                100858d4 f   libucrt:memicmp.obj
 0001:00084972       _malloc                    10085972 f   libucrt:malloc.obj
 0001:0008497d       ___acrt_errno_from_os_error 1008597d f   libucrt:errno.obj
 0001:000849c0       ___acrt_errno_map_os_error 100859c0 f   libucrt:errno.obj
 0001:000849e3       ___doserrno                100859e3 f   libucrt:errno.obj
 0001:000849f6       __errno                    100859f6 f   libucrt:errno.obj
 0001:00084c63       _setlocale                 10085c63 f   libucrt:setlocale.obj
 0001:00084c9b       ___acrt_initialize_locks   10085c9b f   libucrt:locks.obj
 0001:00084cdc       ___acrt_lock               10085cdc f   libucrt:locks.obj
 0001:00084cf3       ___acrt_uninitialize_locks 10085cf3 f   libucrt:locks.obj
 0001:00084d24       ___acrt_unlock             10085d24 f   libucrt:locks.obj
 0001:00084d3b       __lock_locales             10085d3b f   libucrt:locks.obj
 0001:00084d49       __unlock_locales           10085d49 f   libucrt:locks.obj
 0001:00084d52       ____lc_codepage_func       10085d52 f   libucrt:initctype.obj
 0001:00084d77       ____lc_locale_name_func    10085d77 f   libucrt:initctype.obj
 0001:00084d9e       ____mb_cur_max_func        10085d9e f   libucrt:initctype.obj
 0001:00084dc3       ___acrt_locale_initialize_ctype 10085dc3 f   libucrt:initctype.obj
 0001:00085221       ___pctype_func             10086221 f   libucrt:ctype.obj
 0001:00085245       __wcsdup                   10086245 f   libucrt:wcsdup.obj
 0001:000852b0       ?divide@__crt_strtox@@YA_KAAUbig_integer@1@ABU21@@Z 100862b0 f i libucrt:strtod.obj
 0001:000857d0       __CIpow                    100867d0 f   libucrt:pow_impl.obj
 0001:0008580b       __CIpow_default            1008680b f   libucrt:pow_impl.obj
 0001:00085824       __pow_default              10086824     libucrt:pow_impl.obj
 0001:00085a19       _abort                     10086a19 f   libucrt:abort.obj
 0001:00085a5d       ___strncnt                 10086a5d f   libucrt:strncnt.obj
 0001:00085a79       _strnlen                   10086a79 f   libucrt:strnlen.obj
 0001:00085b9b       _wcsnlen                   10086b9b f   libucrt:strnlen.obj
 0001:00085dfd       ??$__acrt_mbs_to_wcs_cp@U__crt_win32_buffer_internal_dynamic_resizing@@@@YAHQBDAAV?$__crt_win32_buffer@_WU__crt_win32_buffer_internal_dynamic_resizing@@@@I@Z 10086dfd f i libucrt:strftime.obj
 0001:00085e1a       ?_deallocate@?$__crt_win32_buffer@DU__crt_win32_buffer_internal_dynamic_resizing@@@@AAEXXZ 10086e1a f i libucrt:argv_wildcards.obj
 0001:00085e1a       ?_deallocate@?$__crt_win32_buffer@_WU__crt_win32_buffer_internal_dynamic_resizing@@@@AAEXXZ 10086e1a f i libucrt:strftime.obj
 0001:00085e34       ?allocate@?$__crt_win32_buffer@DU__crt_win32_buffer_no_resizing@@@@QAEHI@Z 10086e34 f i libucrt:strftime.obj
 0001:00085e5b       ?allocate@?$__crt_win32_buffer@_WU__crt_win32_buffer_internal_dynamic_resizing@@@@QAEHI@Z 10086e5b f i libucrt:strftime.obj
 0001:00085e9a       ?allocate@__crt_win32_buffer_internal_dynamic_resizing@@SAHQAPAXIABV__crt_win32_buffer_empty_debug_info@@@Z 10086e9a f i libucrt:strftime.obj
 0001:00085eb9       ?set_to_nullptr@?$__crt_win32_buffer@DU__crt_win32_buffer_no_resizing@@@@QAEXXZ 10086eb9 f i libucrt:strftime.obj
 0001:00085ecd       ___acrt_initialize_new_handler 10086ecd f   libucrt:new_handler.obj
 0001:00085edc       __callnewh                 10086edc f   libucrt:new_handler.obj
 0001:00085f09       __query_new_handler        10086f09 f   libucrt:new_handler.obj
 0001:00085f65       __seh_filter_dll           10086f65 f   libucrt:exception_filter.obj
 0001:00085f85       __seh_filter_exe           10086f85 f   libucrt:exception_filter.obj
 0001:00086353       ___acrt_initialize_thread_local_exit_callback 10087353 f   libucrt:exit.obj
 0001:00086362       __cexit                    10087362 f   libucrt:exit.obj
 0001:00086371       __exit                     10087371 f   libucrt:exit.obj
 0001:00086387       __is_c_termination_complete 10087387 f   libucrt:exit.obj
 0001:0008663b       ___acrt_allocate_buffer_for_argv 1008763b f   libucrt:argv_parsing.obj
 0001:0008668a       __configure_narrow_argv    1008768a f   libucrt:argv_parsing.obj
 0001:000867e7       ??$uninitialize@A6AXAAPAPA_W@Z@?$dual_state_global@PAPA_W@__crt_state_management@@QAEXA6AXAAPAPA_W@Z@Z 100877e7 f i libucrt:environment_initialization.obj
 0001:000867e7       ??$uninitialize@A6AXAAPAPAD@Z@?$dual_state_global@PAPAD@__crt_state_management@@QAEXA6AXAAPAPAD@Z@Z 100877e7 f i libucrt:environment_initialization.obj
 0001:00086846       ___dcrt_uninitialize_environments_nolock 10087846 f   libucrt:environment_initialization.obj
 0001:0008687d       __initialize_narrow_environment 1008787d f   libucrt:environment_initialization.obj
 0001:00086938       ??$__crt_fast_encode_pointer@PAX@@YAPAXQAX@Z 10087938 f i libucrt:initialization.obj
 0001:00086938       ??$__crt_fast_encode_pointer@P6AHXZ@@YAP6AHXZQ6AHXZ@Z 10087938 f i libucrt:onexit.obj
 0001:00086938       ??$__crt_fast_encode_pointer@P6GHPA_WKJ@Z@@YAP6GHPA_WKJ@ZQ6GH0KJ@Z@Z 10087938 f i libucrt:winapi_thunks.obj
 0001:00086938       ??$__crt_fast_encode_pointer@PAP6AXXZ@@YAPAP6AXXZQAP6AXXZ@Z 10087938 f i libucrt:onexit.obj
 0001:00086b5a       __crt_atexit               10087b5a f   libucrt:onexit.obj
 0001:00086b70       __execute_onexit_table     10087b70 f   libucrt:onexit.obj
 0001:00086b9d       __initialize_onexit_table  10087b9d f   libucrt:onexit.obj
 0001:00086bc6       __register_onexit_function 10087bc6 f   libucrt:onexit.obj
 0001:00086bf9       ___acrt_uninitialize_command_line 10087bf9 f   libucrt:argv_data.obj
 0001:00086cf7       ___acrt_initialize         10087cf7 f   libucrt:initialization.obj
 0001:00086d09       ___acrt_thread_attach      10087d09 f   libucrt:initialization.obj
 0001:00086d14       ___acrt_thread_detach      10087d14 f   libucrt:initialization.obj
 0001:00086d1c       ___acrt_uninitialize       10087d1c f   libucrt:initialization.obj
 0001:00086d4c       ___acrt_uninitialize_critical 10087d4c f   libucrt:initialization.obj
 0001:00086d5e       __initterm                 10087d5e f   libucrt:initterm.obj
 0001:00086da3       __initterm_e               10087da3 f   libucrt:initterm.obj
 0001:00086dd1       _strcpy_s                  10087dd1 f   libucrt:strcpy_s.obj
 0001:00086e30       _strncmp                   10087e30 f   libucrt:strncmp.obj
 0001:00086ea8       _wcsncmp                   10087ea8 f   libucrt:wcsncmp.obj
 0001:00087220       ___acrt_freeptd            10088220 f   libucrt:per_thread_data.obj
 0001:0008724c       ___acrt_getptd             1008824c f   libucrt:per_thread_data.obj
 0001:00087309       ___acrt_getptd_head        10088309 f   libucrt:per_thread_data.obj
 0001:000873a3       ___acrt_getptd_noexit      100883a3 f   libucrt:per_thread_data.obj
 0001:00087458       ___acrt_initialize_ptd     10088458 f   libucrt:per_thread_data.obj
 0001:00087484       ___acrt_uninitialize_ptd   10088484 f   libucrt:per_thread_data.obj
 0001:0008749e       __towlower_l               1008849e f   libucrt:towlower.obj
 0001:00087540       ___acrt_update_locale_info 10088540 f   libucrt:locale_update.obj
 0001:0008756d       ___acrt_update_multibyte_info 1008856d f   libucrt:locale_update.obj
 0001:0008769a       ??0_expandlocale_locale_name_cache@@QAE@QA_WIQAU__crt_qualified_locale_data@@@Z 1008869a f i libucrt:wsetlocale.obj
 0001:000876e4       ??1_expandlocale_locale_name_cache@@QAE@XZ 100886e4 f i libucrt:wsetlocale.obj
 0001:0008787c       ?commit_locale_name@_expandlocale_locale_name_cache@@QAEXQB_WI@Z 1008887c f i libucrt:wsetlocale.obj
 0001:000878c0       ?commit_locale_name_cache_already_updated@_expandlocale_locale_name_cache@@QAEXQB_WI@Z 100888c0 f i libucrt:wsetlocale.obj
 0001:000878f5       ___acrt_copy_locale_name   100888f5 f   libucrt:wsetlocale.obj
 0001:00087955       ___acrt_set_locale_changed 10088955 f   libucrt:wsetlocale.obj
 0001:00087960       ___acrt_uninitialize_locale 10088960 f   libucrt:wsetlocale.obj
 0001:00087987       ___lc_lctowcs              10088987 f   libucrt:wsetlocale.obj
 0001:000879f7       ___lc_wcstolc              100889f7 f   libucrt:wsetlocale.obj
 0001:00087f3c       __wcscats                  10088f3c f   libucrt:wsetlocale.obj
 0001:00087f7d       __wsetlocale               10088f7d f   libucrt:wsetlocale.obj
 0001:00088c82       __free_base                10089c82 f   libucrt:free_base.obj
 0001:00088cbc       __malloc_base              10089cbc f   libucrt:malloc_base.obj
 0001:00088d0a       __mbtowc_l                 10089d0a f   libucrt:mbtowc.obj
 0001:00088e4c       _mbtowc                    10089e4c f   libucrt:mbtowc.obj
 0001:00088e66       __wctomb_s_l               10089e66 f   libucrt:wctomb.obj
 0001:00088fc1       _wctomb_s                  10089fc1 f   libucrt:wctomb.obj
 0001:00088fde       ?__acrt_fp_classify@@YA?AW4__acrt_fp_class@@ABN@Z 10089fde f i libucrt:cvt.obj
 0001:00089829       ___acrt_fp_format          1008a829 f   libucrt:cvt.obj
 0001:00089964       __fileno                   1008a964 f   libucrt:fileno.obj
 0001:0008998b       ___acrt_initialize_stdio   1008a98b f   libucrt:_file.obj
 0001:00089a53       ___acrt_uninitialize_stdio 1008aa53 f   libucrt:_file.obj
 0001:00089a9f       __lock_file                1008aa9f f   libucrt:_file.obj
 0001:00089ab3       __unlock_file              1008aab3 f   libucrt:_file.obj
 0001:00089ac7       __get_printf_count_output  1008aac7 f   libucrt:printf_count_output.obj
 0001:00089c46       ___acrt_initialize_lowio   1008ac46 f   libucrt:ioinit.obj
 0001:00089ca6       ___acrt_uninitialize_lowio 1008aca6 f   libucrt:ioinit.obj
 0001:00089cd2       __dsign                    1008acd2 f   libucrt:nan.obj
 0001:00089ce2       __errcode                  1008ace2 f   libucrt:fpexcept.obj
 0001:00089d16       __except1                  1008ad16 f   libucrt:fpexcept.obj
 0001:00089de4       __handle_exc               1008ade4 f   libucrt:fpexcept.obj
 0001:00089fcf       __raise_exc                1008afcf f   libucrt:fpexcept.obj
 0001:00089ff2       __raise_exc_ex             1008aff2 f   libucrt:fpexcept.obj
 0001:0008a2e8       __set_errno_from_matherr   1008b2e8 f   libucrt:fpexcept.obj
 0001:0008a317       __umatherr                 1008b317 f   libucrt:fpexcept.obj
 0001:0008a3b7       __decomp                   1008b3b7 f   libucrt:util.obj
 0001:0008a489       __set_exp                  1008b489 f   libucrt:util.obj
 0001:0008a4b6       __sptype                   1008b4b6 f   libucrt:util.obj
 0001:0008a514       __clrfp                    1008b514 f   libucrt:fpctrl.obj
 0001:0008a525       __ctrlfp                   1008b525 f   libucrt:fpctrl.obj
 0001:0008a54f       __set_statfp               1008b54f f   libucrt:fpctrl.obj
 0001:0008a5a8       __statfp                   1008b5a8 f   libucrt:fpctrl.obj
 0001:0008a5b8       __calloc_base              1008b5b8 f   libucrt:calloc_base.obj
 0001:0008a615       _iswctype                  1008b615 f   libucrt:iswctype.obj
 0001:0008a67e       __isctype_l                1008b67e f   libucrt:isctype.obj
 0001:0008a749       __isleadbyte_l             1008b749 f i libucrt:_wctype.obj
 0001:0008a96d       ___acrt_LCMapStringA       1008b96d f   libucrt:lcmapstringa.obj
 0001:0008a9c0       ___ascii_memicmp           1008b9c0 f   libucrt:_memicmp.obj
 0001:0008abbc       __mbstowcs_s_l             1008bbbc f   libucrt:mbstowcs.obj
 0001:0008ac9c       _mbstowcs_s                1008bc9c f   libucrt:mbstowcs.obj
 0001:0008af65       __wcstombs_s_l             1008bf65 f   libucrt:wcstombs.obj
 0001:0008b350       ___acrt_AppPolicyGetProcessTerminationMethodInternal@4 1008c350 f   libucrt:winapi_thunks.obj
 0001:0008b390       ___acrt_AreFileApisANSI@0  1008c390 f   libucrt:winapi_thunks.obj
 0001:0008b3af       ___acrt_EnumSystemLocalesEx@16 1008c3af f   libucrt:winapi_thunks.obj
 0001:0008b403       ___acrt_FlsAlloc@4         1008c403 f   libucrt:winapi_thunks.obj
 0001:0008b442       ___acrt_FlsFree@4          1008c442 f   libucrt:winapi_thunks.obj
 0001:0008b481       ___acrt_FlsGetValue@4      1008c481 f   libucrt:winapi_thunks.obj
 0001:0008b4c0       ___acrt_FlsSetValue@8      1008c4c0 f   libucrt:winapi_thunks.obj
 0001:0008b502       ___acrt_GetLocaleInfoEx@16 1008c502 f   libucrt:winapi_thunks.obj
 0001:0008b541       ___acrt_GetUserDefaultLocaleName@8 1008c541 f   libucrt:winapi_thunks.obj
 0001:0008b57d       ___acrt_InitializeCriticalSectionEx@12 1008c57d f   libucrt:winapi_thunks.obj
 0001:0008b5c8       ___acrt_IsValidLocaleName@4 1008c5c8 f   libucrt:winapi_thunks.obj
 0001:0008b600       ___acrt_LCIDToLocaleName@16 1008c600 f   libucrt:winapi_thunks.obj
 0001:0008b63f       ___acrt_LCMapStringEx@36   1008c63f f   libucrt:winapi_thunks.obj
 0001:0008b69c       ___acrt_LocaleNameToLCID@8 1008c69c f   libucrt:winapi_thunks.obj
 0001:0008b6cd       ___acrt_can_use_vista_locale_apis 1008c6cd f   libucrt:winapi_thunks.obj
 0001:0008b6d8       ___acrt_eagerly_load_locale_apis 1008c6d8 f   libucrt:winapi_thunks.obj
 0001:0008b70f       ___acrt_initialize_winapi_thunks 1008c70f f   libucrt:winapi_thunks.obj
 0001:0008b73a       ___acrt_uninitialize_winapi_thunks 1008c73a f   libucrt:winapi_thunks.obj
 0001:0008b84f       ___acrt_GetLocaleInfoA     1008c84f f   libucrt:getlocaleinfoa.obj
 0001:0008b9ff       ___acrt_GetStringTypeA     1008c9ff f   libucrt:getstringtypea.obj
 0001:0008bb02       __fpclass                  1008cb02 f   libucrt:ieeemisc.obj
 0001:0008bba6       __realloc_base             1008cba6 f   libucrt:realloc_base.obj
 0001:0008bc0f       ___acrt_initialize_sse2    1008cc0f f   libucrt:mathfcns.obj
 0001:0008bc20       __CIpow_pentium4           1008cc20 f   libucrt:pow_pentium4.obj
 0001:0008bc39       __pow_pentium4             1008cc39     libucrt:pow_pentium4.obj
 0001:0008c760       __fFEXP                    1008d760 f   libucrt:87tran.obj
 0001:0008c7b7       __rtinfpopse               1008d7b7     libucrt:87tran.obj
 0001:0008c7b9       __rtinfnpopse              1008d7b9     libucrt:87tran.obj
 0001:0008c7c9       __fFLN                     1008d7c9     libucrt:87tran.obj
 0001:0008c87e       __rtinfpop                 1008d87e     libucrt:87tran.obj
 0001:0008c880       __rtinfnpop                1008d880     libucrt:87tran.obj
 0001:0008c890       __rtforexpinf              1008d890 f   libucrt:87tran.obj
 0001:0008c89d       __ffexpm1                  1008d89d     libucrt:87tran.obj
 0001:0008c950       __trandisp1                1008d950 f   libucrt:87disp.obj
 0001:0008c9c5       __trandisp2                1008d9c5 f   libucrt:87disp.obj
 0001:0008ca5f       __rttospopde               1008da5f     libucrt:87disp.obj
 0001:0008ca64       __rttospop                 1008da64     libucrt:87disp.obj
 0001:0008ca70       __rtnospop                 1008da70 f   libucrt:87disp.obj
 0001:0008ca80       __rttosnpop                1008da80 f   libucrt:87disp.obj
 0001:0008ca81       __rtnospopde               1008da81     libucrt:87disp.obj
 0001:0008ca88       __rtzeropop                1008da88     libucrt:87disp.obj
 0001:0008ca8a       __rtzeronpop               1008da8a     libucrt:87disp.obj
 0001:0008ca90       __rtzerospop               1008da90 f   libucrt:87disp.obj
 0001:0008ca9d       __rtonepop                 1008da9d     libucrt:87disp.obj
 0001:0008caa0       __rtonenpop                1008daa0 f   libucrt:87disp.obj
 0001:0008cab0       __tosnan1                  1008dab0 f   libucrt:87disp.obj
 0001:0008cae0       __nosnan2                  1008dae0 f   libucrt:87disp.obj
 0001:0008caf0       __tosnan2                  1008daf0 f   libucrt:87disp.obj
 0001:0008cb20       __nan2                     1008db20 f   libucrt:87disp.obj
 0001:0008cb60       __rtindfpop                1008db60 f   libucrt:87disp.obj
 0001:0008cb62       __rtindfnpop               1008db62     libucrt:87disp.obj
 0001:0008cb73       __rttosnpopde              1008db73     libucrt:87disp.obj
 0001:0008cb80       __rtatan2inf               1008db80 f   libucrt:87disp.obj
 0001:0008cb9d       __rtchsifneg               1008db9d     libucrt:87disp.obj
 0001:0008cbb0       __startTwoArgErrorHandling 1008dbb0 f   libucrt:genexcep.obj
 0001:0008cbc7       __startOneArgErrorHandling 1008dbc7 f   libucrt:genexcep.obj
 0001:0008cc10       __twoToTOS                 1008dc10 f   libucrt:common.obj
 0001:0008cc25       __load_CW                  1008dc25 f   libucrt:common.obj
 0001:0008cc3c       __convertTOStoQNaN         1008dc3c f   libucrt:common.obj
 0001:0008cc55       __fload_withFB             1008dc55 f   libucrt:common.obj
 0001:0008cc98       __checkTOS_withFB          1008dc98 f   libucrt:common.obj
 0001:0008ccae       __fast_exit                1008dcae f   libucrt:common.obj
 0001:0008ccbb       __math_exit                1008dcbb f   libucrt:common.obj
 0001:0008cce5       __check_overflow_exit      1008dce5 f   libucrt:common.obj
 0001:0008ccf9       __check_range_exit         1008dcf9 f   libucrt:common.obj
 0001:0008cd9c       __d_inttype                1008dd9c f   libucrt:powhlp.obj
 0001:0008ce04       __powhlp                   1008de04 f   libucrt:powhlp.obj
 0001:0008cffd       ___acrt_get_sigabrt_handler 1008dffd f   libucrt:signal.obj
 0001:0008d024       ___acrt_initialize_signal_handlers 1008e024 f   libucrt:signal.obj
 0001:0008d042       ___fpecode                 1008e042 f   libucrt:signal.obj
 0001:0008d04b       _raise                     1008e04b f   libucrt:signal.obj
 0001:0008d246       ___acrt_MultiByteToWideChar 1008e246 f   libucrt:multibytetowidechar.obj
 0001:0008d2c2       ___acrt_WideCharToMultiByte 1008e2c2 f   libucrt:widechartomultibyte.obj
 0001:0008d36f       ___acrt_initialize_timeset 1008e36f f   libucrt:timeset.obj
 0001:0008d39a       ___acrt_get_process_end_policy 1008e39a f   libucrt:win_policies.obj
 0001:0008d9a9       ?__acrt_get_utf8_acp_compatibility_codepage@@YAIXZ 1008e9a9 f i libucrt:argv_wildcards.obj
 0001:0008d9e8       ?allocate@?$__crt_win32_buffer@DU__crt_win32_buffer_internal_dynamic_resizing@@@@QAEHI@Z 1008e9e8 f i libucrt:argv_wildcards.obj
 0001:0008daab       ___acrt_expand_narrow_argv_wildcards 1008eaab f   libucrt:argv_wildcards.obj
 0001:0008db7d       ___acrt_GetModuleFileNameA 1008eb7d f   libucrt:getmodulefilenamea.obj
 0001:0008e13c       ___acrt_initialize_multibyte 1008f13c f   libucrt:mbctype.obj
 0001:0008e184       ___acrt_update_thread_multibyte_data 1008f184 f   libucrt:mbctype.obj
 0001:0008e197       __setmbcp_nolock           1008f197 f   libucrt:mbctype.obj
 0001:0008e3e1       __ismbblead                1008f3e1 f   libucrt:ismbbyte.obj
 0001:0008e3f9       ___acrt_initialize_command_line 1008f3f9 f   libucrt:argv_data.obj
 0001:0008e449       ___dcrt_get_narrow_environment_from_os 1008f449 f   libucrt:get_environment_from_os.obj
 0001:0008e4cd       __recalloc_base            1008f4cd f   libucrt:recalloc.obj
 0001:0008e53a       ___acrt_execute_initializers 1008f53a f   libucrt:shared_initialization.obj
 0001:0008e5a2       ___acrt_execute_uninitializers 1008f5a2 f   libucrt:shared_initialization.obj
 0001:0008e5d3       ___acrt_has_user_matherr   1008f5d3 f   libucrt:matherr.obj
 0001:0008e5eb       ___acrt_initialize_user_matherr 1008f5eb f   libucrt:matherr.obj
 0001:0008e5fa       ___acrt_invoke_user_matherr 1008f5fa f   libucrt:matherr.obj
 0001:0008e809       ___acrt_stdio_flush_nolock 1008f809 f   libucrt:fflush.obj
 0001:0008e86e       __fflush_nolock            1008f86e f   libucrt:fflush.obj
 0001:0008e8b6       __flushall                 1008f8b6 f   libucrt:fflush.obj
 0001:0008e8bf       ___acrt_add_locale_ref     1008f8bf f   libucrt:locale_refcounting.obj
 0001:0008e93c       ___acrt_free_locale        1008f93c f   libucrt:locale_refcounting.obj
 0001:0008ea84       ___acrt_locale_add_lc_time_reference 1008fa84 f   libucrt:locale_refcounting.obj
 0001:0008eaad       ___acrt_locale_free_lc_time_if_unreferenced 1008faad f   libucrt:locale_refcounting.obj
 0001:0008eade       ___acrt_locale_release_lc_time_reference 1008fade f   libucrt:locale_refcounting.obj
 0001:0008eb07       ___acrt_release_locale_ref 1008fb07 f   libucrt:locale_refcounting.obj
 0001:0008eb88       ___acrt_update_thread_locale_data 1008fb88 f   libucrt:locale_refcounting.obj
 0001:0008ec09       __updatetlocinfoEx_nolock  1008fc09 f   libucrt:locale_refcounting.obj
 0001:0008ec59       ___acrt_LCMapStringW       1008fc59 f   libucrt:lcmapstringw.obj
 0001:0008ec97       ___acrt_locale_free_monetary 1008fc97 f   libucrt:initmon.obj
 0001:0008ed95       ___acrt_locale_initialize_monetary 1008fd95 f   libucrt:initmon.obj
 0001:0008f14c       ___acrt_locale_free_numeric 1009014c f   libucrt:initnum.obj
 0001:0008f1b5       ___acrt_locale_initialize_numeric 100901b5 f   libucrt:initnum.obj
 0001:0008f678       ___acrt_locale_free_time   10090678 f   libucrt:inittime.obj
 0001:0008f75c       ___acrt_locale_initialize_time 1009075c f   libucrt:inittime.obj
 0001:0008f7d7       _wcscat_s                  100907d7 f   libucrt:wcscat_s.obj
 0001:0008f933       _wcsncat_s                 10090933 f   libucrt:wcsncat_s.obj
 0001:0008fa09       _wcsncpy_s                 10090a09 f   libucrt:wcsncpy_s.obj
 0001:0008fa14       _wcscspn                   10090a14 f   libucrt:wcscspn.obj
 0001:0008fa6d       _wcspbrk                   10090a6d f   libucrt:wcspbrk.obj
 0001:000901b7       ___acrt_get_qualified_locale 100911b7 f   libucrt:get_qualified_locale.obj
 0001:00090b18       ___acrt_get_qualified_locale_downlevel 10091b18 f   libucrt:getqloc_downlevel.obj
 0001:00090d0d       __query_new_mode           10091d0d f   libucrt:new_mode.obj
 0001:00090d40       ?__mbrtowc_utf8@__crt_mbstring@@YAIPA_WPBDIPAU_Mbstatet@@@Z 10091d40 f   libucrt:mbrtowc.obj
 0001:00090d80       ?__mbsrtowcs_utf8@__crt_mbstring@@YAIPA_WPAPBDIPAU_Mbstatet@@@Z 10091d80 f   libucrt:mbrtowc.obj
 0001:00090e7b       ?__c32rtomb_utf8@__crt_mbstring@@YAIPAD_UPAU_Mbstatet@@@Z 10091e7b f   libucrt:c32rtomb.obj
 0001:00090f26       ?return_illegal_sequence@__crt_mbstring@@YAIPAU_Mbstatet@@@Z 10091f26 f i libucrt:c32rtomb.obj
 0001:00090f45       _c32rtomb                  10091f45 f   libucrt:c32rtomb.obj
 0001:00090f50       ___acrt_fp_strflt_to_string 10091f50 f   libucrt:_fptostr.obj
 0001:00091010       ___acrt_fltout             10092010 f   libucrt:cfout.obj
 0001:0009235a       __fcloseall                1009335a f   libucrt:closeall.obj
 0001:00092405       ___acrt_stdio_free_buffer_nolock 10093405 f   libucrt:_freebuf.obj
 0001:00092445       __isatty                   10093445 f   libucrt:isatty.obj
 0001:0009249b       ___acrt_lowio_create_handle_array 1009349b f   libucrt:osfinfo.obj
 0001:00092516       ___acrt_lowio_destroy_handle_array 10093516 f   libucrt:osfinfo.obj
 0001:0009254b       ___acrt_lowio_ensure_fh_exists 1009354b f   libucrt:osfinfo.obj
 0001:000925e9       ___acrt_lowio_lock_fh      100935e9 f   libucrt:osfinfo.obj
 0001:0009260c       ___acrt_lowio_unlock_fh    1009360c f   libucrt:osfinfo.obj
 0001:0009262f       __free_osfhnd              1009362f f   libucrt:osfinfo.obj
 0001:000926c0       __get_osfhandle            100936c0 f   libucrt:osfinfo.obj
 0001:0009272a       ___acrt_GetStringTypeW     1009372a f   libucrt:getstringtypew.obj
 0001:00092743       ?__wcsrtombs_utf8@__crt_mbstring@@YAIPADPAPB_WIPAU_Mbstatet@@@Z 10093743 f   libucrt:wcrtomb.obj
 0001:00092891       ___acrt_DownlevelLCIDToLocaleName 10093891 f   libucrt:lcidtoname_downlevel.obj
 0001:0009293b       ___acrt_DownlevelLocaleNameToLCID 1009393b f   libucrt:lcidtoname_downlevel.obj
 0001:00092a1a       _strncpy_s                 10093a1a f   libucrt:strncpy_s.obj
 0001:00092d32       ___acrt_fenv_get_control   10093d32 f   libucrt:_fenvutils.obj
 0001:00092db2       ___acrt_fenv_get_status    10093db2 f   libucrt:_fenvutils.obj
 0001:00092e6a       ___acrt_fenv_set_control   10093e6a f   libucrt:_fenvutils.obj
 0001:00092ed2       ___acrt_fenv_set_status    10093ed2 f   libucrt:_fenvutils.obj
 0001:00092fc9       ___libm_error_support      10093fc9 f   libucrt:libm_error.obj
 0001:000931bd       __87except                 100941bd f   libucrt:87except.obj
 0001:000932c7       __frnd                     100942c7 f   libucrt:frnd.obj
 0001:00093320       _qsort                     10094320 f   libucrt:qsort.obj
 0001:00093770       _strpbrk                   10094770 f   libucrt:strpbrk.obj
 0001:000937b0       __mbsdec                   100947b0 f   libucrt:mbsdec.obj
 0001:000937c7       __mbsdec_l                 100947c7 f   libucrt:mbsdec.obj
 0001:00093863       __msize_base               10094863 f   libucrt:msize.obj
 0001:00093938       __commit                   10094938 f   libucrt:commit.obj
 0001:0009412e       __write                    1009512e f   libucrt:write.obj
 0001:00094220       __write_nolock             10095220 f   libucrt:write.obj
 0001:00094402       ___ascii_wcsnicmp          10095402 f   libucrt:wcsnicmp.obj
 0001:00094451       __wcsnicmp                 10095451 f   libucrt:wcsnicmp.obj
 0001:0009449d       __wcsnicmp_l               1009549d f   libucrt:wcsnicmp.obj
 0001:00094570       ?__mbrtoc32_utf8@__crt_mbstring@@YAIPA_UPBDIPAU_Mbstatet@@@Z 10095570 f   libucrt:mbrtoc32.obj
 0001:00094717       _fegetenv                  10095717 f   libucrt:fegetenv.obj
 0001:00094734       _fesetenv                  10095734 f   libucrt:fesetenv.obj
 0001:0009477f       _feholdexcept              1009577f f   libucrt:feholdexcept.obj
 0001:000947d0       __CIlog10                  100957d0 f   libucrt:log10_impl.obj
 0001:0009480b       __CIlog10_default          1009580b f   libucrt:log10_impl.obj
 0001:0009481f       __log10_default            1009581f     libucrt:log10_impl.obj
 0001:000948e0       _ceil                      100958e0 f   libucrt:ceil_pentium4.obj
 0001:00094920       __ceil_pentium4            10095920 f   libucrt:ceil_pentium4.obj
 0001:00094a79       __lseeki64_nolock          10095a79 f   libucrt:lseek.obj
 0001:00094a94       __fclose_nolock            10095a94 f   libucrt:fclose.obj
 0001:00094b0b       _fclose                    10095b0b f   libucrt:fclose.obj
 0001:00094b8f       __query_app_type           10095b8f f   libucrt:report_runtime_error.obj
 0001:00094b95       ?__c16rtomb_utf8@__crt_mbstring@@YAIPAD_SPAU_Mbstatet@@@Z 10095b95 f   libucrt:c16rtomb.obj
 0001:00094c2f       __putwch_nolock            10095c2f f   libucrt:putwch.obj
 0001:00094c61       __clearfp                  10095c61 f   libucrt:ieee87.obj
 0001:00094d40       __CIlog10_pentium4         10095d40 f   libucrt:log10_pentium4.obj
 0001:00094d58       __log10_pentium4           10095d58     libucrt:log10_pentium4.obj
 0001:00094fd0       __ceil_default             10095fd0 f   libucrt:ceil.obj
 0001:00095111       __close                    10096111 f   libucrt:close.obj
 0001:0009519e       __close_nolock             1009619e f   libucrt:close.obj
 0001:0009523a       ?__acrt_stdio_free_stream@@YAXV__crt_stdio_stream@@@Z 1009623a f   libucrt:stream.obj
 0001:00095280       ___ascii_strnicmp          10096280 f   libucrt:_strnicm.obj
 0001:00095300       ___dcrt_lowio_ensure_console_output_initialized 10096300 f   libucrt:initcon.obj
 0001:0009531f       ___dcrt_terminate_console_output 1009631f f   libucrt:initcon.obj
 0001:00095336       ___dcrt_write_console      10096336 f   libucrt:initcon.obj
 0001:00095390       __FindPESection            10096390 f   LIBCMT:pesect.obj
 0001:000953e0       __IsNonwritableInCurrentImage 100963e0 f   LIBCMT:pesect.obj
 0001:000954a0       __ValidateImageBase        100964a0 f   LIBCMT:pesect.obj
 0001:000954e0       __aulldvrm                 100964e0 f   LIBCMT:ulldvrm.obj
 0001:00095580       __allshl                   10096580 f   LIBCMT:llshl.obj
 0001:000955a0       __aullshr                  100965a0 f   LIBCMT:ullshr.obj
 0001:000955c0       __alldvrm                  100965c0 f   LIBCMT:lldvrm.obj
 0001:000956a0       __ftol2_sse_excpt          100966a0     LIBCMT:ftol2.obj
 0001:000956a0       __ftol2_sse                100966a0     LIBCMT:ftol2.obj
 0001:000956a0       __ftoi2                    100966a0 f   LIBCMT:ftol2.obj
 0001:00095720       __ftoui2                   10096720 f   LIBCMT:ftol2.obj
 0001:000957d0       __ftol2                    100967d0 f   LIBCMT:ftol2.obj
 0001:00095880       __ftoul2                   10096880 f   LIBCMT:ftol2.obj
 0001:00095940       _strrchr                   10096940 f   libvcruntime:strrchr.obj
 0001:00095a80       _strchr                    10096a80 f   libvcruntime:strchr.obj
 0001:00095aee       ___from_strstr_to_strchr   10096aee     libvcruntime:strchr.obj
 0001:00095bab       __filter_x86_sse2_floating_point_exception_default 10096bab f   LIBCMT:x86_exception_filter.obj
 0001:00095bab       __filter_x86_sse2_floating_point_exception 10096bab f   LIBCMT:x86_exception_filter.obj
 0001:00095c30       __aullrem                  10096c30 f   LIBCMT:ullrem.obj
 0001:0009eba0       ??__Fbatch_options@?1??extract@Plugin@@QAEXABVPluginPanelItemAccessor@1@AAV?$basic_string@_WU?$char_traits@_W@std@@V?$allocator@_W@2@@std@@_N_K@Z@YAXXZ 1009fba0 f i plugin.obj
 0002:00000000       __imp__RegQueryValueExW@24 100a0000     advapi32:ADVAPI32.dll
 0002:00000004       __imp__RegCloseKey@4       100a0004     advapi32:ADVAPI32.dll
 0002:00000008       __imp__RegOpenKeyExW@20    100a0008     advapi32:ADVAPI32.dll
 0002:0000000c       \177ADVAPI32_NULL_THUNK_DATA 100a000c     advapi32:ADVAPI32.dll
 0002:00000010       __imp__ReadFile@20         100a0010     kernel32:KERNEL32.dll
 0002:00000014       __imp__GetConsoleMode@8    100a0014     kernel32:KERNEL32.dll
 0002:00000018       __imp__GetConsoleCP@0      100a0018     kernel32:KERNEL32.dll
 0002:0000001c       __imp__FlushFileBuffers@4  100a001c     kernel32:KERNEL32.dll
 0002:00000020       __imp__HeapSize@12         100a0020     kernel32:KERNEL32.dll
 0002:00000024       __imp__SetStdHandle@8      100a0024     kernel32:KERNEL32.dll
 0002:00000028       __imp__FreeEnvironmentStringsW@4 100a0028     kernel32:KERNEL32.dll
 0002:0000002c       __imp__GetEnvironmentStringsW@0 100a002c     kernel32:KERNEL32.dll
 0002:00000030       __imp__GetCommandLineW@0   100a0030     kernel32:KERNEL32.dll
 0002:00000034       __imp__GetCommandLineA@0   100a0034     kernel32:KERNEL32.dll
 0002:00000038       __imp__IsValidCodePage@4   100a0038     kernel32:KERNEL32.dll
 0002:0000003c       __imp__FindFirstFileExW@24 100a003c     kernel32:KERNEL32.dll
 0002:00000040       __imp__FreeLibrary@4       100a0040     kernel32:KERNEL32.dll
 0002:00000044       __imp__LoadLibraryW@4      100a0044     kernel32:KERNEL32.dll
 0002:00000048       __imp__GetProcAddress@8    100a0048     kernel32:KERNEL32.dll
 0002:0000004c       __imp__lstrcmpiW@8         100a004c     kernel32:KERNEL32.dll
 0002:00000050       __imp__EnterCriticalSection@4 100a0050     kernel32:KERNEL32.dll
 0002:00000054       __imp__LeaveCriticalSection@4 100a0054     kernel32:KERNEL32.dll
 0002:00000058       __imp__QueryPerformanceCounter@4 100a0058     kernel32:KERNEL32.dll
 0002:0000005c       __imp__QueryPerformanceFrequency@4 100a005c     kernel32:KERNEL32.dll
 0002:00000060       __imp__GetPriorityClass@4  100a0060     kernel32:KERNEL32.dll
 0002:00000064       __imp__GetCurrentProcess@0 100a0064     kernel32:KERNEL32.dll
 0002:00000068       __imp__SetConsoleTitleW@4  100a0068     kernel32:KERNEL32.dll
 0002:0000006c       __imp__GetStdHandle@4      100a006c     kernel32:KERNEL32.dll
 0002:00000070       __imp__PeekConsoleInputW@16 100a0070     kernel32:KERNEL32.dll
 0002:00000074       __imp__ReadConsoleInputW@16 100a0074     kernel32:KERNEL32.dll
 0002:00000078       __imp__SetPriorityClass@8  100a0078     kernel32:KERNEL32.dll
 0002:0000007c       __imp__CompareFileTime@8   100a007c     kernel32:KERNEL32.dll
 0002:00000080       __imp__SetThreadExecutionState@4 100a0080     kernel32:KERNEL32.dll
 0002:00000084       __imp__GlobalMemoryStatus@4 100a0084     kernel32:KERNEL32.dll
 0002:00000088       __imp__VirtualAlloc@16     100a0088     kernel32:KERNEL32.dll
 0002:0000008c       __imp__GetLastError@0      100a008c     kernel32:KERNEL32.dll
 0002:00000090       __imp__VirtualFree@12      100a0090     kernel32:KERNEL32.dll
 0002:00000094       __imp__GetDiskFreeSpaceW@20 100a0094     kernel32:KERNEL32.dll
 0002:00000098       __imp__DeviceIoControl@32  100a0098     kernel32:KERNEL32.dll
 0002:0000009c       __imp__GetSystemTime@4     100a009c     kernel32:KERNEL32.dll
 0002:000000a0       __imp__SystemTimeToFileTime@8 100a00a0     kernel32:KERNEL32.dll
 0002:000000a4       __imp__MultiByteToWideChar@24 100a00a4     kernel32:KERNEL32.dll
 0002:000000a8       __imp__FileTimeToLocalFileTime@8 100a00a8     kernel32:KERNEL32.dll
 0002:000000ac       __imp__FileTimeToSystemTime@8 100a00ac     kernel32:KERNEL32.dll
 0002:000000b0       __imp__GetDateFormatW@24   100a00b0     kernel32:KERNEL32.dll
 0002:000000b4       __imp__GetTimeFormatW@24   100a00b4     kernel32:KERNEL32.dll
 0002:000000b8       __imp__FindResourceExW@16  100a00b8     kernel32:KERNEL32.dll
 0002:000000bc       __imp__LoadResource@8      100a00bc     kernel32:KERNEL32.dll
 0002:000000c0       __imp__LockResource@4      100a00c0     kernel32:KERNEL32.dll
 0002:000000c4       __imp__EnumResourceNamesW@16 100a00c4     kernel32:KERNEL32.dll
 0002:000000c8       __imp__EnumResourceLanguagesW@20 100a00c8     kernel32:KERNEL32.dll
 0002:000000cc       __imp__LoadLibraryExW@12   100a00cc     kernel32:KERNEL32.dll
 0002:000000d0       __imp__BeginUpdateResourceW@8 100a00d0     kernel32:KERNEL32.dll
 0002:000000d4       __imp__EndUpdateResourceW@8 100a00d4     kernel32:KERNEL32.dll
 0002:000000d8       __imp__UpdateResourceW@24  100a00d8     kernel32:KERNEL32.dll
 0002:000000dc       __imp__InitializeCriticalSection@4 100a00dc     kernel32:KERNEL32.dll
 0002:000000e0       __imp__DeleteCriticalSection@4 100a00e0     kernel32:KERNEL32.dll
 0002:000000e4       __imp__FormatMessageW@28   100a00e4     kernel32:KERNEL32.dll
 0002:000000e8       __imp__GetModuleHandleW@4  100a00e8     kernel32:KERNEL32.dll
 0002:000000ec       __imp__LocalFree@4         100a00ec     kernel32:KERNEL32.dll
 0002:000000f0       __imp__GetConsoleTitleW@8  100a00f0     kernel32:KERNEL32.dll
 0002:000000f4       __imp__WideCharToMultiByte@32 100a00f4     kernel32:KERNEL32.dll
 0002:000000f8       __imp__ExpandEnvironmentStringsW@12 100a00f8     kernel32:KERNEL32.dll
 0002:000000fc       __imp__CreateFileW@28      100a00fc     kernel32:KERNEL32.dll
 0002:00000100       __imp__CloseHandle@4       100a0100     kernel32:KERNEL32.dll
 0002:00000104       __imp__GetFileSizeEx@8     100a0104     kernel32:KERNEL32.dll
 0002:00000108       __imp__WriteConsoleW@20    100a0108     kernel32:KERNEL32.dll
 0002:0000010c       __imp__WriteFile@20        100a010c     kernel32:KERNEL32.dll
 0002:00000110       __imp__SetFileTime@16      100a0110     kernel32:KERNEL32.dll
 0002:00000114       __imp__SetFilePointerEx@20 100a0114     kernel32:KERNEL32.dll
 0002:00000118       __imp__SetEndOfFile@4      100a0118     kernel32:KERNEL32.dll
 0002:0000011c       __imp__GetFileInformationByHandle@8 100a011c     kernel32:KERNEL32.dll
 0002:00000120       __imp__GetFileAttributesW@4 100a0120     kernel32:KERNEL32.dll
 0002:00000124       __imp__SetFileAttributesW@8 100a0124     kernel32:KERNEL32.dll
 0002:00000128       __imp__DeleteFileW@4       100a0128     kernel32:KERNEL32.dll
 0002:0000012c       __imp__CreateDirectoryW@8  100a012c     kernel32:KERNEL32.dll
 0002:00000130       __imp__RemoveDirectoryW@4  100a0130     kernel32:KERNEL32.dll
 0002:00000134       __imp__MoveFileExW@12      100a0134     kernel32:KERNEL32.dll
 0002:00000138       __imp__FindFirstFileW@8    100a0138     kernel32:KERNEL32.dll
 0002:0000013c       __imp__FindClose@4         100a013c     kernel32:KERNEL32.dll
 0002:00000140       __imp__SetLastError@4      100a0140     kernel32:KERNEL32.dll
 0002:00000144       __imp__FindNextFileW@8     100a0144     kernel32:KERNEL32.dll
 0002:00000148       __imp__GetTempPathW@8      100a0148     kernel32:KERNEL32.dll
 0002:0000014c       __imp__GetTempFileNameW@16 100a014c     kernel32:KERNEL32.dll
 0002:00000150       __imp__HeapSetInformation@16 100a0150     kernel32:KERNEL32.dll
 0002:00000154       __imp__SearchPathW@24      100a0154     kernel32:KERNEL32.dll
 0002:00000158       __imp__VirtualQuery@12     100a0158     kernel32:KERNEL32.dll
 0002:0000015c       __imp__VirtualProtect@16   100a015c     kernel32:KERNEL32.dll
 0002:00000160       __imp__GetModuleHandleA@4  100a0160     kernel32:KERNEL32.dll
 0002:00000164       __imp__GetCPInfo@8         100a0164     kernel32:KERNEL32.dll
 0002:00000168       __imp__GetOEMCP@0          100a0168     kernel32:KERNEL32.dll
 0002:0000016c       __imp__GetACP@0            100a016c     kernel32:KERNEL32.dll
 0002:00000170       __imp__GetModuleFileNameW@12 100a0170     kernel32:KERNEL32.dll
 0002:00000174       __imp__GetCurrentThread@0  100a0174     kernel32:KERNEL32.dll
 0002:00000178       __imp__GetThreadTimes@20   100a0178     kernel32:KERNEL32.dll
 0002:0000017c       __imp__GetStringTypeW@16   100a017c     kernel32:KERNEL32.dll
 0002:00000180       __imp__InitializeCriticalSectionAndSpinCount@8 100a0180     kernel32:KERNEL32.dll
 0002:00000184       __imp__SwitchToThread@0    100a0184     kernel32:KERNEL32.dll
 0002:00000188       __imp__TlsAlloc@0          100a0188     kernel32:KERNEL32.dll
 0002:0000018c       __imp__TlsGetValue@4       100a018c     kernel32:KERNEL32.dll
 0002:00000190       __imp__TlsSetValue@8       100a0190     kernel32:KERNEL32.dll
 0002:00000194       __imp__TlsFree@4           100a0194     kernel32:KERNEL32.dll
 0002:00000198       __imp__GetSystemTimeAsFileTime@4 100a0198     kernel32:KERNEL32.dll
 0002:0000019c       __imp__LCMapStringW@24     100a019c     kernel32:KERNEL32.dll
 0002:000001a0       __imp__GetLocaleInfoW@16   100a01a0     kernel32:KERNEL32.dll
 0002:000001a4       __imp__UnhandledExceptionFilter@4 100a01a4     kernel32:KERNEL32.dll
 0002:000001a8       __imp__SetUnhandledExceptionFilter@4 100a01a8     kernel32:KERNEL32.dll
 0002:000001ac       __imp__TerminateProcess@8  100a01ac     kernel32:KERNEL32.dll
 0002:000001b0       __imp__IsProcessorFeaturePresent@4 100a01b0     kernel32:KERNEL32.dll
 0002:000001b4       __imp__IsDebuggerPresent@0 100a01b4     kernel32:KERNEL32.dll
 0002:000001b8       __imp__GetStartupInfoW@4   100a01b8     kernel32:KERNEL32.dll
 0002:000001bc       __imp__GetCurrentProcessId@0 100a01bc     kernel32:KERNEL32.dll
 0002:000001c0       __imp__GetCurrentThreadId@0 100a01c0     kernel32:KERNEL32.dll
 0002:000001c4       __imp__HeapReAlloc@16      100a01c4     kernel32:KERNEL32.dll
 0002:000001c8       __imp__RtlUnwind@16        100a01c8     kernel32:KERNEL32.dll
 0002:000001cc       __imp__RaiseException@16   100a01cc     kernel32:KERNEL32.dll
 0002:000001d0       __imp__GetProcessHeap@0    100a01d0     kernel32:KERNEL32.dll
 0002:000001d4       __imp__ExitProcess@4       100a01d4     kernel32:KERNEL32.dll
 0002:000001d8       __imp__HeapFree@12         100a01d8     kernel32:KERNEL32.dll
 0002:000001dc       __imp__HeapAlloc@12        100a01dc     kernel32:KERNEL32.dll
 0002:000001e0       __imp__GetFileType@4       100a01e0     kernel32:KERNEL32.dll
 0002:000001e4       __imp__IsValidLocale@8     100a01e4     kernel32:KERNEL32.dll
 0002:000001e8       __imp__GetUserDefaultLCID@0 100a01e8     kernel32:KERNEL32.dll
 0002:000001ec       __imp__EnumSystemLocalesW@8 100a01ec     kernel32:KERNEL32.dll
 0002:000001f0       \177KERNEL32_NULL_THUNK_DATA 100a01f0     kernel32:KERNEL32.dll
 0002:000001f4       __imp__SysStringLen@4      100a01f4     oleaut32:OLEAUT32.dll
 0002:000001f8       __imp__SysStringByteLen@4  100a01f8     oleaut32:OLEAUT32.dll
 0002:000001fc       __imp__SysAllocStringLen@8 100a01fc     oleaut32:OLEAUT32.dll
 0002:00000200       __imp__SysFreeString@4     100a0200     oleaut32:OLEAUT32.dll
 0002:00000204       \177OLEAUT32_NULL_THUNK_DATA 100a0204     oleaut32:OLEAUT32.dll
 0002:00000208       __imp__CharUpperBuffW@8    100a0208     user32:USER32.dll
 0002:0000020c       __imp__CharUpperW@4        100a020c     user32:USER32.dll
 0002:00000210       \177USER32_NULL_THUNK_DATA 100a0210     user32:USER32.dll
 0002:00000214       __imp__GetFileVersionInfoSizeW@8 100a0214     version:VERSION.dll
 0002:00000218       __imp__GetFileVersionInfoW@16 100a0218     version:VERSION.dll
 0002:0000021c       __imp__VerQueryValueW@16   100a021c     version:VERSION.dll
 0002:00000220       \177VERSION_NULL_THUNK_DATA 100a0220     version:VERSION.dll
 0002:00000224       __imp__PropVariantClear@4  100a0224     ole32:ole32.dll
 0002:00000228       __imp__CoCreateGuid@4      100a0228     ole32:ole32.dll
 0002:0000022c       __imp__StringFromGUID2@12  100a022c     ole32:ole32.dll
 0002:00000230       __imp__PropVariantCopy@8   100a0230     ole32:ole32.dll
 0002:00000234       \177ole32_NULL_THUNK_DATA  100a0234     ole32:ole32.dll
 0002:00000238       ___guard_check_icall_fptr  100a0238     LIBCMT:guard_support.obj
 0002:0000023c       ___xc_a                    100a023c     LIBCMT:initializers.obj
 0002:0000029c       ___xc_z                    100a029c     LIBCMT:initializers.obj
 0002:000002a0       ___xi_a                    100a02a0     LIBCMT:initializers.obj
 0002:000002a8       ___acrt_stdio_initializer  100a02a8     libucrt:stdio_initializer.obj
 0002:000002ac       ___acrt_tran_sse2_initializer 100a02ac     libucrt:sse2_initializer.obj
 0002:000002b0       ___acrt_timeset_initializer 100a02b0     libucrt:timeset_initializer.obj
 0002:000002b4       ___acrt_multibyte_initializer 100a02b4     libucrt:multibyte_initializer.obj
 0002:000002b8       ___xi_z                    100a02b8     LIBCMT:initializers.obj
 0002:000002bc       ___xp_a                    100a02bc     LIBCMT:initializers.obj
 0002:000002c0       ___acrt_locale_terminator  100a02c0     libucrt:locale_initializer.obj
 0002:000002c4       ___dcrt_console_output_terminator 100a02c4     libucrt:console_output_initializer.obj
 0002:000002c8       ___acrt_stdio_terminator   100a02c8     libucrt:stdio_initializer.obj
 0002:000002cc       ___xp_z                    100a02cc     LIBCMT:initializers.obj
 0002:000002d0       ___xt_a                    100a02d0     LIBCMT:initializers.obj
 0002:000002d4       ___xt_z                    100a02d4     LIBCMT:initializers.obj
 0002:000002e0       __imp__EncodePointer@4     100a02e0     vc_crt_fix.obj
 0002:000002e4       __imp__DecodePointer@4     100a02e4     vc_crt_fix.obj
 0002:000002e8       __imp__GetModuleHandleExW@12 100a02e8     vc_crt_fix.obj
 0002:000002ec       __imp__InitializeSListHead@4 100a02ec     vc_crt_fix.obj
 0002:000002f0       __imp__InterlockedFlushSList@4 100a02f0     vc_crt_fix.obj
 0002:000002f4       __imp__InterlockedPopEntrySList@4 100a02f4     vc_crt_fix.obj
 0002:000002f8       __imp__InterlockedPushEntrySList@8 100a02f8     vc_crt_fix.obj
 0002:000002fc       __imp__InterlockedPushListSListEx@16 100a02fc     vc_crt_fix.obj
 0002:00000300       __imp__RtlFirstEntrySList@4 100a0300     vc_crt_fix.obj
 0002:00000304       __imp__QueryDepthSList@4   100a0304     vc_crt_fix.obj
 0002:00000308       __imp__GetNumaHighestNodeNumber@4 100a0308     vc_crt_fix.obj
 0002:0000030c       __imp__GetLogicalProcessorInformation@8 100a030c     vc_crt_fix.obj
 0002:00000310       __imp__SetThreadStackGuarantee@4 100a0310     vc_crt_fix.obj
 0002:00000314       _IID_IUnknown              100a0314     uuid:unknwn_i.obj
 0002:00000328       ??_7exception@std@@6B@     100a0328     libcpmt:xthrow.obj
 0002:00000334       ??_7bad_alloc@std@@6B@     100a0334     libcpmt:xthrow.obj
 0002:0000033c       ??_C@_0P@GHFPNOJB@bad?5allocation@ 100a033c     libcpmt:xthrow.obj
 0002:00000350       ??_7logic_error@std@@6B@   100a0350     libcpmt:xthrow.obj
 0002:0000035c       ??_7length_error@std@@6B@  100a035c     libcpmt:xthrow.obj
 0002:00000368       ??_7out_of_range@std@@6B@  100a0368     libcpmt:xthrow.obj
 0002:00000374       ??_7runtime_error@std@@6B@ 100a0374     libcpmt:xthrow.obj
 0002:00000380       ?_BADOFF@std@@3_JB         100a0380     libcpmt:ios.obj
 0002:0000038c       ??_7_Facet_base@std@@6B@   100a038c     libcpmt:locale0.obj
 0002:0000039c       ??_7_Locimp@locale@std@@6B@ 100a039c     libcpmt:locale0.obj
 0002:000003a8       ??_C@_01NBENCBCI@?$CK@     100a03a8     libcpmt:locale0.obj
 0002:000003ac       ??_C@_01GFHCPBMG@C@        100a03ac     libcpmt:locale0.obj
 0002:00000888       ??_C@_0BN@LKKBCCDB@address?5family?5not?5supported@ 100a0888     libcpmt:syserror.obj
 0002:000008a8       ??_C@_0P@LDMLAFHI@address?5in?5use@ 100a08a8     libcpmt:syserror.obj
 0002:000008b8       ??_C@_0BG@DHPCNBJB@address?5not?5available@ 100a08b8     libcpmt:syserror.obj
 0002:000008d0       ??_C@_0BC@DFIBIBIL@already?5connected@ 100a08d0     libcpmt:syserror.obj
 0002:000008e4       ??_C@_0BH@CAKOHOMI@argument?5list?5too?5long@ 100a08e4     libcpmt:syserror.obj
 0002:000008fc       ??_C@_0BH@CGIMPKIM@argument?5out?5of?5domain@ 100a08fc     libcpmt:syserror.obj
 0002:00000914       ??_C@_0M@KGHGGJGL@bad?5address@ 100a0914     libcpmt:syserror.obj
 0002:00000920       ??_C@_0BE@MPJPGCEO@bad?5file?5descriptor@ 100a0920     libcpmt:syserror.obj
 0002:00000934       ??_C@_0M@PMMIEFCP@bad?5message@ 100a0934     libcpmt:syserror.obj
 0002:00000940       ??_C@_0M@KPHOFDBE@broken?5pipe@ 100a0940     libcpmt:syserror.obj
 0002:0000094c       ??_C@_0BD@MGNDDEGM@connection?5aborted@ 100a094c     libcpmt:syserror.obj
 0002:00000960       ??_C@_0BP@KAIHPOGN@connection?5already?5in?5progress@ 100a0960     libcpmt:syserror.obj
 0002:00000980       ??_C@_0BD@PJLIIJEL@connection?5refused@ 100a0980     libcpmt:syserror.obj
 0002:00000994       ??_C@_0BB@IECNJNOI@connection?5reset@ 100a0994     libcpmt:syserror.obj
 0002:000009a8       ??_C@_0BC@PPHBOELF@cross?5device?5link@ 100a09a8     libcpmt:syserror.obj
 0002:000009bc       ??_C@_0BN@KDMIFEIP@destination?5address?5required@ 100a09bc     libcpmt:syserror.obj
 0002:000009dc       ??_C@_0BI@NGCEHDD@device?5or?5resource?5busy@ 100a09dc     libcpmt:syserror.obj
 0002:000009f4       ??_C@_0BE@JIDOCPHM@directory?5not?5empty@ 100a09f4     libcpmt:syserror.obj
 0002:00000a08       ??_C@_0BI@BNCLIGPB@executable?5format?5error@ 100a0a08     libcpmt:syserror.obj
 0002:00000a20       ??_C@_0M@MIDIAGJP@file?5exists@ 100a0a20     libcpmt:syserror.obj
 0002:00000a2c       ??_C@_0P@DNAJLBJK@file?5too?5large@ 100a0a2c     libcpmt:syserror.obj
 0002:00000a3c       ??_C@_0BC@EJHOMAAK@filename?5too?5long@ 100a0a3c     libcpmt:syserror.obj
 0002:00000a50       ??_C@_0BH@KEFGLDAF@function?5not?5supported@ 100a0a50     libcpmt:syserror.obj
 0002:00000a68       ??_C@_0BB@DHFDFGDM@host?5unreachable@ 100a0a68     libcpmt:syserror.obj
 0002:00000a7c       ??_C@_0BD@JPHBMONG@identifier?5removed@ 100a0a7c     libcpmt:syserror.obj
 0002:00000a90       ??_C@_0BG@CDNPAGJK@illegal?5byte?5sequence@ 100a0a90     libcpmt:syserror.obj
 0002:00000aa8       ??_C@_0CD@BNPLBMNA@inappropriate?5io?5control?5operat@ 100a0aa8     libcpmt:syserror.obj
 0002:00000acc       ??_C@_0M@EGEKIIMP@interrupted@ 100a0acc     libcpmt:syserror.obj
 0002:00000ad8       ??_C@_0BB@FCMFBGOM@invalid?5argument@ 100a0ad8     libcpmt:syserror.obj
 0002:00000aec       ??_C@_0N@OHAFKDEK@invalid?5seek@ 100a0aec     libcpmt:syserror.obj
 0002:00000afc       ??_C@_08GLNPIFBN@io?5error@ 100a0afc     libcpmt:syserror.obj
 0002:00000b08       ??_C@_0P@FLLDBIDK@is?5a?5directory@ 100a0b08     libcpmt:syserror.obj
 0002:00000b18       ??_C@_0N@IFLPBIOP@message?5size@ 100a0b18     libcpmt:syserror.obj
 0002:00000b28       ??_C@_0N@KIIEAAIO@network?5down@ 100a0b28     libcpmt:syserror.obj
 0002:00000b38       ??_C@_0O@FNPDBHEE@network?5reset@ 100a0b38     libcpmt:syserror.obj
 0002:00000b48       ??_C@_0BE@IFNCKGE@network?5unreachable@ 100a0b48     libcpmt:syserror.obj
 0002:00000b5c       ??_C@_0BA@PFFCAOFK@no?5buffer?5space@ 100a0b5c     libcpmt:syserror.obj
 0002:00000b6c       ??_C@_0BB@IEPBLJHK@no?5child?5process@ 100a0b6c     libcpmt:syserror.obj
 0002:00000b80       ??_C@_07PLECNNKG@no?5link@ 100a0b80     libcpmt:syserror.obj
 0002:00000b88       ??_C@_0BC@NJECKMKE@no?5lock?5available@ 100a0b88     libcpmt:syserror.obj
 0002:00000b9c       ??_C@_0BF@PBGGPKKE@no?5message?5available@ 100a0b9c     libcpmt:syserror.obj
 0002:00000bb4       ??_C@_0L@EDOLMPAK@no?5message@ 100a0bb4     libcpmt:syserror.obj
 0002:00000bc0       ??_C@_0BD@EAMBFIDF@no?5protocol?5option@ 100a0bc0     libcpmt:syserror.obj
 0002:00000bd4       ??_C@_0BD@IJDJKDEA@no?5space?5on?5device@ 100a0bd4     libcpmt:syserror.obj
 0002:00000be8       ??_C@_0BE@MKFDAFMP@no?5stream?5resources@ 100a0be8     libcpmt:syserror.obj
 0002:00000bfc       ??_C@_0BK@IMCPHCBI@no?5such?5device?5or?5address@ 100a0bfc     libcpmt:syserror.obj
 0002:00000c18       ??_C@_0P@FDINDDOK@no?5such?5device@ 100a0c18     libcpmt:syserror.obj
 0002:00000c28       ??_C@_0BK@NDOCBPGE@no?5such?5file?5or?5directory@ 100a0c28     libcpmt:syserror.obj
 0002:00000c44       ??_C@_0BA@ENLPPKBN@no?5such?5process@ 100a0c44     libcpmt:syserror.obj
 0002:00000c54       ??_C@_0BA@DOCPFFJG@not?5a?5directory@ 100a0c54     libcpmt:syserror.obj
 0002:00000c64       ??_C@_0N@POEIPGGF@not?5a?5socket@ 100a0c64     libcpmt:syserror.obj
 0002:00000c74       ??_C@_0N@LGAPMMPI@not?5a?5stream@ 100a0c74     libcpmt:syserror.obj
 0002:00000c84       ??_C@_0O@GLMIBBEG@not?5connected@ 100a0c84     libcpmt:syserror.obj
 0002:00000c94       ??_C@_0BC@ENOOLCNF@not?5enough?5memory@ 100a0c94     libcpmt:syserror.obj
 0002:00000ca8       ??_C@_0O@NHEDABJP@not?5supported@ 100a0ca8     libcpmt:syserror.obj
 0002:00000cb8       ??_C@_0BD@MOLBPMEA@operation?5canceled@ 100a0cb8     libcpmt:syserror.obj
 0002:00000ccc       ??_C@_0BG@KDKHOPCO@operation?5in?5progress@ 100a0ccc     libcpmt:syserror.obj
 0002:00000ce4       ??_C@_0BI@OHIEJAAB@operation?5not?5permitted@ 100a0ce4     libcpmt:syserror.obj
 0002:00000cfc       ??_C@_0BI@LNEGIFLN@operation?5not?5supported@ 100a0cfc     libcpmt:syserror.obj
 0002:00000d14       ??_C@_0BG@OEMDKMEE@operation?5would?5block@ 100a0d14     libcpmt:syserror.obj
 0002:00000d2c       ??_C@_0L@BLPOFLNJ@owner?5dead@ 100a0d2c     libcpmt:syserror.obj
 0002:00000d38       ??_C@_0BC@CIJDGCDI@permission?5denied@ 100a0d38     libcpmt:syserror.obj
 0002:00000d4c       ??_C@_0P@FNPOCJBE@protocol?5error@ 100a0d4c     libcpmt:syserror.obj
 0002:00000d5c       ??_C@_0BH@JPPPLHJB@protocol?5not?5supported@ 100a0d5c     libcpmt:syserror.obj
 0002:00000d74       ??_C@_0BG@EICBIHDP@read?5only?5file?5system@ 100a0d74     libcpmt:syserror.obj
 0002:00000d8c       ??_C@_0BO@BJBOMOEJ@resource?5deadlock?5would?5occur@ 100a0d8c     libcpmt:syserror.obj
 0002:00000dac       ??_C@_0BP@LKNGHENJ@resource?5unavailable?5try?5again@ 100a0dac     libcpmt:syserror.obj
 0002:00000dcc       ??_C@_0BE@GOIPJJHG@result?5out?5of?5range@ 100a0dcc     libcpmt:syserror.obj
 0002:00000de0       ??_C@_0BG@MPLKFPAE@state?5not?5recoverable@ 100a0de0     libcpmt:syserror.obj
 0002:00000df8       ??_C@_0P@DIIFGFCG@stream?5timeout@ 100a0df8     libcpmt:syserror.obj
 0002:00000e08       ??_C@_0P@IPFDMIFL@text?5file?5busy@ 100a0e08     libcpmt:syserror.obj
 0002:00000e18       ??_C@_09KJPPMAOI@timed?5out@ 100a0e18     libcpmt:syserror.obj
 0002:00000e24       ??_C@_0BO@HACHBEKI@too?5many?5files?5open?5in?5system@ 100a0e24     libcpmt:syserror.obj
 0002:00000e44       ??_C@_0BE@GHAFMPAH@too?5many?5files?5open@ 100a0e44     libcpmt:syserror.obj
 0002:00000e58       ??_C@_0P@HCOMKFCC@too?5many?5links@ 100a0e58     libcpmt:syserror.obj
 0002:00000e68       ??_C@_0BO@EFGOJEF@too?5many?5symbolic?5link?5levels@ 100a0e68     libcpmt:syserror.obj
 0002:00000e88       ??_C@_0BA@KGKGOOJA@value?5too?5large@ 100a0e88     libcpmt:syserror.obj
 0002:00000e98       ??_C@_0BE@MIEJDDNH@wrong?5protocol?5type@ 100a0e98     libcpmt:syserror.obj
 0002:00000eac       ??_C@_0O@BFJCFAAK@unknown?5error@ 100a0eac     libcpmt:syserror.obj
 0002:00000ec0       ??_7bad_array_new_length@std@@6B@ 100a0ec0     libcpmt:xonce.obj
 0002:00000ecc       ??_7_System_error@std@@6B@ 100a0ecc     libcpmt:xonce.obj
 0002:00000ed8       ??_7system_error@std@@6B@  100a0ed8     libcpmt:xonce.obj
 0002:00000ee0       ??_C@_1BK@MGMFAEKH@?$AAk?$AAe?$AAr?$AAn?$AAe?$AAl?$AA3?$AA2?$AA?4?$AAd?$AAl?$AAl@ 100a0ee0     libcpmt:winapisupp.obj
 0002:00000efc       ??_C@_08KNHFBNJ@FlsAlloc@  100a0efc     libcpmt:winapisupp.obj
 0002:00000f08       ??_C@_07PEJMOBNF@FlsFree@  100a0f08     libcpmt:winapisupp.obj
 0002:00000f10       ??_C@_0M@GDNOONDI@FlsGetValue@ 100a0f10     libcpmt:winapisupp.obj
 0002:00000f1c       ??_C@_0M@JCPCPOEF@FlsSetValue@ 100a0f1c     libcpmt:winapisupp.obj
 0002:00000f28       ??_C@_0BM@HCFOFFN@InitializeCriticalSectionEx@ 100a0f28     libcpmt:winapisupp.obj
 0002:00000f44       ??_C@_0BE@GPLMMCMH@InitOnceExecuteOnce@ 100a0f44     libcpmt:winapisupp.obj
 0002:00000f58       ??_C@_0P@DLHPPCNH@CreateEventExW@ 100a0f58     libcpmt:winapisupp.obj
 0002:00000f68       ??_C@_0BB@MEFPJLHN@CreateSemaphoreW@ 100a0f68     libcpmt:winapisupp.obj
 0002:00000f7c       ??_C@_0BD@KIEEOEEH@CreateSemaphoreExW@ 100a0f7c     libcpmt:winapisupp.obj
 0002:00000f90       ??_C@_0BG@OGFAJCKC@CreateThreadpoolTimer@ 100a0f90     libcpmt:winapisupp.obj
 0002:00000fa8       ??_C@_0BD@LPLEMMDI@SetThreadpoolTimer@ 100a0fa8     libcpmt:winapisupp.obj
 0002:00000fbc       ??_C@_0CA@FMNJENH@WaitForThreadpoolTimerCallbacks@ 100a0fbc     libcpmt:winapisupp.obj
 0002:00000fdc       ??_C@_0BF@DCFCCNOC@CloseThreadpoolTimer@ 100a0fdc     libcpmt:winapisupp.obj
 0002:00000ff4       ??_C@_0BF@FLABGKKM@CreateThreadpoolWait@ 100a0ff4     libcpmt:winapisupp.obj
 0002:0000100c       ??_C@_0BC@MGCOHNA@SetThreadpoolWait@ 100a100c     libcpmt:winapisupp.obj
 0002:00001020       ??_C@_0BE@OCIOMIMP@CloseThreadpoolWait@ 100a1020     libcpmt:winapisupp.obj
 0002:00001034       ??_C@_0BJ@LKGHFHBO@FlushProcessWriteBuffers@ 100a1034     libcpmt:winapisupp.obj
 0002:00001050       ??_C@_0BP@KALKKPMO@FreeLibraryWhenCallbackReturns@ 100a1050     libcpmt:winapisupp.obj
 0002:00001070       ??_C@_0BK@DFNBACLA@GetCurrentProcessorNumber@ 100a1070     libcpmt:winapisupp.obj
 0002:0000108c       ??_C@_0BE@FKKLLFLM@CreateSymbolicLinkW@ 100a108c     libcpmt:winapisupp.obj
 0002:000010a0       ??_C@_0BE@JOGNEJCI@GetCurrentPackageId@ 100a10a0     libcpmt:winapisupp.obj
 0002:000010b4       ??_C@_0P@CDHHOHKP@GetTickCount64@ 100a10b4     libcpmt:winapisupp.obj
 0002:000010c4       ??_C@_0BN@NEEHBBPO@GetFileInformationByHandleEx@ 100a10c4     libcpmt:winapisupp.obj
 0002:000010e4       ??_C@_0BL@KBBHGKCM@SetFileInformationByHandle@ 100a10e4     libcpmt:winapisupp.obj
 0002:00001100       ??_C@_0BP@FPNJPEJC@GetSystemTimePreciseAsFileTime@ 100a1100     libcpmt:winapisupp.obj
 0002:00001120       ??_C@_0BM@HLJJNPAH@InitializeConditionVariable@ 100a1120     libcpmt:winapisupp.obj
 0002:0000113c       ??_C@_0BG@BFNILBLN@WakeConditionVariable@ 100a113c     libcpmt:winapisupp.obj
 0002:00001154       ??_C@_0BJ@PGPPEPCC@WakeAllConditionVariable@ 100a1154     libcpmt:winapisupp.obj
 0002:00001170       ??_C@_0BJ@JEBJOJFJ@SleepConditionVariableCS@ 100a1170     libcpmt:winapisupp.obj
 0002:0000118c       ??_C@_0BC@MMLHEBPB@InitializeSRWLock@ 100a118c     libcpmt:winapisupp.obj
 0002:000011a0       ??_C@_0BI@OMNLIJDB@AcquireSRWLockExclusive@ 100a11a0     libcpmt:winapisupp.obj
 0002:000011b8       ??_C@_0BL@OGHFEMNA@TryAcquireSRWLockExclusive@ 100a11b8     libcpmt:winapisupp.obj
 0002:000011d4       ??_C@_0BI@HMIEPCNJ@ReleaseSRWLockExclusive@ 100a11d4     libcpmt:winapisupp.obj
 0002:000011ec       ??_C@_0BK@LGACAGIC@SleepConditionVariableSRW@ 100a11ec     libcpmt:winapisupp.obj
 0002:00001208       ??_C@_0BF@GGPHFPJA@CreateThreadpoolWork@ 100a1208     libcpmt:winapisupp.obj
 0002:00001220       ??_C@_0BF@NHDAIMMO@SubmitThreadpoolWork@ 100a1220     libcpmt:winapisupp.obj
 0002:00001238       ??_C@_0BE@NPHIPNPD@CloseThreadpoolWork@ 100a1238     libcpmt:winapisupp.obj
 0002:0000124c       ??_C@_0BA@IHGNDAEB@CompareStringEx@ 100a124c     libcpmt:winapisupp.obj
 0002:0000125c       ??_C@_0BA@ONOKGCMP@GetLocaleInfoEx@ 100a125c     libcpmt:winapisupp.obj
 0002:0000126c       ??_C@_0O@KKBNKAPF@LCMapStringEx@ 100a126c     libcpmt:winapisupp.obj
 0002:00001280       ??_7?$ctype@_W@std@@6B@    100a1280     libcpmt:wlocale.obj
 0002:000012c0       ??_7?$num_put@_WV?$ostreambuf_iterator@_WU?$char_traits@_W@std@@@std@@@std@@6B@ 100a12c0     libcpmt:wlocale.obj
 0002:000012f0       ??_7?$numpunct@_W@std@@6B@ 100a12f0     libcpmt:wlocale.obj
 0002:00001310       ??_C@_13IMODFHAA@?$AA?9@   100a1310     libcpmt:wlocale.obj
 0002:00001314       ??_C@_01JOAMLHOP@?9@       100a1314     libcpmt:wlocale.obj
 0002:000021f8       ??_C@_15EMKDOKLE@?$AAa?$AAr@ 100a21f8     libcpmt:winapinls.obj
 0002:00002200       ??_C@_15KNPADPLH@?$AAb?$AAg@ 100a2200     libcpmt:winapinls.obj
 0002:00002208       ??_C@_15EDMHLDMO@?$AAc?$AAa@ 100a2208     libcpmt:winapinls.obj
 0002:00002210       ??_C@_1O@BPEAJADD@?$AAz?$AAh?$AA?9?$AAC?$AAH?$AAS@ 100a2210     libcpmt:winapinls.obj
 0002:00002220       ??_C@_15LJNHCMNK@?$AAc?$AAs@ 100a2220     libcpmt:winapinls.obj
 0002:00002228       ??_C@_15NBKABECB@?$AAd?$AAe@ 100a2228     libcpmt:winapinls.obj
 0002:00002230       ??_C@_15GHPEIIAO@?$AAe?$AAl@ 100a2230     libcpmt:winapinls.obj
 0002:00002238       ??_C@_15MNPNEAIF@?$AAe?$AAn@ 100a2238     libcpmt:winapinls.obj
 0002:00002240       ??_C@_15GPIOMPMH@?$AAe?$AAs@ 100a2240     libcpmt:winapinls.obj
 0002:00002248       ??_C@_15NGLOAKJC@?$AAf?$AAi@ 100a2248     libcpmt:winapinls.obj
 0002:00002250       ??_C@_15FBKGNKAM@?$AAf?$AAr@ 100a2250     libcpmt:winapinls.obj
 0002:00002258       ??_C@_15PGHLIDMF@?$AAh?$AAu@ 100a2258     libcpmt:winapinls.obj
 0002:00002260       ??_C@_15BIEMAPLM@?$AAi?$AAs@ 100a2260     libcpmt:winapinls.obj
 0002:00002268       ??_C@_15IFJLDHAF@?$AAi?$AAt@ 100a2268     libcpmt:winapinls.obj
 0002:00002270       ??_C@_15GEMIOCAG@?$AAj?$AAa@ 100a2270     libcpmt:winapinls.obj
 0002:00002278       ??_C@_15EPELEGJA@?$AAk?$AAo@ 100a2278     libcpmt:winapinls.obj
 0002:00002280       ??_C@_15NDDHIMN@?$AAn?$AAl@ 100a2280     libcpmt:winapinls.obj
 0002:00002288       ??_C@_15DEOPBLCG@?$AAp?$AAl@ 100a2288     libcpmt:winapinls.obj
 0002:00002290       ??_C@_15KBECGEFG@?$AAp?$AAt@ 100a2290     libcpmt:winapinls.obj
 0002:00002298       ??_C@_15GLJCBFMD@?$AAr?$AAo@ 100a2298     libcpmt:winapinls.obj
 0002:000022a0       ??_C@_15GLKMLLHM@?$AAh?$AAr@ 100a22a0     libcpmt:winapinls.obj
 0002:000022a8       ??_C@_15CPKMFBDB@?$AAs?$AAk@ 100a22a8     libcpmt:winapinls.obj
 0002:000022b0       ??_C@_15BAAIOGMK@?$AAs?$AAq@ 100a22b0     libcpmt:winapinls.obj
 0002:000022b8       ??_C@_15INNPNOHD@?$AAs?$AAv@ 100a22b8     libcpmt:winapinls.obj
 0002:000022c0       ??_C@_15CABMMOGH@?$AAt?$AAh@ 100a22c0     libcpmt:winapinls.obj
 0002:000022c8       ??_C@_15BPLIHJJM@?$AAt?$AAr@ 100a22c8     libcpmt:winapinls.obj
 0002:000022d0       ??_C@_15NEOEKKDJ@?$AAu?$AAr@ 100a22d0     libcpmt:winapinls.obj
 0002:000022d8       ??_C@_15NFICGAJK@?$AAi?$AAd@ 100a22d8     libcpmt:winapinls.obj
 0002:000022e0       ??_C@_15PJPFLCCM@?$AAu?$AAk@ 100a22e0     libcpmt:winapinls.obj
 0002:000022e8       ??_C@_15HPJPHDM@?$AAb?$AAe@ 100a22e8     libcpmt:winapinls.obj
 0002:000022f0       ??_C@_15LCHLGJII@?$AAs?$AAl@ 100a22f0     libcpmt:winapinls.obj
 0002:000022f8       ??_C@_15PCFJPHHO@?$AAe?$AAt@ 100a22f8     libcpmt:winapinls.obj
 0002:00002300       ??_C@_15HPFPGODN@?$AAl?$AAv@ 100a2300     libcpmt:winapinls.obj
 0002:00002308       ??_C@_15NFFGKGLG@?$AAl?$AAt@ 100a2308     libcpmt:winapinls.obj
 0002:00002310       ??_C@_15BDAKCCHN@?$AAf?$AAa@ 100a2310     libcpmt:winapinls.obj
 0002:00002318       ??_C@_15NFGIAIAJ@?$AAv?$AAi@ 100a2318     libcpmt:winapinls.obj
 0002:00002320       ??_C@_15LMKNDMHN@?$AAh?$AAy@ 100a2320     libcpmt:winapinls.obj
 0002:00002328       ??_C@_15IJBHMCFL@?$AAa?$AAz@ 100a2328     libcpmt:winapinls.obj
 0002:00002330       ??_C@_15EKOFJABL@?$AAe?$AAu@ 100a2330     libcpmt:winapinls.obj
 0002:00002338       ??_C@_15BGHADCNK@?$AAm?$AAk@ 100a2338     libcpmt:winapinls.obj
 0002:00002340       ??_C@_15JDNICKHM@?$AAa?$AAf@ 100a2340     libcpmt:winapinls.obj
 0002:00002348       ??_C@_15KPJEDBKD@?$AAk?$AAa@ 100a2348     libcpmt:winapinls.obj
 0002:00002350       ??_C@_15PDNFFFEO@?$AAf?$AAo@ 100a2350     libcpmt:winapinls.obj
 0002:00002358       ??_C@_15OMLEGLOC@?$AAh?$AAi@ 100a2358     libcpmt:winapinls.obj
 0002:00002360       ??_C@_15IDNNENKK@?$AAm?$AAs@ 100a2360     libcpmt:winapinls.obj
 0002:00002368       ??_C@_15MACJNBMH@?$AAk?$AAk@ 100a2368     libcpmt:winapinls.obj
 0002:00002370       ??_C@_15DKDJEOND@?$AAk?$AAy@ 100a2370     libcpmt:winapinls.obj
 0002:00002378       ??_C@_15DFGDLJBG@?$AAs?$AAw@ 100a2378     libcpmt:winapinls.obj
 0002:00002380       ??_C@_15BBFAICNG@?$AAu?$AAz@ 100a2380     libcpmt:winapinls.obj
 0002:00002388       ??_C@_15DKNDCGEA@?$AAt?$AAt@ 100a2388     libcpmt:winapinls.obj
 0002:00002390       ??_C@_15MGIFMDPL@?$AAp?$AAa@ 100a2390     libcpmt:winapinls.obj
 0002:00002398       ??_C@_15HCNDBBA@?$AAg?$AAu@ 100a2398     libcpmt:winapinls.obj
 0002:000023a0       ??_C@_15FNBEIBON@?$AAt?$AAa@ 100a23a0     libcpmt:winapinls.obj
 0002:000023a8       ??_C@_15NCHGBGLK@?$AAt?$AAe@ 100a23a8     libcpmt:winapinls.obj
 0002:000023b0       ??_C@_15PHPHCBPF@?$AAk?$AAn@ 100a23b0     libcpmt:winapinls.obj
 0002:000023b8       ??_C@_15DLGBCKMP@?$AAm?$AAr@ 100a23b8     libcpmt:winapinls.obj
 0002:000023c0       ??_C@_15EABBLBFF@?$AAs?$AAa@ 100a23c0     libcpmt:winapinls.obj
 0002:000023c8       ??_C@_15CBKOMCOI@?$AAm?$AAn@ 100a23c8     libcpmt:winapinls.obj
 0002:000023d0       ??_C@_15CKDMCJAF@?$AAg?$AAl@ 100a23d0     libcpmt:winapinls.obj
 0002:000023d8       ??_C@_17CNJFBPG@?$AAk?$AAo?$AAk@ 100a23d8     libcpmt:winapinls.obj
 0002:000023e0       ??_C@_17FFBJICPL@?$AAs?$AAy?$AAr@ 100a23e0     libcpmt:winapinls.obj
 0002:000023e8       ??_C@_17KPNDCPAF@?$AAd?$AAi?$AAv@ 100a23e8     libcpmt:winapinls.obj
 0002:000023f0       ??_C@_1M@OKAHONE@?$AAa?$AAr?$AA?9?$AAS?$AAA@ 100a23f0     libcpmt:winapinls.obj
 0002:000023fc       ??_C@_1M@FFFIGIGK@?$AAb?$AAg?$AA?9?$AAB?$AAG@ 100a23fc     libcpmt:winapinls.obj
 0002:00002408       ??_C@_1M@BJNKEDC@?$AAc?$AAa?$AA?9?$AAE?$AAS@ 100a2408     libcpmt:winapinls.obj
 0002:00002414       ??_C@_1M@CLNBBOPM@?$AAz?$AAh?$AA?9?$AAT?$AAW@ 100a2414     libcpmt:winapinls.obj
 0002:00002420       ??_C@_1M@IJJHFJHA@?$AAc?$AAs?$AA?9?$AAC?$AAZ@ 100a2420     libcpmt:winapinls.obj
 0002:0000242c       ??_C@_1M@CLPEOBGI@?$AAd?$AAa?$AA?9?$AAD?$AAK@ 100a242c     libcpmt:winapinls.obj
 0002:00002438       ??_C@_1M@MCMADGCB@?$AAd?$AAe?$AA?9?$AAD?$AAE@ 100a2438     libcpmt:winapinls.obj
 0002:00002444       ??_C@_1M@OOCKEMAM@?$AAe?$AAl?$AA?9?$AAG?$AAR@ 100a2444     libcpmt:winapinls.obj
 0002:00002450       ??_C@_1M@BMHNFIME@?$AAe?$AAn?$AA?9?$AAU?$AAS@ 100a2450     libcpmt:winapinls.obj
 0002:0000245c       ??_C@_1M@DDNJFGID@?$AAf?$AAi?$AA?9?$AAF?$AAI@ 100a245c     libcpmt:winapinls.obj
 0002:00002468       ??_C@_1M@GLIPPMAC@?$AAf?$AAr?$AA?9?$AAF?$AAR@ 100a2468     libcpmt:winapinls.obj
 0002:00002474       ??_C@_1M@GFMCHPE@?$AAh?$AAe?$AA?9?$AAI?$AAL@ 100a2474     libcpmt:winapinls.obj
 0002:00002480       ??_C@_1M@MHLPGNKM@?$AAh?$AAu?$AA?9?$AAH?$AAU@ 100a2480     libcpmt:winapinls.obj
 0002:0000248c       ??_C@_1M@LPDDNNPN@?$AAi?$AAs?$AA?9?$AAI?$AAS@ 100a248c     libcpmt:winapinls.obj
 0002:00002498       ??_C@_1M@MADIPODN@?$AAi?$AAt?$AA?9?$AAI?$AAT@ 100a2498     libcpmt:winapinls.obj
 0002:000024a4       ??_C@_1M@HPNHIDJI@?$AAj?$AAa?$AA?9?$AAJ?$AAP@ 100a24a4     libcpmt:winapinls.obj
 0002:000024b0       ??_C@_1M@JLOOOEGK@?$AAk?$AAo?$AA?9?$AAK?$AAR@ 100a24b0     libcpmt:winapinls.obj
 0002:000024bc       ??_C@_1M@IHBJJGG@?$AAn?$AAl?$AA?9?$AAN?$AAL@ 100a24bc     libcpmt:winapinls.obj
 0002:000024c8       ??_C@_1M@EANAGDL@?$AAn?$AAb?$AA?9?$AAN?$AAO@ 100a24c8     libcpmt:winapinls.obj
 0002:000024d4       ??_C@_1M@NEIEMEGP@?$AAp?$AAl?$AA?9?$AAP?$AAL@ 100a24d4     libcpmt:winapinls.obj
 0002:000024e0       ??_C@_1M@BOCFIGEP@?$AAp?$AAt?$AA?9?$AAB?$AAR@ 100a24e0     libcpmt:winapinls.obj
 0002:000024ec       ??_C@_1M@IMPFOPBG@?$AAr?$AAo?$AA?9?$AAR?$AAO@ 100a24ec     libcpmt:winapinls.obj
 0002:000024f8       ??_C@_1M@IDNNEJMM@?$AAr?$AAu?$AA?9?$AAR?$AAU@ 100a24f8     libcpmt:winapinls.obj
 0002:00002504       ??_C@_1M@LILEEOGM@?$AAh?$AAr?$AA?9?$AAH?$AAR@ 100a2504     libcpmt:winapinls.obj
 0002:00002510       ??_C@_1M@FKIFEHPB@?$AAs?$AAk?$AA?9?$AAS?$AAK@ 100a2510     libcpmt:winapinls.obj
 0002:0000251c       ??_C@_1M@LJMAMNPJ@?$AAs?$AAq?$AA?9?$AAA?$AAL@ 100a251c     libcpmt:winapinls.obj
 0002:00002528       ??_C@_1M@GIAKDKJK@?$AAs?$AAv?$AA?9?$AAS?$AAE@ 100a2528     libcpmt:winapinls.obj
 0002:00002534       ??_C@_1M@MKJKIKCL@?$AAt?$AAh?$AA?9?$AAT?$AAH@ 100a2534     libcpmt:winapinls.obj
 0002:00002540       ??_C@_1M@MFLCCMPB@?$AAt?$AAr?$AA?9?$AAT?$AAR@ 100a2540     libcpmt:winapinls.obj
 0002:0000254c       ??_C@_1M@OIJHDKJN@?$AAu?$AAr?$AA?9?$AAP?$AAK@ 100a254c     libcpmt:winapinls.obj
 0002:00002558       ??_C@_1M@LHIPCIEK@?$AAi?$AAd?$AA?9?$AAI?$AAD@ 100a2558     libcpmt:winapinls.obj
 0002:00002564       ??_C@_1M@MFMOBGI@?$AAu?$AAk?$AA?9?$AAU?$AAA@ 100a2564     libcpmt:winapinls.obj
 0002:00002570       ??_C@_1M@OBGLJIPL@?$AAb?$AAe?$AA?9?$AAB?$AAY@ 100a2570     libcpmt:winapinls.obj
 0002:0000257c       ??_C@_1M@BCFAJEAD@?$AAs?$AAl?$AA?9?$AAS?$AAI@ 100a257c     libcpmt:winapinls.obj
 0002:00002588       ??_C@_1M@FKFFEDDN@?$AAe?$AAt?$AA?9?$AAE?$AAE@ 100a2588     libcpmt:winapinls.obj
 0002:00002594       ??_C@_1M@KGKKAACI@?$AAl?$AAv?$AA?9?$AAL?$AAV@ 100a2594     libcpmt:winapinls.obj
 0002:000025a0       ??_C@_1M@IFGBIJO@?$AAl?$AAt?$AA?9?$AAL?$AAT@ 100a25a0     libcpmt:winapinls.obj
 0002:000025ac       ??_C@_1M@FGEAHEDM@?$AAf?$AAa?$AA?9?$AAI?$AAR@ 100a25ac     libcpmt:winapinls.obj
 0002:000025b8       ??_C@_1M@KBMAIBFN@?$AAv?$AAi?$AA?9?$AAV?$AAN@ 100a25b8     libcpmt:winapinls.obj
 0002:000025c4       ??_C@_1M@GPCBKDJK@?$AAh?$AAy?$AA?9?$AAA?$AAM@ 100a25c4     libcpmt:winapinls.obj
 0002:000025d0       ??_C@_1BG@BECMDDJB@?$AAa?$AAz?$AA?9?$AAA?$AAZ?$AA?9?$AAL?$AAa?$AAt?$AAn@ 100a25d0     libcpmt:winapinls.obj
 0002:000025e8       ??_C@_1M@MAOFCAEA@?$AAe?$AAu?$AA?9?$AAE?$AAS@ 100a25e8     libcpmt:winapinls.obj
 0002:000025f4       ??_C@_1M@IGHABKPI@?$AAm?$AAk?$AA?9?$AAM?$AAK@ 100a25f4     libcpmt:winapinls.obj
 0002:00002600       ??_C@_1M@IAIGNEJG@?$AAt?$AAn?$AA?9?$AAZ?$AAA@ 100a2600     libcpmt:winapinls.obj
 0002:0000260c       ??_C@_1M@IIJCOJFA@?$AAx?$AAh?$AA?9?$AAZ?$AAA@ 100a260c     libcpmt:winapinls.obj
 0002:00002618       ??_C@_1M@LGPJHNJH@?$AAz?$AAu?$AA?9?$AAZ?$AAA@ 100a2618     libcpmt:winapinls.obj
 0002:00002624       ??_C@_1M@HOKAOIO@?$AAa?$AAf?$AA?9?$AAZ?$AAA@ 100a2624     libcpmt:winapinls.obj
 0002:00002630       ??_C@_1M@DPCLHLIE@?$AAk?$AAa?$AA?9?$AAG?$AAE@ 100a2630     libcpmt:winapinls.obj
 0002:0000263c       ??_C@_1M@BLKMHJBI@?$AAf?$AAo?$AA?9?$AAF?$AAO@ 100a263c     libcpmt:winapinls.obj
 0002:00002648       ??_C@_1M@LGGJAPPB@?$AAh?$AAi?$AA?9?$AAI?$AAN@ 100a2648     libcpmt:winapinls.obj
 0002:00002654       ??_C@_1M@FIKPIHFE@?$AAm?$AAt?$AA?9?$AAM?$AAT@ 100a2654     libcpmt:winapinls.obj
 0002:00002660       ??_C@_1M@HEGGPBFA@?$AAs?$AAe?$AA?9?$AAN?$AAO@ 100a2660     libcpmt:winapinls.obj
 0002:0000266c       ??_C@_1M@EIBJEEPA@?$AAm?$AAs?$AA?9?$AAM?$AAY@ 100a266c     libcpmt:winapinls.obj
 0002:00002678       ??_C@_1M@FHLBGMPP@?$AAk?$AAk?$AA?9?$AAK?$AAZ@ 100a2678     libcpmt:winapinls.obj
 0002:00002684       ??_C@_1M@NGJJLCGI@?$AAk?$AAy?$AA?9?$AAK?$AAG@ 100a2684     libcpmt:winapinls.obj
 0002:00002690       ??_C@_1M@GIENNBFC@?$AAs?$AAw?$AA?9?$AAK?$AAE@ 100a2690     libcpmt:winapinls.obj
 0002:0000269c       ??_C@_1BG@NDGMJIMJ@?$AAu?$AAz?$AA?9?$AAU?$AAZ?$AA?9?$AAL?$AAa?$AAt?$AAn@ 100a269c     libcpmt:winapinls.obj
 0002:000026b4       ??_C@_1M@IDCCIHBC@?$AAt?$AAt?$AA?9?$AAR?$AAU@ 100a26b4     libcpmt:winapinls.obj
 0002:000026c0       ??_C@_1M@LOICPMOJ@?$AAb?$AAn?$AA?9?$AAI?$AAN@ 100a26c0     libcpmt:winapinls.obj
 0002:000026cc       ??_C@_1M@KPKKNEAH@?$AAp?$AAa?$AA?9?$AAI?$AAN@ 100a26cc     libcpmt:winapinls.obj
 0002:000026d8       ??_C@_1M@PJGPPBOG@?$AAg?$AAu?$AA?9?$AAI?$AAN@ 100a26d8     libcpmt:winapinls.obj
 0002:000026e4       ??_C@_1M@KMKMOPHI@?$AAt?$AAa?$AA?9?$AAI?$AAN@ 100a26e4     libcpmt:winapinls.obj
 0002:000026f0       ??_C@_1M@KFEHEPAC@?$AAt?$AAe?$AA?9?$AAI?$AAN@ 100a26f0     libcpmt:winapinls.obj
 0002:000026fc       ??_C@_1M@CDCLMGHI@?$AAk?$AAn?$AA?9?$AAI?$AAN@ 100a26fc     libcpmt:winapinls.obj
 0002:00002708       ??_C@_1M@MIODLDKF@?$AAm?$AAl?$AA?9?$AAI?$AAN@ 100a2708     libcpmt:winapinls.obj
 0002:00002714       ??_C@_1M@PBIEACPO@?$AAm?$AAr?$AA?9?$AAI?$AAN@ 100a2714     libcpmt:winapinls.obj
 0002:00002720       ??_C@_1M@NIDEAGPH@?$AAs?$AAa?$AA?9?$AAI?$AAN@ 100a2720     libcpmt:winapinls.obj
 0002:0000272c       ??_C@_1M@FHIHCBIO@?$AAm?$AAn?$AA?9?$AAM?$AAN@ 100a272c     libcpmt:winapinls.obj
 0002:00002738       ??_C@_1M@JAIJPENP@?$AAc?$AAy?$AA?9?$AAG?$AAB@ 100a2738     libcpmt:winapinls.obj
 0002:00002744       ??_C@_1M@PHGFBEPN@?$AAg?$AAl?$AA?9?$AAE?$AAS@ 100a2744     libcpmt:winapinls.obj
 0002:00002750       ??_C@_1O@KPIPDNCP@?$AAk?$AAo?$AAk?$AA?9?$AAI?$AAN@ 100a2750     libcpmt:winapinls.obj
 0002:00002760       ??_C@_1O@KNHJLDJA@?$AAs?$AAy?$AAr?$AA?9?$AAS?$AAY@ 100a2760     libcpmt:winapinls.obj
 0002:00002770       ??_C@_1O@MKEKBLAH@?$AAd?$AAi?$AAv?$AA?9?$AAM?$AAV@ 100a2770     libcpmt:winapinls.obj
 0002:00002780       ??_C@_1O@OHDCKDDF@?$AAq?$AAu?$AAz?$AA?9?$AAB?$AAO@ 100a2780     libcpmt:winapinls.obj
 0002:00002790       ??_C@_1M@LEPJNLFD@?$AAn?$AAs?$AA?9?$AAZ?$AAA@ 100a2790     libcpmt:winapinls.obj
 0002:0000279c       ??_C@_1M@OMLEIIJB@?$AAm?$AAi?$AA?9?$AAN?$AAZ@ 100a279c     libcpmt:winapinls.obj
 0002:000027a8       ??_C@_1M@PMPEAILG@?$AAa?$AAr?$AA?9?$AAI?$AAQ@ 100a27a8     libcpmt:winapinls.obj
 0002:000027b4       ??_C@_1M@BIBDDEMK@?$AAz?$AAh?$AA?9?$AAC?$AAN@ 100a27b4     libcpmt:winapinls.obj
 0002:000027c0       ??_C@_1M@CNKPNOEE@?$AAd?$AAe?$AA?9?$AAC?$AAH@ 100a27c0     libcpmt:winapinls.obj
 0002:000027cc       ??_C@_1M@LKMGMLKO@?$AAe?$AAn?$AA?9?$AAG?$AAB@ 100a27cc     libcpmt:winapinls.obj
 0002:000027d8       ??_C@_1M@PGKJFFGL@?$AAe?$AAs?$AA?9?$AAM?$AAX@ 100a27d8     libcpmt:winapinls.obj
 0002:000027e4       ??_C@_1M@DNNANBDC@?$AAf?$AAr?$AA?9?$AAB?$AAE@ 100a27e4     libcpmt:winapinls.obj
 0002:000027f0       ??_C@_1M@HLGMDFHM@?$AAi?$AAt?$AA?9?$AAC?$AAH@ 100a27f0     libcpmt:winapinls.obj
 0002:000027fc       ??_C@_1M@CLLBGJH@?$AAn?$AAl?$AA?9?$AAB?$AAE@ 100a27fc     libcpmt:winapinls.obj
 0002:00002808       ??_C@_1M@BODBOGLF@?$AAn?$AAn?$AA?9?$AAN?$AAO@ 100a2808     libcpmt:winapinls.obj
 0002:00002814       ??_C@_1M@HFFAHKAD@?$AAp?$AAt?$AA?9?$AAP?$AAT@ 100a2814     libcpmt:winapinls.obj
 0002:00002820       ??_C@_1BG@LNOAKHIE@?$AAs?$AAr?$AA?9?$AAS?$AAP?$AA?9?$AAL?$AAa?$AAt?$AAn@ 100a2820     libcpmt:winapinls.obj
 0002:00002838       ??_C@_1M@HBMHBGAK@?$AAs?$AAv?$AA?9?$AAF?$AAI@ 100a2838     libcpmt:winapinls.obj
 0002:00002844       ??_C@_1BG@DGCJGJBE@?$AAa?$AAz?$AA?9?$AAA?$AAZ?$AA?9?$AAC?$AAy?$AAr?$AAl@ 100a2844     libcpmt:winapinls.obj
 0002:0000285c       ??_C@_1M@KEJDAAHB@?$AAs?$AAe?$AA?9?$AAS?$AAE@ 100a285c     libcpmt:winapinls.obj
 0002:00002868       ??_C@_1M@HEIBJJAD@?$AAm?$AAs?$AA?9?$AAB?$AAN@ 100a2868     libcpmt:winapinls.obj
 0002:00002874       ??_C@_1BG@PBGJMCEM@?$AAu?$AAz?$AA?9?$AAU?$AAZ?$AA?9?$AAC?$AAy?$AAr?$AAl@ 100a2874     libcpmt:winapinls.obj
 0002:0000288c       ??_C@_1O@LAOBCMDF@?$AAq?$AAu?$AAz?$AA?9?$AAE?$AAC@ 100a288c     libcpmt:winapinls.obj
 0002:0000289c       ??_C@_1M@POEEMAIO@?$AAa?$AAr?$AA?9?$AAE?$AAG@ 100a289c     libcpmt:winapinls.obj
 0002:000028a8       ??_C@_1M@EFAKDEDL@?$AAz?$AAh?$AA?9?$AAH?$AAK@ 100a28a8     libcpmt:winapinls.obj
 0002:000028b4       ??_C@_1M@HKKIJHGI@?$AAd?$AAe?$AA?9?$AAA?$AAT@ 100a28b4     libcpmt:winapinls.obj
 0002:000028c0       ??_C@_1M@KBFBEHJF@?$AAe?$AAn?$AA?9?$AAA?$AAU@ 100a28c0     libcpmt:winapinls.obj
 0002:000028cc       ??_C@_1M@MNPLFAAH@?$AAe?$AAs?$AA?9?$AAE?$AAS@ 100a28cc     libcpmt:winapinls.obj
 0002:000028d8       ??_C@_1M@HJOOJFMA@?$AAf?$AAr?$AA?9?$AAC?$AAA@ 100a28d8     libcpmt:winapinls.obj
 0002:000028e4       ??_C@_1BG@JPOFPNAB@?$AAs?$AAr?$AA?9?$AAS?$AAP?$AA?9?$AAC?$AAy?$AAr?$AAl@ 100a28e4     libcpmt:winapinls.obj
 0002:000028fc       ??_C@_1M@LNFOCMOB@?$AAs?$AAe?$AA?9?$AAF?$AAI@ 100a28fc     libcpmt:winapinls.obj
 0002:00002908       ??_C@_1O@MGJBOAMB@?$AAq?$AAu?$AAz?$AA?9?$AAP?$AAE@ 100a2908     libcpmt:winapinls.obj
 0002:00002918       ??_C@_1M@GJINLBOK@?$AAa?$AAr?$AA?9?$AAL?$AAY@ 100a2918     libcpmt:winapinls.obj
 0002:00002924       ??_C@_1M@GGMNHJNL@?$AAz?$AAh?$AA?9?$AAS?$AAG@ 100a2924     libcpmt:winapinls.obj
 0002:00002930       ??_C@_1M@HOIKODND@?$AAd?$AAe?$AA?9?$AAL?$AAU@ 100a2930     libcpmt:winapinls.obj
 0002:0000293c       ??_C@_1M@DDOCCGFG@?$AAe?$AAn?$AA?9?$AAC?$AAA@ 100a293c     libcpmt:winapinls.obj
 0002:00002948       ??_C@_1M@BNOEMJLF@?$AAe?$AAs?$AA?9?$AAG?$AAT@ 100a2948     libcpmt:winapinls.obj
 0002:00002954       ??_C@_1M@EOGNKEK@?$AAf?$AAr?$AA?9?$AAC?$AAH@ 100a2954     libcpmt:winapinls.obj
 0002:00002960       ??_C@_1M@FLIDJFHL@?$AAh?$AAr?$AA?9?$AAB?$AAA@ 100a2960     libcpmt:winapinls.obj
 0002:0000296c       ??_C@_1O@FMCELNAJ@?$AAs?$AAm?$AAj?$AA?9?$AAN?$AAO@ 100a296c     libcpmt:winapinls.obj
 0002:0000297c       ??_C@_1M@JHGLJMGJ@?$AAa?$AAr?$AA?9?$AAD?$AAZ@ 100a297c     libcpmt:winapinls.obj
 0002:00002988       ??_C@_1M@JKKFDCNP@?$AAz?$AAh?$AA?9?$AAM?$AAO@ 100a2988     libcpmt:winapinls.obj
 0002:00002994       ??_C@_1M@GEEFALPE@?$AAd?$AAe?$AA?9?$AAL?$AAI@ 100a2994     libcpmt:winapinls.obj
 0002:000029a0       ??_C@_1M@IGEOFBG@?$AAe?$AAn?$AA?9?$AAN?$AAZ@ 100a29a0     libcpmt:winapinls.obj
 0002:000029ac       ??_C@_1M@KDBONEHP@?$AAe?$AAs?$AA?9?$AAC?$AAR@ 100a29ac     libcpmt:winapinls.obj
 0002:000029b8       ??_C@_1M@FHMDOHNN@?$AAf?$AAr?$AA?9?$AAL?$AAU@ 100a29b8     libcpmt:winapinls.obj
 0002:000029c4       ??_C@_1BG@NFKKMAFG@?$AAb?$AAs?$AA?9?$AAB?$AAA?$AA?9?$AAL?$AAa?$AAt?$AAn@ 100a29c4     libcpmt:winapinls.obj
 0002:000029dc       ??_C@_1O@IMNBEMCI@?$AAs?$AAm?$AAj?$AA?9?$AAS?$AAE@ 100a29dc     libcpmt:winapinls.obj
 0002:000029ec       ??_C@_1M@DHHMBNDP@?$AAa?$AAr?$AA?9?$AAM?$AAA@ 100a29ec     libcpmt:winapinls.obj
 0002:000029f8       ??_C@_1M@BNBLJCGH@?$AAe?$AAn?$AA?9?$AAI?$AAE@ 100a29f8     libcpmt:winapinls.obj
 0002:00002a04       ??_C@_1M@GEPAFMDL@?$AAe?$AAs?$AA?9?$AAP?$AAA@ 100a2a04     libcpmt:winapinls.obj
 0002:00002a10       ??_C@_1M@OJONDMDL@?$AAf?$AAr?$AA?9?$AAM?$AAC@ 100a2a10     libcpmt:winapinls.obj
 0002:00002a1c       ??_C@_1BG@OBCNFJB@?$AAs?$AAr?$AA?9?$AAB?$AAA?$AA?9?$AAL?$AAa?$AAt?$AAn@ 100a2a1c     libcpmt:winapinls.obj
 0002:00002a34       ??_C@_1O@KEMEEGPO@?$AAs?$AAm?$AAa?$AA?9?$AAN?$AAO@ 100a2a34     libcpmt:winapinls.obj
 0002:00002a44       ??_C@_1M@ELMGFODK@?$AAa?$AAr?$AA?9?$AAT?$AAN@ 100a2a44     libcpmt:winapinls.obj
 0002:00002a50       ??_C@_1M@BHDLHFAF@?$AAe?$AAn?$AA?9?$AAZ?$AAA@ 100a2a50     libcpmt:winapinls.obj
 0002:00002a5c       ??_C@_1M@BMGIGLIF@?$AAe?$AAs?$AA?9?$AAD?$AAO@ 100a2a5c     libcpmt:winapinls.obj
 0002:00002a68       ??_C@_1BG@CMBHIPBE@?$AAs?$AAr?$AA?9?$AAB?$AAA?$AA?9?$AAC?$AAy?$AAr?$AAl@ 100a2a68     libcpmt:winapinls.obj
 0002:00002a80       ??_C@_1O@HEDBLHNP@?$AAs?$AAm?$AAa?$AA?9?$AAS?$AAE@ 100a2a80     libcpmt:winapinls.obj
 0002:00002a90       ??_C@_1M@DAGCADIM@?$AAa?$AAr?$AA?9?$AAO?$AAM@ 100a2a90     libcpmt:winapinls.obj
 0002:00002a9c       ??_C@_1M@FODLMICG@?$AAe?$AAn?$AA?9?$AAJ?$AAM@ 100a2a9c     libcpmt:winapinls.obj
 0002:00002aa8       ??_C@_1M@DNMLCIHB@?$AAe?$AAs?$AA?9?$AAV?$AAE@ 100a2aa8     libcpmt:winapinls.obj
 0002:00002ab4       ??_C@_1O@EOKHMKJK@?$AAs?$AAm?$AAs?$AA?9?$AAF?$AAI@ 100a2ab4     libcpmt:winapinls.obj
 0002:00002ac4       ??_C@_1M@CAFJMKOF@?$AAa?$AAr?$AA?9?$AAY?$AAE@ 100a2ac4     libcpmt:winapinls.obj
 0002:00002ad0       ??_C@_1M@CBFHIJLI@?$AAe?$AAn?$AA?9?$AAC?$AAB@ 100a2ad0     libcpmt:winapinls.obj
 0002:00002adc       ??_C@_1M@BGNFLDN@?$AAe?$AAs?$AA?9?$AAC?$AAO@ 100a2adc     libcpmt:winapinls.obj
 0002:00002ae8       ??_C@_1O@JMPHMAMC@?$AAs?$AAm?$AAn?$AA?9?$AAF?$AAI@ 100a2ae8     libcpmt:winapinls.obj
 0002:00002af8       ??_C@_1M@JLANABKE@?$AAa?$AAr?$AA?9?$AAS?$AAY@ 100a2af8     libcpmt:winapinls.obj
 0002:00002b04       ??_C@_1M@HPKGCFGN@?$AAe?$AAn?$AA?9?$AAB?$AAZ@ 100a2b04     libcpmt:winapinls.obj
 0002:00002b10       ??_C@_1M@OLJCMLGM@?$AAe?$AAs?$AA?9?$AAP?$AAE@ 100a2b10     libcpmt:winapinls.obj
 0002:00002b1c       ??_C@_1M@MKKGFKLE@?$AAa?$AAr?$AA?9?$AAJ?$AAO@ 100a2b1c     libcpmt:winapinls.obj
 0002:00002b28       ??_C@_1M@EKPGLDNI@?$AAe?$AAn?$AA?9?$AAT?$AAT@ 100a2b28     libcpmt:winapinls.obj
 0002:00002b34       ??_C@_1M@OONGHFHE@?$AAe?$AAs?$AA?9?$AAA?$AAR@ 100a2b34     libcpmt:winapinls.obj
 0002:00002b40       ??_C@_1M@OOJFGBHE@?$AAa?$AAr?$AA?9?$AAL?$AAB@ 100a2b40     libcpmt:winapinls.obj
 0002:00002b4c       ??_C@_1M@GCEJHNEG@?$AAe?$AAn?$AA?9?$AAZ?$AAW@ 100a2b4c     libcpmt:winapinls.obj
 0002:00002b58       ??_C@_1M@JNOCAHJI@?$AAe?$AAs?$AA?9?$AAE?$AAC@ 100a2b58     libcpmt:winapinls.obj
 0002:00002b64       ??_C@_1M@JEFHPGGB@?$AAa?$AAr?$AA?9?$AAK?$AAW@ 100a2b64     libcpmt:winapinls.obj
 0002:00002b70       ??_C@_1M@MLKIBJOJ@?$AAe?$AAn?$AA?9?$AAP?$AAH@ 100a2b70     libcpmt:winapinls.obj
 0002:00002b7c       ??_C@_1M@BDNIPEND@?$AAe?$AAs?$AA?9?$AAC?$AAL@ 100a2b7c     libcpmt:winapinls.obj
 0002:00002b88       ??_C@_1M@MPNMEKBD@?$AAa?$AAr?$AA?9?$AAA?$AAE@ 100a2b88     libcpmt:winapinls.obj
 0002:00002b94       ??_C@_1M@KBJALCPI@?$AAe?$AAs?$AA?9?$AAU?$AAY@ 100a2b94     libcpmt:winapinls.obj
 0002:00002ba0       ??_C@_1M@LLCCOAGA@?$AAa?$AAr?$AA?9?$AAB?$AAH@ 100a2ba0     libcpmt:winapinls.obj
 0002:00002bac       ??_C@_1M@PBFNCDEL@?$AAe?$AAs?$AA?9?$AAP?$AAY@ 100a2bac     libcpmt:winapinls.obj
 0002:00002bb8       ??_C@_1M@EDGINPNP@?$AAa?$AAr?$AA?9?$AAQ?$AAA@ 100a2bb8     libcpmt:winapinls.obj
 0002:00002bc4       ??_C@_1M@MKDBIIJI@?$AAe?$AAs?$AA?9?$AAB?$AAO@ 100a2bc4     libcpmt:winapinls.obj
 0002:00002bd0       ??_C@_1M@CPKKEBLD@?$AAe?$AAs?$AA?9?$AAS?$AAV@ 100a2bd0     libcpmt:winapinls.obj
 0002:00002bdc       ??_C@_1M@NDBGMMJL@?$AAe?$AAs?$AA?9?$AAH?$AAN@ 100a2bdc     libcpmt:winapinls.obj
 0002:00002be8       ??_C@_1M@JIJIBHDP@?$AAe?$AAs?$AA?9?$AAN?$AAI@ 100a2be8     libcpmt:winapinls.obj
 0002:00002bf4       ??_C@_1M@CGFMKEEK@?$AAe?$AAs?$AA?9?$AAP?$AAR@ 100a2bf4     libcpmt:winapinls.obj
 0002:00002c00       ??_C@_1O@ICJHKIIK@?$AAz?$AAh?$AA?9?$AAC?$AAH?$AAT@ 100a2c00     libcpmt:winapinls.obj
 0002:00002c10       ??_C@_15CLNEJCE@?$AAs?$AAr@ 100a2c10     libcpmt:winapinls.obj
 0002:00002c18       ??_C@_1M@KAHEKEIG@?$AAa?$AAf?$AA?9?$AAz?$AAa@ 100a2c18     libcpmt:winapinls.obj
 0002:00002c24       ??_C@_1M@GIECOABL@?$AAa?$AAr?$AA?9?$AAa?$AAe@ 100a2c24     libcpmt:winapinls.obj
 0002:00002c30       ??_C@_1M@BMLMEKGI@?$AAa?$AAr?$AA?9?$AAb?$AAh@ 100a2c30     libcpmt:winapinls.obj
 0002:00002c3c       ??_C@_1M@DAPFDGGB@?$AAa?$AAr?$AA?9?$AAd?$AAz@ 100a2c3c     libcpmt:winapinls.obj
 0002:00002c48       ??_C@_1M@FJNKGKIG@?$AAa?$AAr?$AA?9?$AAe?$AAg@ 100a2c48     libcpmt:winapinls.obj
 0002:00002c54       ??_C@_1M@FLGKKCLO@?$AAa?$AAr?$AA?9?$AAi?$AAq@ 100a2c54     libcpmt:winapinls.obj
 0002:00002c60       ??_C@_1M@GNDIPALM@?$AAa?$AAr?$AA?9?$AAj?$AAo@ 100a2c60     libcpmt:winapinls.obj
 0002:00002c6c       ??_C@_1M@DDMJFMGJ@?$AAa?$AAr?$AA?9?$AAk?$AAw@ 100a2c6c     libcpmt:winapinls.obj
 0002:00002c78       ??_C@_1M@EJALMLHM@?$AAa?$AAr?$AA?9?$AAl?$AAb@ 100a2c78     libcpmt:winapinls.obj
 0002:00002c84       ??_C@_1M@MOBDBLOC@?$AAa?$AAr?$AA?9?$AAl?$AAy@ 100a2c84     libcpmt:winapinls.obj
 0002:00002c90       ??_C@_1M@JAOCLHDH@?$AAa?$AAr?$AA?9?$AAm?$AAa@ 100a2c90     libcpmt:winapinls.obj
 0002:00002c9c       ??_C@_1M@JHPMKJIE@?$AAa?$AAr?$AA?9?$AAo?$AAm@ 100a2c9c     libcpmt:winapinls.obj
 0002:00002ca8       ??_C@_1M@OEPGHFNH@?$AAa?$AAr?$AA?9?$AAq?$AAa@ 100a2ca8     libcpmt:winapinls.obj
 0002:00002cb4       ??_C@_1M@KJDONENM@?$AAa?$AAr?$AA?9?$AAs?$AAa@ 100a2cb4     libcpmt:winapinls.obj
 0002:00002cc0       ??_C@_1M@DMJDKLKM@?$AAa?$AAr?$AA?9?$AAs?$AAy@ 100a2cc0     libcpmt:winapinls.obj
 0002:00002ccc       ??_C@_1M@OMFIPEDC@?$AAa?$AAr?$AA?9?$AAt?$AAn@ 100a2ccc     libcpmt:winapinls.obj
 0002:00002cd8       ??_C@_1M@IHMHGAON@?$AAa?$AAr?$AA?9?$AAy?$AAe@ 100a2cd8     libcpmt:winapinls.obj
 0002:00002ce4       ??_C@_1BG@KDCPGJGB@?$AAa?$AAz?$AA?9?$AAa?$AAz?$AA?9?$AAc?$AAy?$AAr?$AAl@ 100a2ce4     libcpmt:winapinls.obj
 0002:00002cfc       ??_C@_1BG@IBCKDDOE@?$AAa?$AAz?$AA?9?$AAa?$AAz?$AA?9?$AAl?$AAa?$AAt?$AAn@ 100a2cfc     libcpmt:winapinls.obj
 0002:00002d14       ??_C@_1M@EGPFDCPD@?$AAb?$AAe?$AA?9?$AAb?$AAy@ 100a2d14     libcpmt:winapinls.obj
 0002:00002d20       ??_C@_1M@PCMGMCGC@?$AAb?$AAg?$AA?9?$AAb?$AAg@ 100a2d20     libcpmt:winapinls.obj
 0002:00002d2c       ??_C@_1M@BJBMFGOB@?$AAb?$AAn?$AA?9?$AAi?$AAn@ 100a2d2c     libcpmt:winapinls.obj
 0002:00002d38       ??_C@_1BG@EAKMMACD@?$AAb?$AAs?$AA?9?$AAb?$AAa?$AA?9?$AAl?$AAa?$AAt?$AAn@ 100a2d38     libcpmt:winapinls.obj
 0002:00002d50       ??_C@_1M@KGADAODK@?$AAc?$AAa?$AA?9?$AAe?$AAs@ 100a2d50     libcpmt:winapinls.obj
 0002:00002d5c       ??_C@_1M@COAJPDHI@?$AAc?$AAs?$AA?9?$AAc?$AAz@ 100a2d5c     libcpmt:winapinls.obj
 0002:00002d68       ??_C@_1M@DHBHFONH@?$AAc?$AAy?$AA?9?$AAg?$AAb@ 100a2d68     libcpmt:winapinls.obj
 0002:00002d74       ??_C@_1M@IMGKELGA@?$AAd?$AAa?$AA?9?$AAd?$AAk@ 100a2d74     libcpmt:winapinls.obj
 0002:00002d80       ??_C@_1M@NNDGDNGA@?$AAd?$AAe?$AA?9?$AAa?$AAt@ 100a2d80     libcpmt:winapinls.obj
 0002:00002d8c       ??_C@_1M@IKDBHEEM@?$AAd?$AAe?$AA?9?$AAc?$AAh@ 100a2d8c     libcpmt:winapinls.obj
 0002:00002d98       ??_C@_1M@GFFOJMCJ@?$AAd?$AAe?$AA?9?$AAd?$AAe@ 100a2d98     libcpmt:winapinls.obj
 0002:00002da4       ??_C@_1M@MDNLKBPM@?$AAd?$AAe?$AA?9?$AAl?$AAi@ 100a2da4     libcpmt:winapinls.obj
 0002:00002db0       ??_C@_1M@NJBEEJNL@?$AAd?$AAe?$AA?9?$AAl?$AAu@ 100a2db0     libcpmt:winapinls.obj
 0002:00002dbc       ??_C@_1O@GNNELBAP@?$AAd?$AAi?$AAv?$AA?9?$AAm?$AAv@ 100a2dbc     libcpmt:winapinls.obj
 0002:00002dcc       ??_C@_1M@EJLEOGAE@?$AAe?$AAl?$AA?9?$AAg?$AAr@ 100a2dcc     libcpmt:winapinls.obj
 0002:00002dd8       ??_C@_1M@GMPONJN@?$AAe?$AAn?$AA?9?$AAa?$AAu@ 100a2dd8     libcpmt:winapinls.obj
 0002:00002de4       ??_C@_1M@NIDIIPGF@?$AAe?$AAn?$AA?9?$AAb?$AAz@ 100a2de4     libcpmt:winapinls.obj
 0002:00002df0       ??_C@_1M@JEHMIMFO@?$AAe?$AAn?$AA?9?$AAc?$AAa@ 100a2df0     libcpmt:winapinls.obj
 0002:00002dfc       ??_C@_1M@IGMJCDLA@?$AAe?$AAn?$AA?9?$AAc?$AAb@ 100a2dfc     libcpmt:winapinls.obj
 0002:00002e08       ??_C@_1M@BNFIGBKG@?$AAe?$AAn?$AA?9?$AAg?$AAb@ 100a2e08     libcpmt:winapinls.obj
 0002:00002e14       ??_C@_1M@LKIFDIGP@?$AAe?$AAn?$AA?9?$AAi?$AAe@ 100a2e14     libcpmt:winapinls.obj
 0002:00002e20       ??_C@_1M@PJKFGCCO@?$AAe?$AAn?$AA?9?$AAj?$AAm@ 100a2e20     libcpmt:winapinls.obj
 0002:00002e2c       ??_C@_1M@KPPKEPBO@?$AAe?$AAn?$AA?9?$AAn?$AAz@ 100a2e2c     libcpmt:winapinls.obj
 0002:00002e38       ??_C@_1M@GMDGLDOB@?$AAe?$AAn?$AA?9?$AAp?$AAh@ 100a2e38     libcpmt:winapinls.obj
 0002:00002e44       ??_C@_1M@ONGIBJNA@?$AAe?$AAn?$AA?9?$AAt?$AAt@ 100a2e44     libcpmt:winapinls.obj
 0002:00002e50       ??_C@_1M@LLODPCMM@?$AAe?$AAn?$AA?9?$AAu?$AAs@ 100a2e50     libcpmt:winapinls.obj
 0002:00002e5c       ??_C@_1M@LAKFNPAN@?$AAe?$AAn?$AA?9?$AAz?$AAa@ 100a2e5c     libcpmt:winapinls.obj
 0002:00002e68       ??_C@_1M@MFNHNHEO@?$AAe?$AAn?$AA?9?$AAz?$AAw@ 100a2e68     libcpmt:winapinls.obj
 0002:00002e74       ??_C@_1M@EJEINPHM@?$AAe?$AAs?$AA?9?$AAa?$AAr@ 100a2e74     libcpmt:winapinls.obj
 0002:00002e80       ??_C@_1M@GNKPCCJA@?$AAe?$AAs?$AA?9?$AAb?$AAo@ 100a2e80     libcpmt:winapinls.obj
 0002:00002e8c       ??_C@_1M@LEEGFONL@?$AAe?$AAs?$AA?9?$AAc?$AAl@ 100a2e8c     libcpmt:winapinls.obj
 0002:00002e98       ??_C@_1M@KGPDPBDF@?$AAe?$AAs?$AA?9?$AAc?$AAo@ 100a2e98     libcpmt:winapinls.obj
 0002:00002ea4       ??_C@_1M@EIAHOHH@?$AAe?$AAs?$AA?9?$AAc?$AAr@ 100a2ea4     libcpmt:winapinls.obj
 0002:00002eb0       ??_C@_1M@LLPGMBIN@?$AAe?$AAs?$AA?9?$AAd?$AAo@ 100a2eb0     libcpmt:winapinls.obj
 0002:00002ebc       ??_C@_1M@DKHMKNJA@?$AAe?$AAs?$AA?9?$AAe?$AAc@ 100a2ebc     libcpmt:winapinls.obj
 0002:00002ec8       ??_C@_1M@GKGFPKAP@?$AAe?$AAs?$AA?9?$AAe?$AAs@ 100a2ec8     libcpmt:winapinls.obj
 0002:00002ed4       ??_C@_1M@LKHKGDLN@?$AAe?$AAs?$AA?9?$AAg?$AAt@ 100a2ed4     libcpmt:winapinls.obj
 0002:00002ee0       ??_C@_1M@HEIIGGJD@?$AAe?$AAs?$AA?9?$AAh?$AAn@ 100a2ee0     libcpmt:winapinls.obj
 0002:00002eec       ??_C@_1M@FBDHPPGD@?$AAe?$AAs?$AA?9?$AAm?$AAx@ 100a2eec     libcpmt:winapinls.obj
 0002:00002ef8       ??_C@_1M@DPAGLNDH@?$AAe?$AAs?$AA?9?$AAn?$AAi@ 100a2ef8     libcpmt:winapinls.obj
 0002:00002f04       ??_C@_1M@MDGOPGDD@?$AAe?$AAs?$AA?9?$AAp?$AAa@ 100a2f04     libcpmt:winapinls.obj
 0002:00002f10       ??_C@_1M@EMAMGBGE@?$AAe?$AAs?$AA?9?$AAp?$AAe@ 100a2f10     libcpmt:winapinls.obj
 0002:00002f1c       ??_C@_1M@IBMCAOEC@?$AAe?$AAs?$AA?9?$AAp?$AAr@ 100a2f1c     libcpmt:winapinls.obj
 0002:00002f28       ??_C@_1M@FGMDIJED@?$AAe?$AAs?$AA?9?$AAp?$AAy@ 100a2f28     libcpmt:winapinls.obj
 0002:00002f34       ??_C@_1M@IIDEOLLL@?$AAe?$AAs?$AA?9?$AAs?$AAv@ 100a2f34     libcpmt:winapinls.obj
 0002:00002f40       ??_C@_1M@GAOBIPA@?$AAe?$AAs?$AA?9?$AAu?$AAy@ 100a2f40     libcpmt:winapinls.obj
 0002:00002f4c       ??_C@_1M@JKFFICHJ@?$AAe?$AAs?$AA?9?$AAv?$AAe@ 100a2f4c     libcpmt:winapinls.obj
 0002:00002f58       ??_C@_1M@PNMLOJDF@?$AAe?$AAt?$AA?9?$AAe?$AAe@ 100a2f58     libcpmt:winapinls.obj
 0002:00002f64       ??_C@_1M@GHHLIKEI@?$AAe?$AAu?$AA?9?$AAe?$AAs@ 100a2f64     libcpmt:winapinls.obj
 0002:00002f70       ??_C@_1M@PBNONODE@?$AAf?$AAa?$AA?9?$AAi?$AAr@ 100a2f70     libcpmt:winapinls.obj
 0002:00002f7c       ??_C@_1M@JEEHPMIL@?$AAf?$AAi?$AA?9?$AAf?$AAi@ 100a2f7c     libcpmt:winapinls.obj
 0002:00002f88       ??_C@_1M@LMDCNDBA@?$AAf?$AAo?$AA?9?$AAf?$AAo@ 100a2f88     libcpmt:winapinls.obj
 0002:00002f94       ??_C@_1M@JKEOHLDK@?$AAf?$AAr?$AA?9?$AAb?$AAe@ 100a2f94     libcpmt:winapinls.obj
 0002:00002fa0       ??_C@_1M@NOHADPMI@?$AAf?$AAr?$AA?9?$AAc?$AAa@ 100a2fa0     libcpmt:winapinls.obj
 0002:00002fac       ??_C@_1M@KDHIHAEC@?$AAf?$AAr?$AA?9?$AAc?$AAh@ 100a2fac     libcpmt:winapinls.obj
 0002:00002fb8       ??_C@_1M@MMBBFGAK@?$AAf?$AAr?$AA?9?$AAf?$AAr@ 100a2fb8     libcpmt:winapinls.obj
 0002:00002fc4       ??_C@_1M@PAFNENNF@?$AAf?$AAr?$AA?9?$AAl?$AAu@ 100a2fc4     libcpmt:winapinls.obj
 0002:00002fd0       ??_C@_1M@EOHDJGDD@?$AAf?$AAr?$AA?9?$AAm?$AAc@ 100a2fd0     libcpmt:winapinls.obj
 0002:00002fdc       ??_C@_1M@FAPLLOPF@?$AAg?$AAl?$AA?9?$AAe?$AAs@ 100a2fdc     libcpmt:winapinls.obj
 0002:00002fe8       ??_C@_1M@FOPBFLOO@?$AAg?$AAu?$AA?9?$AAi?$AAn@ 100a2fe8     libcpmt:winapinls.obj
 0002:00002ff4       ??_C@_1M@KBMCINPM@?$AAh?$AAe?$AA?9?$AAi?$AAl@ 100a2ff4     libcpmt:winapinls.obj
 0002:00003000       ??_C@_1M@BBPHKFPJ@?$AAh?$AAi?$AA?9?$AAi?$AAn@ 100a3000     libcpmt:winapinls.obj
 0002:0000300c       ??_C@_1M@PMBNDPHD@?$AAh?$AAr?$AA?9?$AAb?$AAa@ 100a300c     libcpmt:winapinls.obj
 0002:00003018       ??_C@_1M@BPCKOEGE@?$AAh?$AAr?$AA?9?$AAh?$AAr@ 100a3018     libcpmt:winapinls.obj
 0002:00003024       ??_C@_1M@GACBMHKE@?$AAh?$AAu?$AA?9?$AAh?$AAu@ 100a3024     libcpmt:winapinls.obj
 0002:00003030       ??_C@_1M@MILPAJJC@?$AAh?$AAy?$AA?9?$AAa?$AAm@ 100a3030     libcpmt:winapinls.obj
 0002:0000303c       ??_C@_1M@BABBICEC@?$AAi?$AAd?$AA?9?$AAi?$AAd@ 100a303c     libcpmt:winapinls.obj
 0002:00003048       ??_C@_1M@BIKNHHPF@?$AAi?$AAs?$AA?9?$AAi?$AAs@ 100a3048     libcpmt:winapinls.obj
 0002:00003054       ??_C@_1M@NMPCJPHE@?$AAi?$AAt?$AA?9?$AAc?$AAh@ 100a3054     libcpmt:winapinls.obj
 0002:00003060       ??_C@_1M@GHKGFEDF@?$AAi?$AAt?$AA?9?$AAi?$AAt@ 100a3060     libcpmt:winapinls.obj
 0002:0000306c       ??_C@_1M@NIEJCJJA@?$AAj?$AAa?$AA?9?$AAj?$AAp@ 100a306c     libcpmt:winapinls.obj
 0002:00003078       ??_C@_1M@JILFNBIM@?$AAk?$AAa?$AA?9?$AAg?$AAe@ 100a3078     libcpmt:winapinls.obj
 0002:00003084       ??_C@_1M@PACPMGPH@?$AAk?$AAk?$AA?9?$AAk?$AAz@ 100a3084     libcpmt:winapinls.obj
 0002:00003090       ??_C@_1M@IELFGMHA@?$AAk?$AAn?$AA?9?$AAi?$AAn@ 100a3090     libcpmt:winapinls.obj
 0002:0000309c       ??_C@_1M@DMHAEOGC@?$AAk?$AAo?$AA?9?$AAk?$AAr@ 100a309c     libcpmt:winapinls.obj
 0002:000030a8       ??_C@_1O@IBBJHCH@?$AAk?$AAo?$AAk?$AA?9?$AAi?$AAn@ 100a30a8     libcpmt:winapinls.obj
 0002:000030b8       ??_C@_1M@HBAHBIGA@?$AAk?$AAy?$AA?9?$AAk?$AAg@ 100a30b8     libcpmt:winapinls.obj
 0002:000030c4       ??_C@_1M@KPMILCJG@?$AAl?$AAt?$AA?9?$AAl?$AAt@ 100a30c4     libcpmt:winapinls.obj
 0002:000030d0       ??_C@_1M@BDEKKCA@?$AAl?$AAv?$AA?9?$AAl?$AAv@ 100a30d0     libcpmt:winapinls.obj
 0002:000030dc       ??_C@_1M@ELCKCCJJ@?$AAm?$AAi?$AA?9?$AAn?$AAz@ 100a30dc     libcpmt:winapinls.obj
 0002:000030e8       ??_C@_1M@CBOOLAPA@?$AAm?$AAk?$AA?9?$AAm?$AAk@ 100a30e8     libcpmt:winapinls.obj
 0002:000030f4       ??_C@_1M@GPHNBJKN@?$AAm?$AAl?$AA?9?$AAi?$AAn@ 100a30f4     libcpmt:winapinls.obj
 0002:00003100       ??_C@_1M@PABJILIG@?$AAm?$AAn?$AA?9?$AAm?$AAn@ 100a3100     libcpmt:winapinls.obj
 0002:0000310c       ??_C@_1M@FGBKKIPG@?$AAm?$AAr?$AA?9?$AAi?$AAn@ 100a310c     libcpmt:winapinls.obj
 0002:00003118       ??_C@_1M@NDBPDDAL@?$AAm?$AAs?$AA?9?$AAb?$AAn@ 100a3118     libcpmt:winapinls.obj
 0002:00003124       ??_C@_1M@OPIHOOPI@?$AAm?$AAs?$AA?9?$AAm?$AAy@ 100a3124     libcpmt:winapinls.obj
 0002:00003130       ??_C@_1M@PPDBCNFM@?$AAm?$AAt?$AA?9?$AAm?$AAt@ 100a3130     libcpmt:winapinls.obj
 0002:0000313c       ??_C@_1M@KDJDKMDD@?$AAn?$AAb?$AA?9?$AAn?$AAo@ 100a313c     libcpmt:winapinls.obj
 0002:00003148       ??_C@_1M@KFCFLMJP@?$AAn?$AAl?$AA?9?$AAb?$AAe@ 100a3148     libcpmt:winapinls.obj
 0002:00003154       ??_C@_1M@KPOPDDGO@?$AAn?$AAl?$AA?9?$AAn?$AAl@ 100a3154     libcpmt:winapinls.obj
 0002:00003160       ??_C@_1M@LJKPEMLN@?$AAn?$AAn?$AA?9?$AAn?$AAo@ 100a3160     libcpmt:winapinls.obj
 0002:0000316c       ??_C@_1M@BDGHHBFL@?$AAn?$AAs?$AA?9?$AAz?$AAa@ 100a316c     libcpmt:winapinls.obj
 0002:00003178       ??_C@_1M@IDEHOAP@?$AAp?$AAa?$AA?9?$AAi?$AAn@ 100a3178     libcpmt:winapinls.obj
 0002:00003184       ??_C@_1M@HDBKGOGH@?$AAp?$AAl?$AA?9?$AAp?$AAl@ 100a3184     libcpmt:winapinls.obj
 0002:00003190       ??_C@_1M@LJLLCMEH@?$AAp?$AAt?$AA?9?$AAb?$AAr@ 100a3190     libcpmt:winapinls.obj
 0002:0000319c       ??_C@_1M@NCMONAAL@?$AAp?$AAt?$AA?9?$AAp?$AAt@ 100a319c     libcpmt:winapinls.obj
 0002:000031a8       ??_C@_1O@EAKMAJDN@?$AAq?$AAu?$AAz?$AA?9?$AAb?$AAo@ 100a31a8     libcpmt:winapinls.obj
 0002:000031b8       ??_C@_1O@BHHPIGDN@?$AAq?$AAu?$AAz?$AA?9?$AAe?$AAc@ 100a31b8     libcpmt:winapinls.obj
 0002:000031c8       ??_C@_1O@GBAPEKMJ@?$AAq?$AAu?$AAz?$AA?9?$AAp?$AAe@ 100a31c8     libcpmt:winapinls.obj
 0002:000031d8       ??_C@_1M@CLGLEFBO@?$AAr?$AAo?$AA?9?$AAr?$AAo@ 100a31d8     libcpmt:winapinls.obj
 0002:000031e4       ??_C@_1M@CEEDODME@?$AAr?$AAu?$AA?9?$AAr?$AAu@ 100a31e4     libcpmt:winapinls.obj
 0002:000031f0       ??_C@_1M@HPKKKMPP@?$AAs?$AAa?$AA?9?$AAi?$AAn@ 100a31f0     libcpmt:winapinls.obj
 0002:000031fc       ??_C@_1M@BKMAIGOJ@?$AAs?$AAe?$AA?9?$AAf?$AAi@ 100a31fc     libcpmt:winapinls.obj
 0002:00003208       ??_C@_1M@NDPIFLFI@?$AAs?$AAe?$AA?9?$AAn?$AAo@ 100a3208     libcpmt:winapinls.obj
 0002:00003214       ??_C@_1M@DANKKHJ@?$AAs?$AAe?$AA?9?$AAs?$AAe@ 100a3214     libcpmt:winapinls.obj
 0002:00003220       ??_C@_1M@PNBLONPJ@?$AAs?$AAk?$AA?9?$AAs?$AAk@ 100a3220     libcpmt:winapinls.obj
 0002:0000322c       ??_C@_1M@LFMODOAL@?$AAs?$AAl?$AA?9?$AAs?$AAi@ 100a322c     libcpmt:winapinls.obj
 0002:00003238       ??_C@_1O@DFKOMPG@?$AAs?$AAm?$AAa?$AA?9?$AAn?$AAo@ 100a3238     libcpmt:winapinls.obj
 0002:00003248       ??_C@_1O@NDKPBNNH@?$AAs?$AAm?$AAa?$AA?9?$AAs?$AAe@ 100a3248     libcpmt:winapinls.obj
 0002:00003258       ??_C@_1O@PLLKBHAB@?$AAs?$AAm?$AAj?$AA?9?$AAn?$AAo@ 100a3258     libcpmt:winapinls.obj
 0002:00003268       ??_C@_1O@CLEPOGCA@?$AAs?$AAm?$AAj?$AA?9?$AAs?$AAe@ 100a3268     libcpmt:winapinls.obj
 0002:00003278       ??_C@_1O@DLGJGKMK@?$AAs?$AAm?$AAn?$AA?9?$AAf?$AAi@ 100a3278     libcpmt:winapinls.obj
 0002:00003288       ??_C@_1O@OJDJGAJC@?$AAs?$AAm?$AAs?$AA?9?$AAf?$AAi@ 100a3288     libcpmt:winapinls.obj
 0002:00003298       ??_C@_1M@BOFOGHPB@?$AAs?$AAq?$AA?9?$AAa?$AAl@ 100a3298     libcpmt:winapinls.obj
 0002:000032a4       ??_C@_1BG@LJBBIPGB@?$AAs?$AAr?$AA?9?$AAb?$AAa?$AA?9?$AAc?$AAy?$AAr?$AAl@ 100a32a4     libcpmt:winapinls.obj
 0002:000032bc       ??_C@_1BG@JLBENFOE@?$AAs?$AAr?$AA?9?$AAb?$AAa?$AA?9?$AAl?$AAa?$AAt?$AAn@ 100a32bc     libcpmt:winapinls.obj
 0002:000032d4       ??_C@_1BG@KODPNHE@?$AAs?$AAr?$AA?9?$AAs?$AAp?$AA?9?$AAc?$AAy?$AAr?$AAl@ 100a32d4     libcpmt:winapinls.obj
 0002:000032ec       ??_C@_1BG@CIOGKHPB@?$AAs?$AAr?$AA?9?$AAs?$AAp?$AA?9?$AAl?$AAa?$AAt?$AAn@ 100a32ec     libcpmt:winapinls.obj
 0002:00003304       ??_C@_1M@NGFJLMAC@?$AAs?$AAv?$AA?9?$AAf?$AAi@ 100a3304     libcpmt:winapinls.obj
 0002:00003310       ??_C@_1M@MPJEJAJC@?$AAs?$AAv?$AA?9?$AAs?$AAe@ 100a3310     libcpmt:winapinls.obj
 0002:0000331c       ??_C@_1M@MPNDHLFK@?$AAs?$AAw?$AA?9?$AAk?$AAe@ 100a331c     libcpmt:winapinls.obj
 0002:00003328       ??_C@_1O@KOHBJJI@?$AAs?$AAy?$AAr?$AA?9?$AAs?$AAy@ 100a3328     libcpmt:winapinls.obj
 0002:00003338       ??_C@_1M@LDCEFHA@?$AAt?$AAa?$AA?9?$AAi?$AAn@ 100a3338     libcpmt:winapinls.obj
 0002:00003344       ??_C@_1M@CNJOFAK@?$AAt?$AAe?$AA?9?$AAi?$AAn@ 100a3344     libcpmt:winapinls.obj
 0002:00003350       ??_C@_1M@GNAECACD@?$AAt?$AAh?$AA?9?$AAt?$AAh@ 100a3350     libcpmt:winapinls.obj
 0002:0000335c       ??_C@_1M@CHBIHOJO@?$AAt?$AAn?$AA?9?$AAz?$AAa@ 100a335c     libcpmt:winapinls.obj
 0002:00003368       ??_C@_1M@GCCMIGPJ@?$AAt?$AAr?$AA?9?$AAt?$AAr@ 100a3368     libcpmt:winapinls.obj
 0002:00003374       ??_C@_1M@CELMCNBK@?$AAt?$AAt?$AA?9?$AAr?$AAu@ 100a3374     libcpmt:winapinls.obj
 0002:00003380       ??_C@_1M@KLMCELGA@?$AAu?$AAk?$AA?9?$AAu?$AAa@ 100a3380     libcpmt:winapinls.obj
 0002:0000338c       ??_C@_1M@EPAJJAJF@?$AAu?$AAr?$AA?9?$AAp?$AAk@ 100a338c     libcpmt:winapinls.obj
 0002:00003398       ??_C@_1BG@GEGPMCDJ@?$AAu?$AAz?$AA?9?$AAu?$AAz?$AA?9?$AAc?$AAy?$AAr?$AAl@ 100a3398     libcpmt:winapinls.obj
 0002:000033b0       ??_C@_1BG@EGGKJILM@?$AAu?$AAz?$AA?9?$AAu?$AAz?$AA?9?$AAl?$AAa?$AAt?$AAn@ 100a33b0     libcpmt:winapinls.obj
 0002:000033c8       ??_C@_1M@GFOCLFF@?$AAv?$AAi?$AA?9?$AAv?$AAn@ 100a33c8     libcpmt:winapinls.obj
 0002:000033d4       ??_C@_1M@CPAMEDFI@?$AAx?$AAh?$AA?9?$AAz?$AAa@ 100a33d4     libcpmt:winapinls.obj
 0002:000033e0       ??_C@_1O@EBKIFIGN@?$AAz?$AAh?$AA?9?$AAc?$AAh?$AAs@ 100a33e0     libcpmt:winapinls.obj
 0002:000033f0       ??_C@_1O@NMHPGANE@?$AAz?$AAh?$AA?9?$AAc?$AAh?$AAt@ 100a33f0     libcpmt:winapinls.obj
 0002:00003400       ??_C@_1M@LPINJOMC@?$AAz?$AAh?$AA?9?$AAc?$AAn@ 100a3400     libcpmt:winapinls.obj
 0002:0000340c       ??_C@_1M@OCJEJODD@?$AAz?$AAh?$AA?9?$AAh?$AAk@ 100a340c     libcpmt:winapinls.obj
 0002:00003418       ??_C@_1M@DNDLJINH@?$AAz?$AAh?$AA?9?$AAm?$AAo@ 100a3418     libcpmt:winapinls.obj
 0002:00003424       ??_C@_1M@MBFDNDND@?$AAz?$AAh?$AA?9?$AAs?$AAg@ 100a3424     libcpmt:winapinls.obj
 0002:00003430       ??_C@_1M@IMEPLEPE@?$AAz?$AAh?$AA?9?$AAt?$AAw@ 100a3430     libcpmt:winapinls.obj
 0002:0000343c       ??_C@_1M@BBGHNHJP@?$AAz?$AAu?$AA?9?$AAz?$AAa@ 100a343c     libcpmt:winapinls.obj
 0002:0000344c       ??_7type_info@@6B@         100a344c     LIBCMT:std_type_info_static.obj
 0002:00003450       __pRawDllMain              100a3450     LIBCMT:dll_dllmain.obj
 0002:00003450       __pDefaultRawDllMain       100a3450     LIBCMT:dll_dllmain.obj
 0002:0000345c       __pDestructExceptionObject 100a345c     libvcruntime:ehhelpers.obj
 0002:00003464       ??_7bad_typeid@std@@6B@    100a3464     libvcruntime:rtti.obj
 0002:00003470       ??_7__non_rtti_object@std@@6B@ 100a3470     libvcruntime:rtti.obj
 0002:00003478       ??_C@_0CB@CGKGGDFI@Access?5violation?5?9?5no?5RTTI?5data@ 100a3478     libvcruntime:rtti.obj
 0002:0000349c       ??_C@_0CH@OLLMPELC@Attempted?5a?5typeid?5of?5nullptr?5p@ 100a349c     libvcruntime:rtti.obj
 0002:000034c4       ??_C@_0CB@EEENAAHH@Bad?5read?5pointer?5?9?5no?5RTTI?5data@ 100a34c4     libvcruntime:rtti.obj
 0002:000034ec       ??_7bad_exception@std@@6B@ 100a34ec     libvcruntime:frame.obj
 0002:000034f4       ??_C@_0O@DPKOEFFH@bad?5exception@ 100a34f4     libvcruntime:frame.obj
 0002:00003888       ??_C@_08EHJDFFNH@__based?$CI@ 100a3888     libvcruntime:undname.obj
 0002:00003894       ??_C@_07KOLFKCDI@__cdecl@  100a3894     libvcruntime:undname.obj
 0002:0000389c       ??_C@_08GHMPAG@__pascal@   100a389c     libvcruntime:undname.obj
 0002:000038a8       ??_C@_09IFJBGAPI@__stdcall@ 100a38a8     libvcruntime:undname.obj
 0002:000038b4       ??_C@_0L@NPHFGOKO@__thiscall@ 100a38b4     libvcruntime:undname.obj
 0002:000038c0       ??_C@_0L@JMKHOMEK@__fastcall@ 100a38c0     libvcruntime:undname.obj
 0002:000038cc       ??_C@_0N@BCKKPABJ@__vectorcall@ 100a38cc     libvcruntime:undname.obj
 0002:000038dc       ??_C@_09HIJEGCPM@__clrcall@ 100a38dc     libvcruntime:undname.obj
 0002:000038e8       ??_C@_06GHPCKEAG@__eabi@   100a38e8     libvcruntime:undname.obj
 0002:000038f0       ??_C@_09IOPIDJLG@__swift_1@ 100a38f0     libvcruntime:undname.obj
 0002:000038fc       ??_C@_09KFNFGKHF@__swift_2@ 100a38fc     libvcruntime:undname.obj
 0002:00003908       ??_C@_07JOMMBBKO@__ptr64@  100a3908     libvcruntime:undname.obj
 0002:00003910       ??_C@_0L@PILCLIHE@__restrict@ 100a3910     libvcruntime:undname.obj
 0002:0000391c       ??_C@_0M@GFIIJFMG@__unaligned@ 100a391c     libvcruntime:undname.obj
 0002:00003928       ??_C@_09DHDLOLLB@restrict?$CI@ 100a3928     libvcruntime:undname.obj
 0002:00003934       ??_C@_04NIHEBCM@?5new@     100a3934     libvcruntime:undname.obj
 0002:0000393c       ??_C@_07FPCDHGMM@?5delete@ 100a393c     libvcruntime:undname.obj
 0002:00003944       ??_C@_01NEMOKFLO@?$DN@     100a3944     libvcruntime:undname.obj
 0002:00003948       ??_C@_02GPIOPFAK@?$DO?$DO@ 100a3948     libvcruntime:undname.obj
 0002:0000394c       ??_C@_02FODMEDOG@?$DM?$DM@ 100a394c     libvcruntime:undname.obj
 0002:00003950       ??_C@_01DCLJPIOD@?$CB@     100a3950     libvcruntime:undname.obj
 0002:00003954       ??_C@_02EGOFBIJA@?$DN?$DN@ 100a3954     libvcruntime:undname.obj
 0002:00003958       ??_C@_02FDNJECIE@?$CB?$DN@ 100a3958     libvcruntime:undname.obj
 0002:0000395c       ??_C@_02GPECMEKF@?$FL?$FN@ 100a395c     libvcruntime:undname.obj
 0002:00003960       ??_C@_08LHJFAFGD@operator@ 100a3960     libvcruntime:undname.obj
 0002:0000396c       ??_C@_02HBOOOICD@?9?$DO@   100a396c     libvcruntime:undname.obj
 0002:00003970       ??_C@_02ECNGHCIF@?$CL?$CL@ 100a3970     libvcruntime:undname.obj
 0002:00003974       ??_C@_02BAABKJLB@?9?9@     100a3974     libvcruntime:undname.obj
 0002:00003978       ??_C@_01MIFGBAGJ@?$CL@     100a3978     libvcruntime:undname.obj
 0002:0000397c       ??_C@_01HNPIGOCE@?$CG@     100a397c     libvcruntime:undname.obj
 0002:00003980       ??_C@_03MNHNFDLC@?9?$DO?$CK@ 100a3980     libvcruntime:undname.obj
 0002:00003984       ??_C@_01KMDKNFGN@?1@       100a3984     libvcruntime:undname.obj
 0002:00003988       ??_C@_01FGNFDNOH@?$CF@     100a3988     libvcruntime:undname.obj
 0002:0000398c       ??_C@_01MNNFJEPP@?$DM@     100a398c     libvcruntime:undname.obj
 0002:00003990       ??_C@_02EHCHHCKH@?$DM?$DN@ 100a3990     libvcruntime:undname.obj
 0002:00003994       ??_C@_01PPODPGHN@?$DO@     100a3994     libvcruntime:undname.obj
 0002:00003998       ??_C@_02EEKDKGMJ@?$DO?$DN@ 100a3998     libvcruntime:undname.obj
 0002:0000399c       ??_C@_01IHBHIGKO@?0@       100a399c     libvcruntime:undname.obj
 0002:000039a0       ??_C@_02HCKGKOFO@?$CI?$CJ@ 100a39a0     libvcruntime:undname.obj
 0002:000039a4       ??_C@_01PJKLJHI@?$HO@      100a39a4     libvcruntime:undname.obj
 0002:000039a8       ??_C@_01JKBOJNNK@?$FO@     100a39a8     libvcruntime:undname.obj
 0002:000039ac       ??_C@_01DNKMNLPK@?$HM@     100a39ac     libvcruntime:undname.obj
 0002:000039b0       ??_C@_02PPKAJPJL@?$CG?$CG@ 100a39b0     libvcruntime:undname.obj
 0002:000039b4       ??_C@_02NONPIBCD@?$HM?$HM@ 100a39b4     libvcruntime:undname.obj
 0002:000039b8       ??_C@_02FPIMKNGF@?$CK?$DN@ 100a39b8     libvcruntime:undname.obj
 0002:000039bc       ??_C@_02FOEOMHFC@?$CL?$DN@ 100a39bc     libvcruntime:undname.obj
 0002:000039c0       ??_C@_02FKMDLLOA@?9?$DN@   100a39c0     libvcruntime:undname.obj
 0002:000039c4       ??_C@_02FJEHGPIO@?1?$DN@   100a39c4     libvcruntime:undname.obj
 0002:000039c8       ??_C@_02FENAOKFI@?$CF?$DN@ 100a39c8     libvcruntime:undname.obj
 0002:000039cc       ??_C@_03IKFCCPFF@?$DO?$DO?$DN@ 100a39cc     libvcruntime:undname.obj
 0002:000039d0       ??_C@_03CDNPDDLA@?$DM?$DM?$DN@ 100a39d0     libvcruntime:undname.obj
 0002:000039d4       ??_C@_02FGJGFEAB@?$CG?$DN@ 100a39d4     libvcruntime:undname.obj
 0002:000039d8       ??_C@_02DHLNPPGH@?$HM?$DN@ 100a39d8     libvcruntime:undname.obj
 0002:000039dc       ??_C@_02MHEGNOJ@?$FO?$DN@  100a39dc     libvcruntime:undname.obj
 0002:000039e0       ??_C@_09IFPLHPGF@?$GAvftable?8@ 100a39e0     libvcruntime:undname.obj
 0002:000039ec       ??_C@_09BLBHBJP@?$GAvbtable?8@ 100a39ec     libvcruntime:undname.obj
 0002:000039f8       ??_C@_07FEEIOKP@?$GAvcall?8@ 100a39f8     libvcruntime:undname.obj
 0002:00003a00       ??_C@_08LLFFHHDJ@?$GAtypeof?8@ 100a3a00     libvcruntime:undname.obj
 0002:00003a0c       ??_C@_0BF@KDPPACIK@?$GAlocal?5static?5guard?8@ 100a3a0c     libvcruntime:undname.obj
 0002:00003a24       ??_C@_08OBABFOLI@?$GAstring?8@ 100a3a24     libvcruntime:undname.obj
 0002:00003a30       ??_C@_0BD@JDLKDPAB@?$GAvbase?5destructor?8@ 100a3a30     libvcruntime:undname.obj
 0002:00003a44       ??_C@_0BN@DEGPLNFK@?$GAvector?5deleting?5destructor?8@ 100a3a44     libvcruntime:undname.obj
 0002:00003a64       ??_C@_0BO@OBMKPJIG@?$GAdefault?5constructor?5closure?8@ 100a3a64     libvcruntime:undname.obj
 0002:00003a84       ??_C@_0BN@IMDCHIKM@?$GAscalar?5deleting?5destructor?8@ 100a3a84     libvcruntime:undname.obj
 0002:00003aa4       ??_C@_0BO@PFGOCPJJ@?$GAvector?5constructor?5iterator?8@ 100a3aa4     libvcruntime:undname.obj
 0002:00003ac4       ??_C@_0BN@LFPFMEDL@?$GAvector?5destructor?5iterator?8@ 100a3ac4     libvcruntime:undname.obj
 0002:00003ae4       ??_C@_0CE@IKBNEHA@?$GAvector?5vbase?5constructor?5itera@ 100a3ae4     libvcruntime:undname.obj
 0002:00003b08       ??_C@_0BL@NILFHHPC@?$GAvirtual?5displacement?5map?8@ 100a3b08     libvcruntime:undname.obj
 0002:00003b24       ??_C@_0CB@JONCMFFK@?$GAeh?5vector?5constructor?5iterator@ 100a3b24     libvcruntime:undname.obj
 0002:00003b48       ??_C@_0CA@GCEOPDGL@?$GAeh?5vector?5destructor?5iterator?8@ 100a3b48     libvcruntime:undname.obj
 0002:00003b68       ??_C@_0CH@OOJPLCPH@?$GAeh?5vector?5vbase?5constructor?5it@ 100a3b68     libvcruntime:undname.obj
 0002:00003b90       ??_C@_0BL@LLKPOHJI@?$GAcopy?5constructor?5closure?8@ 100a3b90     libvcruntime:undname.obj
 0002:00003bac       ??_C@_0BA@KBCDOMBN@?$GAudt?5returning?8@ 100a3bac     libvcruntime:undname.obj
 0002:00003bbc       ??_C@_03KLGMFNMG@?$GAEH@   100a3bbc     libvcruntime:undname.obj
 0002:00003bc0       ??_C@_05KHLCHHI@?$GARTTI@  100a3bc0     libvcruntime:undname.obj
 0002:00003bc8       ??_C@_0BA@KKLDJDLB@?$GAlocal?5vftable?8@ 100a3bc8     libvcruntime:undname.obj
 0002:00003bd8       ??_C@_0CE@IIHCMGGL@?$GAlocal?5vftable?5constructor?5clos@ 100a3bd8     libvcruntime:undname.obj
 0002:00003bfc       ??_C@_06FHBGPFGH@?5new?$FL?$FN@ 100a3bfc     libvcruntime:undname.obj
 0002:00003c04       ??_C@_09LBNFPBCA@?5delete?$FL?$FN@ 100a3c04     libvcruntime:undname.obj
 0002:00003c10       ??_C@_0P@HJKNJFNN@?$GAomni?5callsig?8@ 100a3c10     libvcruntime:undname.obj
 0002:00003c20       ??_C@_0BL@CNOONJFP@?$GAplacement?5delete?5closure?8@ 100a3c20     libvcruntime:undname.obj
 0002:00003c3c       ??_C@_0BN@CKNJLHMB@?$GAplacement?5delete?$FL?$FN?5closure?8@ 100a3c3c     libvcruntime:undname.obj
 0002:00003c5c       ??_C@_0CG@CFDHKGGD@?$GAmanaged?5vector?5constructor?5ite@ 100a3c5c     libvcruntime:undname.obj
 0002:00003c84       ??_C@_0CF@IMGKMJNO@?$GAmanaged?5vector?5destructor?5iter@ 100a3c84     libvcruntime:undname.obj
 0002:00003cac       ??_C@_0CG@HLDDJMAG@?$GAeh?5vector?5copy?5constructor?5ite@ 100a3cac     libvcruntime:undname.obj
 0002:00003cd4       ??_C@_0CM@FCBBDIGB@?$GAeh?5vector?5vbase?5copy?5construct@ 100a3cd4     libvcruntime:undname.obj
 0002:00003d00       ??_C@_0BL@CLIPGLGB@?$GAdynamic?5initializer?5for?5?8@ 100a3d00     libvcruntime:undname.obj
 0002:00003d1c       ??_C@_0CB@PDBIFEP@?$GAdynamic?5atexit?5destructor?5for?5@ 100a3d1c     libvcruntime:undname.obj
 0002:00003d40       ??_C@_0CD@CGAJBKEJ@?$GAvector?5copy?5constructor?5iterat@ 100a3d40     libvcruntime:undname.obj
 0002:00003d64       ??_C@_0CJ@GJELGAMM@?$GAvector?5vbase?5copy?5constructor?5@ 100a3d64     libvcruntime:undname.obj
 0002:00003d90       ??_C@_0CL@FGIJHLCE@?$GAmanaged?5vector?5copy?5constructo@ 100a3d90     libvcruntime:undname.obj
 0002:00003dbc       ??_C@_0BM@PMGGMLDN@?$GAlocal?5static?5thread?5guard?8@ 100a3dbc     libvcruntime:undname.obj
 0002:00003dd8       ??_C@_0N@BDNMDMOL@operator?5?$CC?$CC?5@ 100a3dd8     libvcruntime:undname.obj
 0002:00003de8       ??_C@_0BC@GGEBGALA@operator?5co_await@ 100a3de8     libvcruntime:undname.obj
 0002:00003dfc       ??_C@_0M@GAAIMMOH@operator?$DM?$DN?$DO@ 100a3dfc     libvcruntime:undname.obj
 0002:00003e08       ??_C@_0BC@DAFEJGAK@?5Type?5Descriptor?8@ 100a3e08     libvcruntime:undname.obj
 0002:00003e1c       ??_C@_0BM@LDKODKLH@?5Base?5Class?5Descriptor?5at?5?$CI@ 100a3e1c     libvcruntime:undname.obj
 0002:00003e38       ??_C@_0BD@LGICGFMM@?5Base?5Class?5Array?8@ 100a3e38     libvcruntime:undname.obj
 0002:00003e4c       ??_C@_0BN@MECKDCOJ@?5Class?5Hierarchy?5Descriptor?8@ 100a3e4c     libvcruntime:undname.obj
 0002:00003e6c       ??_C@_0BK@CFCOFLF@?5Complete?5Object?5Locator?8@ 100a3e6c     libvcruntime:undname.obj
 0002:00003e88       ??_C@_0BG@JNJLAMPM@?$GAanonymous?5namespace?8@ 100a3e88     libvcruntime:undname.obj
 0002:00003ea0       ??_C@_04HEJADOOB@CV?3?5@   100a3ea0     libvcruntime:undname.obj
 0002:00003ea8       ??_C@_02MOLJINC@?3?3@      100a3ea8     libvcruntime:undname.obj
 0002:00003eac       ??_C@_0BE@JAEOCHPE@template?9parameter?9@ 100a3eac     libvcruntime:undname.obj
 0002:00003ec0       ??_C@_0BF@LNLGBBNL@?$GAtemplate?9parameter?9@ 100a3ec0     libvcruntime:undname.obj
 0002:00003ed8       ??_C@_0O@KHGCOMHP@generic?9type?9@ 100a3ed8     libvcruntime:undname.obj
 0002:00003ee8       ??_C@_0P@ODDENDLM@?$GAgeneric?9type?9@ 100a3ee8     libvcruntime:undname.obj
 0002:00003ef8       ??_C@_02OHHJMEON@?8?8@     100a3ef8     libvcruntime:undname.obj
 0002:00003efc       ??_C@_0BN@IBLMMFAP@?$GAnon?9type?9template?9parameter@ 100a3efc     libvcruntime:undname.obj
 0002:00003f1c       ??_C@_03KHICJKCI@?4?4?4@   100a3f1c     libvcruntime:undname.obj
 0002:00003f20       ??_C@_04HIBGFPH@NULL@      100a3f20     libvcruntime:undname.obj
 0002:00003f28       ??_C@_02DPKJAMEF@?$CFd@    100a3f28     libvcruntime:undname.obj
 0002:00003f2c       ??_C@_0BK@IHCCFNEL@?$GAtemplate?9type?9parameter?9@ 100a3f2c     libvcruntime:undname.obj
 0002:00003f48       ??_C@_0BK@OFCNNNKO@?$GAgeneric?9class?9parameter?9@ 100a3f48     libvcruntime:undname.obj
 0002:00003f64       ??_C@_0BL@NGJBLFIL@?$GAgeneric?9method?9parameter?9@ 100a3f64     libvcruntime:undname.obj
 0002:00003f80       ??_C@_04GKJNKENE@void@     100a3f80     libvcruntime:undname.obj
 0002:00003f88       ??_C@_0BE@EODMJLIF@?$GAtemplate?9parameter@ 100a3f88     libvcruntime:undname.obj
 0002:00003f9c       ??_C@_03OPGICMGF@?$HN?8?5@ 100a3f9c     libvcruntime:undname.obj
 0002:00003fa0       ??_C@_02IGFCGPIL@?$HN?8@   100a3fa0     libvcruntime:undname.obj
 0002:00003fa4       ??_C@_0N@CBHHHENL@?$GAvtordispex?$HL@ 100a3fa4     libvcruntime:undname.obj
 0002:00003fb4       ??_C@_0L@GHPFDFH@?$GAvtordisp?$HL@ 100a3fb4     libvcruntime:undname.obj
 0002:00003fc0       ??_C@_0L@HNGCOGAE@?$GAadjustor?$HL@ 100a3fc0     libvcruntime:undname.obj
 0002:00003fcc       ??_C@_0CB@KJDOOODE@?$GAlocal?5static?5destructor?5helper@ 100a3fcc     libvcruntime:undname.obj
 0002:00003ff0       ??_C@_0DB@ILEFOCIJ@?$GAtemplate?5static?5data?5member?5co@ 100a3ff0     libvcruntime:undname.obj
 0002:00004024       ??_C@_0DA@HGFJFBBE@?$GAtemplate?5static?5data?5member?5de@ 100a4024     libvcruntime:undname.obj
 0002:00004054       ??_C@_07PGOEDBHP@static?5@ 100a4054     libvcruntime:undname.obj
 0002:0000405c       ??_C@_08NIEOINHE@virtual?5@ 100a405c     libvcruntime:undname.obj
 0002:00004068       ??_C@_09LAPHOOG@private?3?5@ 100a4068     libvcruntime:undname.obj
 0002:00004074       ??_C@_0M@GAIFPFIP@protected?3?5@ 100a4074     libvcruntime:undname.obj
 0002:00004080       ??_C@_08GPDDCMKI@public?3?5@ 100a4080     libvcruntime:undname.obj
 0002:0000408c       ??_C@_08KJLFOPNE@?$FLthunk?$FN?3@ 100a408c     libvcruntime:undname.obj
 0002:00004098       ??_C@_0M@DHNBOJMP@extern?5?$CCC?$CC?5@ 100a4098     libvcruntime:undname.obj
 0002:000040a4       ??_C@_02KCKGHPCA@?$CJ?5@   100a40a4     libvcruntime:undname.obj
 0002:000040a8       ??_C@_05CIHEBHNO@char?5@   100a40a8     libvcruntime:undname.obj
 0002:000040b0       ??_C@_06EHJMALKF@short?5@  100a40b0     libvcruntime:undname.obj
 0002:000040b8       ??_C@_04LAHKHJMA@int?5@    100a40b8     libvcruntime:undname.obj
 0002:000040c0       ??_C@_05CJIMAING@long?5@   100a40c0     libvcruntime:undname.obj
 0002:000040c8       ??_C@_09EBBEKKIH@unsigned?5@ 100a40c8     libvcruntime:undname.obj
 0002:000040d4       ??_C@_05BEFAKPML@void?5@   100a40d4     libvcruntime:undname.obj
 0002:000040dc       ??_C@_09GAIEOBLP@volatile?5@ 100a40dc     libvcruntime:undname.obj
 0002:000040e8       ??_C@_08PABEKFH@volatile@  100a40e8     libvcruntime:undname.obj
 0002:000040f4       ??_C@_0BA@LKIJLKPP@std?3?3nullptr_t?5@ 100a40f4     libvcruntime:undname.obj
 0002:00004104       ??_C@_0P@GCOCNKDM@std?3?3nullptr_t@ 100a4104     libvcruntime:undname.obj
 0002:00004114       ??_C@_0L@EGPHHEKN@?$DMellipsis?$DO@ 100a4114     libvcruntime:undname.obj
 0002:00004120       ??_C@_04EENFHACM@?0?4?4?4@ 100a4120     libvcruntime:undname.obj
 0002:00004128       ??_C@_0M@ELJOJFFH@?0?$DMellipsis?$DO@ 100a4128     libvcruntime:undname.obj
 0002:00004134       ??_C@_09DNHFEOJI@?5noexcept@ 100a4134     libvcruntime:undname.obj
 0002:00004140       ??_C@_03PBJBJNON@cpu@      100a4140     libvcruntime:undname.obj
 0002:00004144       ??_C@_03DCBBJBAA@amp@      100a4144     libvcruntime:undname.obj
 0002:00004148       ??_C@_02KEGNLNML@?0?5@     100a4148     libvcruntime:undname.obj
 0002:0000414c       ??_C@_04ENMBGAPA@char@     100a414c     libvcruntime:undname.obj
 0002:00004154       ??_C@_05BFKKPKCG@short@    100a4154     libvcruntime:undname.obj
 0002:0000415c       ??_C@_03JBIPMCLC@int@      100a415c     libvcruntime:undname.obj
 0002:00004160       ??_C@_04GOKPGOLB@long@     100a4160     libvcruntime:undname.obj
 0002:00004168       ??_C@_05KNFBNCOH@float@    100a4168     libvcruntime:undname.obj
 0002:00004170       ??_C@_06BNJCAIGJ@double@   100a4170     libvcruntime:undname.obj
 0002:00004178       ??_C@_04DDKJGDCM@bool@     100a4178     libvcruntime:undname.obj
 0002:00004180       ??_C@_06EBGKOKIG@__int8@   100a4180     libvcruntime:undname.obj
 0002:00004188       ??_C@_07ICFHOGAF@__int16@  100a4188     libvcruntime:undname.obj
 0002:00004190       ??_C@_07OFLPPHGP@__int32@  100a4190     libvcruntime:undname.obj
 0002:00004198       ??_C@_07LFCOJCAC@__int64@  100a4198     libvcruntime:undname.obj
 0002:000041a0       ??_C@_08GAHOLHEO@__int128@ 100a41a0     libvcruntime:undname.obj
 0002:000041ac       ??_C@_09EEKGDCPH@?$DMunknown?$DO@ 100a41ac     libvcruntime:undname.obj
 0002:000041b8       ??_C@_07CFHGOPCN@char8_t@  100a41b8     libvcruntime:undname.obj
 0002:000041c0       ??_C@_08HBIPOFJB@char16_t@ 100a41c0     libvcruntime:undname.obj
 0002:000041cc       ??_C@_08IECNCBKG@char32_t@ 100a41cc     libvcruntime:undname.obj
 0002:000041d8       ??_C@_07CLGGIAMF@wchar_t@  100a41d8     libvcruntime:undname.obj
 0002:000041e0       ??_C@_06GCICPBLB@__w64?5@  100a41e0     libvcruntime:undname.obj
 0002:000041e8       ??_C@_07NFANNNEC@UNKNOWN@  100a41e8     libvcruntime:undname.obj
 0002:000041f0       ??_C@_07EDHNAJHC@signed?5@ 100a41f0     libvcruntime:undname.obj
 0002:000041f8       ??_C@_05BNCCCJPP@const@    100a41f8     libvcruntime:undname.obj
 0002:00004200       ??_C@_09EFNPDFFP@?5volatile@ 100a4200     libvcruntime:undname.obj
 0002:0000420c       ??_C@_0P@GCIFDJCJ@?$GAunknown?5ecsu?8@ 100a420c     libvcruntime:undname.obj
 0002:0000421c       ??_C@_06MOJHIBMG@union?5@  100a421c     libvcruntime:undname.obj
 0002:00004224       ??_C@_07DIBCDNGL@struct?5@ 100a4224     libvcruntime:undname.obj
 0002:0000422c       ??_C@_06LJBABKPM@class?5@  100a422c     libvcruntime:undname.obj
 0002:00004234       ??_C@_08KOFANOFK@coclass?5@ 100a4234     libvcruntime:undname.obj
 0002:00004240       ??_C@_0N@DLIEFKNA@cointerface?5@ 100a4240     libvcruntime:undname.obj
 0002:00004250       ??_C@_05LJGMCFOG@enum?5@   100a4250     libvcruntime:undname.obj
 0002:00004258       ??_C@_06LIJLOJAG@const?5@  100a4258     libvcruntime:undname.obj
 0002:00004260       ??_C@_02KJPKDIBN@?$CG?5@   100a4260     libvcruntime:undname.obj
 0002:00004264       ??_C@_03PCKGMOPB@?$CG?$CG?5@ 100a4264     libvcruntime:undname.obj
 0002:00004268       ??_C@_0M@EALIELKG@cli?3?3array?$DM@ 100a4268     libvcruntime:undname.obj
 0002:00004274       ??_C@_0O@GKABPPIF@cli?3?3pin_ptr?$DM@ 100a4274     libvcruntime:undname.obj
 0002:00004284       ??_C@_02GOGNNPBN@?$CJ?$FL@ 100a4284     libvcruntime:undname.obj
 0002:00004288       ??_C@_06EEGAIFAK@?$HLflat?$HN@ 100a4288     libvcruntime:undname.obj
 0002:00004290       ??_C@_05JIBOFOHK@?$HLfor?5@ 100a4290     libvcruntime:undname.obj
 0002:00004298       ??_C@_02MDINNEEG@s?5@      100a4298     libvcruntime:undname.obj
 0002:000042a0       ??_7charNode@@6B@          100a42a0     libvcruntime:undname.obj
 0002:000042b4       ??_7pcharNode@@6B@         100a42b4     libvcruntime:undname.obj
 0002:000042c8       ??_7pDNameNode@@6B@        100a42c8     libvcruntime:undname.obj
 0002:000042dc       ??_7DNameStatusNode@@6B@   100a42dc     libvcruntime:undname.obj
 0002:000042f0       ??_7pairNode@@6B@          100a42f0     libvcruntime:undname.obj
 0002:00004400       ??_C@_04OKOHEJBO@?5?$DP?$DP?5@ 100a4400     libvcruntime:undname.obj
 0002:00004408       ?nodes@?1??make@DNameStatusNode@@SAPBV2@W4DNameStatus@@@Z@4QBV2@B 100a4408     libvcruntime:undname.obj
 0002:00004444       ??_C@_1DM@KHCHBNEB@?$AAa?$AAp?$AAi?$AA?9?$AAm?$AAs?$AA?9?$AAw?$AAi?$AAn?$AA?9?$AAc?$AAo?$AAr?$AAe@ 100a4444     libvcruntime:winapi_downlevel.obj
 0002:00004480       ??_C@_1DK@LPPGFMPP@?$AAa?$AAp?$AAi?$AA?9?$AAm?$AAs?$AA?9?$AAw?$AAi?$AAn?$AA?9?$AAc?$AAo?$AAr?$AAe@ 100a4480     libvcruntime:winapi_downlevel.obj
 0002:000044bc       ??_C@_1BC@GDMECMAK@?$AAk?$AAe?$AAr?$AAn?$AAe?$AAl?$AA3?$AA2@ 100a44bc     libvcruntime:winapi_downlevel.obj
 0002:000044d0       ??_C@_1BA@PFFKHIOG@?$AAa?$AAp?$AAi?$AA?9?$AAm?$AAs?$AA?9@ 100a44d0     libvcruntime:winapi_downlevel.obj
 0002:00004508       _format_validation_lookup_table 100a4508     libucrt:output.obj
 0002:00004564       ??_C@_1O@CEDCILHN@?$AA?$CI?$AAn?$AAu?$AAl?$AAl?$AA?$CJ@ 100a4564     libucrt:output.obj
 0002:00004574       ??_C@_06OJHGLDPL@?$CInull?$CJ@ 100a4574     libucrt:output.obj
 0002:00004580       __real@3ff0000000000000    100a4580     libucrt:frexp.obj
 0002:00004588       __real@8000000000000000    100a4588     libucrt:frexp.obj
 0002:000046f8       ___newctype                100a46f8     libucrt:ctype.obj
 0002:000049f8       ___newclmap                100a49f8     libucrt:ctype.obj
 0002:00004b78       ___newcumap                100a4b78     libucrt:ctype.obj
 0002:00004cf8       __wctype                   100a4cf8     libucrt:ctype.obj
 0002:00004f00       ?large_power_data@?1??multiply_by_power_of_ten@__crt_strtox@@YA_NAAUbig_integer@2@I@Z@4QBIB 100a4f00     libucrt:strtod.obj
 0002:00005808       ?small_powers_of_ten@?1??multiply_by_power_of_ten@__crt_strtox@@YA_NAAUbig_integer@2@I@Z@4QBIB 100a5808     libucrt:strtod.obj
 0002:00005834       __half                     100a5834     libucrt:pow_impl.obj
 0002:00005840       ___acrt_exception_action_table 100a5840     libucrt:exception_filter.obj
 0002:000058d0       ___acrt_signal_action_table_count 100a58d0     libucrt:exception_filter.obj
 0002:000058d4       ___acrt_signal_action_first_fpe_index 100a58d4     libucrt:exception_filter.obj
 0002:000058d8       ___acrt_signal_action_fpe_count 100a58d8     libucrt:exception_filter.obj
 0002:000058dc       ??_C@_1BI@BGOHAHKC@?$AAm?$AAs?$AAc?$AAo?$AAr?$AAe?$AAe?$AA?4?$AAd?$AAl?$AAl@ 100a58dc     libucrt:exit.obj
 0002:000058f4       ??_C@_0P@MIGLKIOC@CorExitProcess@ 100a58f4     libucrt:exit.obj
 0002:00005a08       ___lc_category             100a5a08     libucrt:wsetlocale.obj
 0002:00005a50       ??_C@_1O@GIFLHMA@?$AAL?$AAC?$AA_?$AAA?$AAL?$AAL@ 100a5a50     libucrt:wsetlocale.obj
 0002:00005a60       ??_C@_1BG@PPOMIBNJ@?$AAL?$AAC?$AA_?$AAC?$AAO?$AAL?$AAL?$AAA?$AAT?$AAE@ 100a5a60     libucrt:wsetlocale.obj
 0002:00005a78       ??_C@_1BC@FFJGAPJM@?$AAL?$AAC?$AA_?$AAC?$AAT?$AAY?$AAP?$AAE@ 100a5a78     libucrt:wsetlocale.obj
 0002:00005a8c       ??_C@_1BI@PCKFNJFB@?$AAL?$AAC?$AA_?$AAM?$AAO?$AAN?$AAE?$AAT?$AAA?$AAR?$AAY@ 100a5a8c     libucrt:wsetlocale.obj
 0002:00005aa4       ??_C@_1BG@ENIEDKID@?$AAL?$AAC?$AA_?$AAN?$AAU?$AAM?$AAE?$AAR?$AAI?$AAC@ 100a5aa4     libucrt:wsetlocale.obj
 0002:00005abc       ??_C@_1BA@HAAOMIIG@?$AAL?$AAC?$AA_?$AAT?$AAI?$AAM?$AAE@ 100a5abc     libucrt:wsetlocale.obj
 0002:00005acc       ??_C@_15NBPDDFIP@?$AA?$DN?$AA?$DL@ 100a5acc     libucrt:wsetlocale.obj
 0002:00005ad4       ??_C@_17EFJLDFDO@?$AA?9?$AA_?$AA?4@ 100a5ad4     libucrt:wsetlocale.obj
 0002:00005adc       ??_C@_17MBJJLFDM@?$AA_?$AA?4?$AA?0@ 100a5adc     libucrt:wsetlocale.obj
 0002:00005ae8       ___lc_time_c               100a5ae8     libucrt:nlsdata.obj
 0002:00005c4c       ??_C@_03KOEHGMDN@Sun@      100a5c4c     libucrt:nlsdata.obj
 0002:00005c50       ??_C@_03PDAGKDH@Mon@       100a5c50     libucrt:nlsdata.obj
 0002:00005c54       ??_C@_03NAGEINEP@Tue@      100a5c54     libucrt:nlsdata.obj
 0002:00005c58       ??_C@_03MHOMLAJA@Wed@      100a5c58     libucrt:nlsdata.obj
 0002:00005c5c       ??_C@_03IOFIKPDN@Thu@      100a5c5c     libucrt:nlsdata.obj
 0002:00005c60       ??_C@_03IDIOELNC@Fri@      100a5c60     libucrt:nlsdata.obj
 0002:00005c64       ??_C@_03FEFJNEK@Sat@       100a5c64     libucrt:nlsdata.obj
 0002:00005c68       ??_C@_06OOPIFAJ@Sunday@    100a5c68     libucrt:nlsdata.obj
 0002:00005c70       ??_C@_06JLEDEDGH@Monday@   100a5c70     libucrt:nlsdata.obj
 0002:00005c78       ??_C@_07BAAGCFCM@Tuesday@  100a5c78     libucrt:nlsdata.obj
 0002:00005c80       ??_C@_09DLIGFAKA@Wednesday@ 100a5c80     libucrt:nlsdata.obj
 0002:00005c8c       ??_C@_08HACCIKIA@Thursday@ 100a5c8c     libucrt:nlsdata.obj
 0002:00005c98       ??_C@_06JECMNKMI@Friday@   100a5c98     libucrt:nlsdata.obj
 0002:00005ca0       ??_C@_08INBOOONO@Saturday@ 100a5ca0     libucrt:nlsdata.obj
 0002:00005cac       ??_C@_03JIHJHPIE@Jan@      100a5cac     libucrt:nlsdata.obj
 0002:00005cb0       ??_C@_03HJBDCHOM@Feb@      100a5cb0     libucrt:nlsdata.obj
 0002:00005cb4       ??_C@_03ODNJBKGA@Mar@      100a5cb4     libucrt:nlsdata.obj
 0002:00005cb8       ??_C@_03LEOLGMJP@Apr@      100a5cb8     libucrt:nlsdata.obj
 0002:00005cbc       ??_C@_03CNMDKL@May@        100a5cbc     libucrt:nlsdata.obj
 0002:00005cc0       ??_C@_03IDFGHECI@Jun@      100a5cc0     libucrt:nlsdata.obj
 0002:00005cc4       ??_C@_03LBGABGKK@Jul@      100a5cc4     libucrt:nlsdata.obj
 0002:00005cc8       ??_C@_03IFJFEIGA@Aug@      100a5cc8     libucrt:nlsdata.obj
 0002:00005ccc       ??_C@_03GGCAPAJC@Sep@      100a5ccc     libucrt:nlsdata.obj
 0002:00005cd0       ??_C@_03BMAOKBAD@Oct@      100a5cd0     libucrt:nlsdata.obj
 0002:00005cd4       ??_C@_03JPJOFNIA@Nov@      100a5cd4     libucrt:nlsdata.obj
 0002:00005cd8       ??_C@_03MKABNOCG@Dec@      100a5cd8     libucrt:nlsdata.obj
 0002:00005cdc       ??_C@_07CGJPFGJA@January@  100a5cdc     libucrt:nlsdata.obj
 0002:00005ce4       ??_C@_08GNJGEPFN@February@ 100a5ce4     libucrt:nlsdata.obj
 0002:00005cf0       ??_C@_05HPCKOFNC@March@    100a5cf0     libucrt:nlsdata.obj
 0002:00005cf8       ??_C@_05DMJDNLEJ@April@    100a5cf8     libucrt:nlsdata.obj
 0002:00005d00       ??_C@_04CNLMGBGM@June@     100a5d00     libucrt:nlsdata.obj
 0002:00005d08       ??_C@_04MIEPOIFP@July@     100a5d08     libucrt:nlsdata.obj
 0002:00005d10       ??_C@_06LBBHFDDG@August@   100a5d10     libucrt:nlsdata.obj
 0002:00005d18       ??_C@_09BHHEALKD@September@ 100a5d18     libucrt:nlsdata.obj
 0002:00005d24       ??_C@_07JJNFCEND@October@  100a5d24     libucrt:nlsdata.obj
 0002:00005d2c       ??_C@_08HCHEGEOA@November@ 100a5d2c     libucrt:nlsdata.obj
 0002:00005d38       ??_C@_08EDHMEBNP@December@ 100a5d38     libucrt:nlsdata.obj
 0002:00005d44       ??_C@_02DEDBPAFC@AM@       100a5d44     libucrt:nlsdata.obj
 0002:00005d48       ??_C@_02CJNFDJBF@PM@       100a5d48     libucrt:nlsdata.obj
 0002:00005d4c       ??_C@_08BPBNCDIB@MM?1dd?1yy@ 100a5d4c     libucrt:nlsdata.obj
 0002:00005d58       ??_C@_0BE@CKGJFCPC@dddd?0?5MMMM?5dd?0?5yyyy@ 100a5d58     libucrt:nlsdata.obj
 0002:00005d6c       ??_C@_08JCCMCCIL@HH?3mm?3ss@ 100a5d6c     libucrt:nlsdata.obj
 0002:00005d78       ??_C@_17MBGCMIPB@?$AAS?$AAu?$AAn@ 100a5d78     libucrt:nlsdata.obj
 0002:00005d80       ??_C@_17KBOMKBF@?$AAM?$AAo?$AAn@ 100a5d80     libucrt:nlsdata.obj
 0002:00005d88       ??_C@_17BMKGEGOJ@?$AAT?$AAu?$AAe@ 100a5d88     libucrt:nlsdata.obj
 0002:00005d90       ??_C@_17CJEDCEPE@?$AAW?$AAe?$AAd@ 100a5d90     libucrt:nlsdata.obj
 0002:00005d98       ??_C@_17PDPHAADD@?$AAT?$AAh?$AAu@ 100a5d98     libucrt:nlsdata.obj
 0002:00005da0       ??_C@_17HFOLPPLP@?$AAF?$AAr?$AAi@ 100a5da0     libucrt:nlsdata.obj
 0002:00005da8       ??_C@_17GGIBDPIH@?$AAS?$AAa?$AAt@ 100a5da8     libucrt:nlsdata.obj
 0002:00005db0       ??_C@_1O@IHNHDHPB@?$AAS?$AAu?$AAn?$AAd?$AAa?$AAy@ 100a5db0     libucrt:nlsdata.obj
 0002:00005dc0       ??_C@_1O@MMNBFLIA@?$AAM?$AAo?$AAn?$AAd?$AAa?$AAy@ 100a5dc0     libucrt:nlsdata.obj
 0002:00005dd0       ??_C@_1BA@ENFBFFEK@?$AAT?$AAu?$AAe?$AAs?$AAd?$AAa?$AAy@ 100a5dd0     libucrt:nlsdata.obj
 0002:00005de0       ??_C@_1BE@EBOGMDOH@?$AAW?$AAe?$AAd?$AAn?$AAe?$AAs?$AAd?$AAa?$AAy@ 100a5de0     libucrt:nlsdata.obj
 0002:00005df4       ??_C@_1BC@HHMNLIHE@?$AAT?$AAh?$AAu?$AAr?$AAs?$AAd?$AAa?$AAy@ 100a5df4     libucrt:nlsdata.obj
 0002:00005e08       ??_C@_1O@PDICJHAG@?$AAF?$AAr?$AAi?$AAd?$AAa?$AAy@ 100a5e08     libucrt:nlsdata.obj
 0002:00005e18       ??_C@_1BC@ENMNNPAJ@?$AAS?$AAa?$AAt?$AAu?$AAr?$AAd?$AAa?$AAy@ 100a5e18     libucrt:nlsdata.obj
 0002:00005e2c       ??_C@_17DKNBKCHM@?$AAJ?$AAa?$AAn@ 100a5e2c     libucrt:nlsdata.obj
 0002:00005e34       ??_C@_17LMDJEKJN@?$AAF?$AAe?$AAb@ 100a5e34     libucrt:nlsdata.obj
 0002:00005e3c       ??_C@_17CKNLEDEC@?$AAM?$AAa?$AAr@ 100a5e3c     libucrt:nlsdata.obj
 0002:00005e44       ??_C@_17LFPOIHDD@?$AAA?$AAp?$AAr@ 100a5e44     libucrt:nlsdata.obj
 0002:00005e4c       ??_C@_17PNNKMEED@?$AAM?$AAa?$AAy@ 100a5e4c     libucrt:nlsdata.obj
 0002:00005e54       ??_C@_17KCJGOCPB@?$AAJ?$AAu?$AAn@ 100a5e54     libucrt:nlsdata.obj
 0002:00005e5c       ??_C@_17IJPCKHK@?$AAJ?$AAu?$AAl@ 100a5e5c     libucrt:nlsdata.obj
 0002:00005e64       ??_C@_17ICPELBCN@?$AAA?$AAu?$AAg@ 100a5e64     libucrt:nlsdata.obj
 0002:00005e6c       ??_C@_17HCHCOKMG@?$AAS?$AAe?$AAp@ 100a5e6c     libucrt:nlsdata.obj
 0002:00005e74       ??_C@_17FNLKOI@?$AAO?$AAc?$AAt@ 100a5e74     libucrt:nlsdata.obj
 0002:00005e7c       ??_C@_17BBDMLCIG@?$AAN?$AAo?$AAv@ 100a5e7c     libucrt:nlsdata.obj
 0002:00005e84       ??_C@_17EGKACKIF@?$AAD?$AAe?$AAc@ 100a5e84     libucrt:nlsdata.obj
 0002:00005e8c       ??_C@_1BA@EFMEIEBA@?$AAJ?$AAa?$AAn?$AAu?$AAa?$AAr?$AAy@ 100a5e8c     libucrt:nlsdata.obj
 0002:00005e9c       ??_C@_1BC@JGDDFFAM@?$AAF?$AAe?$AAb?$AAr?$AAu?$AAa?$AAr?$AAy@ 100a5e9c     libucrt:nlsdata.obj
 0002:00005eb0       ??_C@_1M@IKEENEDF@?$AAM?$AAa?$AAr?$AAc?$AAh@ 100a5eb0     libucrt:nlsdata.obj
 0002:00005ebc       ??_C@_1M@GJNLMHFD@?$AAA?$AAp?$AAr?$AAi?$AAl@ 100a5ebc     libucrt:nlsdata.obj
 0002:00005ec8       ??_C@_19EPFLPGAP@?$AAJ?$AAu?$AAn?$AAe@ 100a5ec8     libucrt:nlsdata.obj
 0002:00005ed4       ??_C@_19BIFMLPCD@?$AAJ?$AAu?$AAl?$AAy@ 100a5ed4     libucrt:nlsdata.obj
 0002:00005ee0       ??_C@_1O@PAHLKOAC@?$AAA?$AAu?$AAg?$AAu?$AAs?$AAt@ 100a5ee0     libucrt:nlsdata.obj
 0002:00005ef0       ??_C@_1BE@DKAAMBJL@?$AAS?$AAe?$AAp?$AAt?$AAe?$AAm?$AAb?$AAe?$AAr@ 100a5ef0     libucrt:nlsdata.obj
 0002:00005f04       ??_C@_1BA@EPANDLNG@?$AAO?$AAc?$AAt?$AAo?$AAb?$AAe?$AAr@ 100a5f04     libucrt:nlsdata.obj
 0002:00005f14       ??_C@_1BC@BGLIFPF@?$AAN?$AAo?$AAv?$AAe?$AAm?$AAb?$AAe?$AAr@ 100a5f14     libucrt:nlsdata.obj
 0002:00005f28       ??_C@_1BC@FEMKIFH@?$AAD?$AAe?$AAc?$AAe?$AAm?$AAb?$AAe?$AAr@ 100a5f28     libucrt:nlsdata.obj
 0002:00005f3c       ??_C@_15ODEHAHHF@?$AAA?$AAM@ 100a5f3c     libucrt:nlsdata.obj
 0002:00005f44       ??_C@_15CLMNNGEL@?$AAP?$AAM@ 100a5f44     libucrt:nlsdata.obj
 0002:00005f4c       ??_C@_1BC@IEBCMHCM@?$AAM?$AAM?$AA?1?$AAd?$AAd?$AA?1?$AAy?$AAy@ 100a5f4c     libucrt:nlsdata.obj
 0002:00005f60       ??_C@_1CI@KNAKOEBC@?$AAd?$AAd?$AAd?$AAd?$AA?0?$AA?5?$AAM?$AAM?$AAM?$AAM?$AA?5?$AAd?$AAd?$AA?0?$AA?5@ 100a5f60     libucrt:nlsdata.obj
 0002:00005f88       ??_C@_1BC@GDGBMEMK@?$AAH?$AAH?$AA?3?$AAm?$AAm?$AA?3?$AAs?$AAs@ 100a5f88     libucrt:nlsdata.obj
 0002:00005fe0       ??_C@_03OEIAHPBN@INF@      100a5fe0     libucrt:cvt.obj
 0002:00005fe4       ??_C@_03OJHLLCGB@inf@      100a5fe4     libucrt:cvt.obj
 0002:00005fe8       ??_C@_03LKNCIKJB@NAN@      100a5fe8     libucrt:cvt.obj
 0002:00005fec       ??_C@_03LHCJEHON@nan@      100a5fec     libucrt:cvt.obj
 0002:00005ff0       ??_C@_09OFJJIMPC@NAN?$CISNAN?$CJ@ 100a5ff0     libucrt:cvt.obj
 0002:00005ffc       ??_C@_09IPFBKMDL@nan?$CIsnan?$CJ@ 100a5ffc     libucrt:cvt.obj
 0002:00006008       ??_C@_08IKHNHAJ@NAN?$CIIND?$CJ@ 100a6008     libucrt:cvt.obj
 0002:00006014       ??_C@_08OFCDMILK@nan?$CIind?$CJ@ 100a6014     libucrt:cvt.obj
 0002:00006020       ??_C@_05KLBDPFGC@e?$CL000@ 100a6020     libucrt:cvt.obj
 0002:00006110       ??_C@_03KHJOGHMM@exp@      100a6110     libucrt:fpexcept.obj
 0002:00006114       ??_C@_03JGHBODFD@pow@      100a6114     libucrt:fpexcept.obj
 0002:00006118       ??_C@_03MGHMBJCF@log@      100a6118     libucrt:fpexcept.obj
 0002:0000611c       ??_C@_05HGHHAHAP@log10@    100a611c     libucrt:fpexcept.obj
 0002:00006124       ??_C@_04COOMCNPB@sinh@     100a6124     libucrt:fpexcept.obj
 0002:0000612c       ??_C@_04HPJJNFIM@cosh@     100a612c     libucrt:fpexcept.obj
 0002:00006134       ??_C@_04FJHINJAO@tanh@     100a6134     libucrt:fpexcept.obj
 0002:0000613c       ??_C@_04FIHNOPOL@asin@     100a613c     libucrt:fpexcept.obj
 0002:00006144       ??_C@_04PDIFKINK@acos@     100a6144     libucrt:fpexcept.obj
 0002:0000614c       ??_C@_04MLLJIGOK@atan@     100a614c     libucrt:fpexcept.obj
 0002:00006154       ??_C@_05KNGEOGJB@atan2@    100a6154     libucrt:fpexcept.obj
 0002:0000615c       ??_C@_04EIAKFFMI@sqrt@     100a615c     libucrt:fpexcept.obj
 0002:00006164       ??_C@_03BLEJJJBH@sin@      100a6164     libucrt:fpexcept.obj
 0002:00006168       ??_C@_03LALBNOCG@cos@      100a6168     libucrt:fpexcept.obj
 0002:0000616c       ??_C@_03IIINPABG@tan@      100a616c     libucrt:fpexcept.obj
 0002:00006170       ??_C@_04GFPJNGEK@ceil@     100a6170     libucrt:fpexcept.obj
 0002:00006178       ??_C@_05PBJFFIGL@floor@    100a6178     libucrt:fpexcept.obj
 0002:00006180       ??_C@_04ODHECPBC@fabs@     100a6180     libucrt:fpexcept.obj
 0002:00006188       ??_C@_04EHEDPDJG@modf@     100a6188     libucrt:fpexcept.obj
 0002:00006190       ??_C@_05CEJMAHNP@ldexp@    100a6190     libucrt:fpexcept.obj
 0002:00006198       ??_C@_05KBKMEMPO@_cabs@    100a6198     libucrt:fpexcept.obj
 0002:000061a0       ??_C@_06MEIMCGCF@_hypot@   100a61a0     libucrt:fpexcept.obj
 0002:000061a8       ??_C@_04KEPJIHGP@fmod@     100a61a8     libucrt:fpexcept.obj
 0002:000061b0       ??_C@_05GKKHEGJL@frexp@    100a61b0     libucrt:fpexcept.obj
 0002:000061b8       ??_C@_03MJLDFKDL@_y0@      100a61b8     libucrt:fpexcept.obj
 0002:000061bc       ??_C@_03NAKIGLHK@_y1@      100a61bc     libucrt:fpexcept.obj
 0002:000061c0       ??_C@_03ONILCKOB@_yn@      100a61c0     libucrt:fpexcept.obj
 0002:000061c4       ??_C@_05JGDBENOH@_logb@    100a61c4     libucrt:fpexcept.obj
 0002:000061cc       ??_C@_0L@KDOEJCKC@_nextafter@ 100a61cc     libucrt:fpexcept.obj
 0002:000061d8       __d_inf                    100a61d8     libucrt:util.obj
 0002:000061e0       __d_max                    100a61e0     libucrt:util.obj
 0002:000061e8       __d_mzero                  100a61e8     libucrt:util.obj
 0002:00006258       ??_C@_1EA@JGEFHKEI@?$AAa?$AAp?$AAi?$AA?9?$AAm?$AAs?$AA?9?$AAw?$AAi?$AAn?$AA?9?$AAc?$AAo?$AAr?$AAe@ 100a6258     libucrt:winapi_thunks.obj
 0002:00006298       ??_C@_1DI@IJCEHOCB@?$AAa?$AAp?$AAi?$AA?9?$AAm?$AAs?$AA?9?$AAw?$AAi?$AAn?$AA?9?$AAc?$AAo?$AAr?$AAe@ 100a6298     libucrt:winapi_thunks.obj
 0002:000062d0       ??_C@_1EI@MPIAOHOC@?$AAa?$AAp?$AAi?$AA?9?$AAm?$AAs?$AA?9?$AAw?$AAi?$AAn?$AA?9?$AAc?$AAo?$AAr?$AAe@ 100a62d0     libucrt:winapi_thunks.obj
 0002:00006318       ??_C@_1FK@FPHCKFIE@?$AAa?$AAp?$AAi?$AA?9?$AAm?$AAs?$AA?9?$AAw?$AAi?$AAn?$AA?9?$AAc?$AAo?$AAr?$AAe@ 100a6318     libucrt:winapi_thunks.obj
 0002:00006378       ??_C@_1EM@DILCGIIO@?$AAa?$AAp?$AAi?$AA?9?$AAm?$AAs?$AA?9?$AAw?$AAi?$AAn?$AA?9?$AAc?$AAo?$AAr?$AAe@ 100a6378     libucrt:winapi_thunks.obj
 0002:000063c4       ??_C@_1DM@LNCGDDPN@?$AAa?$AAp?$AAi?$AA?9?$AAm?$AAs?$AA?9?$AAw?$AAi?$AAn?$AA?9?$AAc?$AAo?$AAr?$AAe@ 100a63c4     libucrt:winapi_thunks.obj
 0002:00006400       ??_C@_1DO@FPAPJEMD@?$AAa?$AAp?$AAi?$AA?9?$AAm?$AAs?$AA?9?$AAw?$AAi?$AAn?$AA?9?$AAc?$AAo?$AAr?$AAe@ 100a6400     libucrt:winapi_thunks.obj
 0002:00006440       ??_C@_1DK@NDHNAHIO@?$AAa?$AAp?$AAi?$AA?9?$AAm?$AAs?$AA?9?$AAw?$AAi?$AAn?$AA?9?$AAc?$AAo?$AAr?$AAe@ 100a6440     libucrt:winapi_thunks.obj
 0002:0000647c       ??_C@_1DM@KGHDGBCM@?$AAa?$AAp?$AAi?$AA?9?$AAm?$AAs?$AA?9?$AAw?$AAi?$AAn?$AA?9?$AAc?$AAo?$AAr?$AAe@ 100a647c     libucrt:winapi_thunks.obj
 0002:000064b8       ??_C@_1EO@IJIOEFOH@?$AAa?$AAp?$AAi?$AA?9?$AAm?$AAs?$AA?9?$AAw?$AAi?$AAn?$AA?9?$AAr?$AAt?$AAc?$AAo@ 100a64b8     libucrt:winapi_thunks.obj
 0002:00006508       ??_C@_1FG@HHGEKANL@?$AAa?$AAp?$AAi?$AA?9?$AAm?$AAs?$AA?9?$AAw?$AAi?$AAn?$AA?9?$AAs?$AAe?$AAc?$AAu@ 100a6508     libucrt:winapi_thunks.obj
 0002:00006560       ??_C@_1EG@DBIOJECG@?$AAe?$AAx?$AAt?$AA?9?$AAm?$AAs?$AA?9?$AAw?$AAi?$AAn?$AA?9?$AAn?$AAt?$AAu?$AAs@ 100a6560     libucrt:winapi_thunks.obj
 0002:000065a8       ??_C@_1EO@FIHMJCLF@?$AAe?$AAx?$AAt?$AA?9?$AAm?$AAs?$AA?9?$AAw?$AAi?$AAn?$AA?9?$AAn?$AAt?$AAu?$AAs@ 100a65a8     libucrt:winapi_thunks.obj
 0002:000065f8       ??_C@_1BC@DNHGCMLG@?$AAa?$AAd?$AAv?$AAa?$AAp?$AAi?$AA3?$AA2@ 100a65f8     libucrt:winapi_thunks.obj
 0002:0000660c       ??_C@_1M@OAIMIKLP@?$AAn?$AAt?$AAd?$AAl?$AAl@ 100a660c     libucrt:winapi_thunks.obj
 0002:00006618       ??_C@_1EG@DPGNFKGC@?$AAa?$AAp?$AAi?$AA?9?$AAm?$AAs?$AA?9?$AAw?$AAi?$AAn?$AA?9?$AAa?$AAp?$AAp?$AAm@ 100a6618     libucrt:winapi_thunks.obj
 0002:00006660       ??_C@_1O@BCCLBEOE@?$AAu?$AAs?$AAe?$AAr?$AA3?$AA2@ 100a6660     libucrt:winapi_thunks.obj
 0002:00006670       ??_C@_1BA@IAIFMGEF@?$AAe?$AAx?$AAt?$AA?9?$AAm?$AAs?$AA?9@ 100a6670     libucrt:winapi_thunks.obj
 0002:00006684       ??_C@_0BA@FHFNEAED@AreFileApisANSI@ 100a6684     libucrt:winapi_thunks.obj
 0002:000066a4       ??_C@_0BE@LJANKFHF@EnumSystemLocalesEx@ 100a66a4     libucrt:winapi_thunks.obj
 0002:000066e0       ??_C@_0BA@EPCJIIPD@GetDateFormatEx@ 100a66e0     libucrt:winapi_thunks.obj
 0002:00006700       ??_C@_0BA@CIJJKCJJ@GetTimeFormatEx@ 100a6700     libucrt:winapi_thunks.obj
 0002:00006718       ??_C@_0BJ@PBCCBIPI@GetUserDefaultLocaleName@ 100a6718     libucrt:winapi_thunks.obj
 0002:00006744       ??_C@_0BC@CELBKLLA@IsValidLocaleName@ 100a6744     libucrt:winapi_thunks.obj
 0002:00006768       ??_C@_0BB@CDHDDLLP@LCIDToLocaleName@ 100a6768     libucrt:winapi_thunks.obj
 0002:00006784       ??_C@_0BB@HBDEELFH@LocaleNameToLCID@ 100a6784     libucrt:winapi_thunks.obj
 0002:0000679c       ??_C@_0CF@OJOFEIGO@AppPolicyGetProcessTerminationM@ 100a679c     libucrt:winapi_thunks.obj
 0002:00006890       __infinity                 100a6890     libucrt:87tran.obj
 0002:0000689a       __minfinity                100a689a     libucrt:87tran.obj
 0002:000068a4       __logemax                  100a68a4     libucrt:87tran.obj
 0002:000068ca       __OP_EXPjmptab             100a68ca     libucrt:87tran.obj
 0002:000068f0       __indefinite               100a68f0     libucrt:87disp.obj
 0002:000068fa       __piby2                    100a68fa     libucrt:87disp.obj
 0002:00006904       __piby4                    100a6904     libucrt:87disp.obj
 0002:00006938       __DEFAULT_CW_in_mem        100a6938     libucrt:common.obj
 0002:0000693a       __pi_by_2_to_61            100a693a     libucrt:common.obj
 0002:00006988       ___acrt_rg_language        100a6988     libucrt:get_qualified_locale.obj
 0002:00006c94       ___acrt_rg_language_count  100a6c94     libucrt:get_qualified_locale.obj
 0002:00006c98       ___acrt_rg_country         100a6c98     libucrt:get_qualified_locale.obj
 0002:00006dac       ___acrt_rg_country_count   100a6dac     libucrt:get_qualified_locale.obj
 0002:00006db0       ??_C@_1BC@LLOKLNP@?$AAa?$AAm?$AAe?$AAr?$AAi?$AAc?$AAa?$AAn@ 100a6db0     libucrt:get_qualified_locale.obj
 0002:00006dc4       ??_C@_1CC@HEIGCDGG@?$AAa?$AAm?$AAe?$AAr?$AAi?$AAc?$AAa?$AAn?$AA?5?$AAe?$AAn?$AAg?$AAl?$AAi?$AAs@ 100a6dc4     libucrt:get_qualified_locale.obj
 0002:00006de8       ??_C@_1CC@IHCNOMIN@?$AAa?$AAm?$AAe?$AAr?$AAi?$AAc?$AAa?$AAn?$AA?9?$AAe?$AAn?$AAg?$AAl?$AAi?$AAs@ 100a6de8     libucrt:get_qualified_locale.obj
 0002:00006e0c       ??_C@_1BG@GKAGPCGG@?$AAa?$AAu?$AAs?$AAt?$AAr?$AAa?$AAl?$AAi?$AAa?$AAn@ 100a6e0c     libucrt:get_qualified_locale.obj
 0002:00006e24       ??_C@_1BA@GMENCENF@?$AAb?$AAe?$AAl?$AAg?$AAi?$AAa?$AAn@ 100a6e24     libucrt:get_qualified_locale.obj
 0002:00006e34       ??_C@_1BC@PJMIIAAN@?$AAc?$AAa?$AAn?$AAa?$AAd?$AAi?$AAa?$AAn@ 100a6e34     libucrt:get_qualified_locale.obj
 0002:00006e48       ??_C@_17NOIMNFBF@?$AAc?$AAh?$AAh@ 100a6e48     libucrt:get_qualified_locale.obj
 0002:00006e50       ??_C@_17GGDALCHA@?$AAc?$AAh?$AAi@ 100a6e50     libucrt:get_qualified_locale.obj
 0002:00006e58       ??_C@_1BA@NPNJKIBL@?$AAc?$AAh?$AAi?$AAn?$AAe?$AAs?$AAe@ 100a6e58     libucrt:get_qualified_locale.obj
 0002:00006e68       ??_C@_1CC@DINBAMMJ@?$AAc?$AAh?$AAi?$AAn?$AAe?$AAs?$AAe?$AA?9?$AAh?$AAo?$AAn?$AAg?$AAk?$AAo?$AAn@ 100a6e68     libucrt:get_qualified_locale.obj
 0002:00006e8c       ??_C@_1CG@IOBJPACO@?$AAc?$AAh?$AAi?$AAn?$AAe?$AAs?$AAe?$AA?9?$AAs?$AAi?$AAm?$AAp?$AAl?$AAi?$AAf@ 100a6e8c     libucrt:get_qualified_locale.obj
 0002:00006eb4       ??_C@_1CE@GAJNDCKG@?$AAc?$AAh?$AAi?$AAn?$AAe?$AAs?$AAe?$AA?9?$AAs?$AAi?$AAn?$AAg?$AAa?$AAp?$AAo@ 100a6eb4     libucrt:get_qualified_locale.obj
 0002:00006ed8       ??_C@_1CI@PAJPIOOD@?$AAc?$AAh?$AAi?$AAn?$AAe?$AAs?$AAe?$AA?9?$AAt?$AAr?$AAa?$AAd?$AAi?$AAt?$AAi@ 100a6ed8     libucrt:get_qualified_locale.obj
 0002:00006f00       ??_C@_1BM@NILJBMMD@?$AAd?$AAu?$AAt?$AAc?$AAh?$AA?9?$AAb?$AAe?$AAl?$AAg?$AAi?$AAa?$AAn@ 100a6f00     libucrt:get_qualified_locale.obj
 0002:00006f1c       ??_C@_1CC@OOJPJNEJ@?$AAe?$AAn?$AAg?$AAl?$AAi?$AAs?$AAh?$AA?9?$AAa?$AAm?$AAe?$AAr?$AAi?$AAc?$AAa@ 100a6f1c     libucrt:get_qualified_locale.obj
 0002:00006f40       ??_C@_1BI@IOLFEEM@?$AAe?$AAn?$AAg?$AAl?$AAi?$AAs?$AAh?$AA?9?$AAa?$AAu?$AAs@ 100a6f40     libucrt:get_qualified_locale.obj
 0002:00006f58       ??_C@_1BO@HFFNLENJ@?$AAe?$AAn?$AAg?$AAl?$AAi?$AAs?$AAh?$AA?9?$AAb?$AAe?$AAl?$AAi?$AAz?$AAe@ 100a6f58     libucrt:get_qualified_locale.obj
 0002:00006f78       ??_C@_1BI@HAPKJMPO@?$AAe?$AAn?$AAg?$AAl?$AAi?$AAs?$AAh?$AA?9?$AAc?$AAa?$AAn@ 100a6f78     libucrt:get_qualified_locale.obj
 0002:00006f90       ??_C@_1CE@HLNDMIOJ@?$AAe?$AAn?$AAg?$AAl?$AAi?$AAs?$AAh?$AA?9?$AAc?$AAa?$AAr?$AAi?$AAb?$AAb?$AAe@ 100a6f90     libucrt:get_qualified_locale.obj
 0002:00006fb4       ??_C@_1BI@LDHJHHAC@?$AAe?$AAn?$AAg?$AAl?$AAi?$AAs?$AAh?$AA?9?$AAi?$AAr?$AAe@ 100a6fb4     libucrt:get_qualified_locale.obj
 0002:00006fcc       ??_C@_1CA@NJMMCFOC@?$AAe?$AAn?$AAg?$AAl?$AAi?$AAs?$AAh?$AA?9?$AAj?$AAa?$AAm?$AAa?$AAi?$AAc?$AAa@ 100a6fcc     libucrt:get_qualified_locale.obj
 0002:00006fec       ??_C@_1BG@BHJEBBGG@?$AAe?$AAn?$AAg?$AAl?$AAi?$AAs?$AAh?$AA?9?$AAn?$AAz@ 100a6fec     libucrt:get_qualified_locale.obj
 0002:00007004       ??_C@_1CK@FGOEJJCO@?$AAe?$AAn?$AAg?$AAl?$AAi?$AAs?$AAh?$AA?9?$AAs?$AAo?$AAu?$AAt?$AAh?$AA?5?$AAa@ 100a7004     libucrt:get_qualified_locale.obj
 0002:00007030       ??_C@_1DE@PDBJPCJ@?$AAe?$AAn?$AAg?$AAl?$AAi?$AAs?$AAh?$AA?9?$AAt?$AAr?$AAi?$AAn?$AAi?$AAd?$AAa@ 100a7030     libucrt:get_qualified_locale.obj
 0002:00007064       ??_C@_1BG@JGCANDME@?$AAe?$AAn?$AAg?$AAl?$AAi?$AAs?$AAh?$AA?9?$AAu?$AAk@ 100a7064     libucrt:get_qualified_locale.obj
 0002:0000707c       ??_C@_1BG@DINKMLE@?$AAe?$AAn?$AAg?$AAl?$AAi?$AAs?$AAh?$AA?9?$AAu?$AAs@ 100a707c     libucrt:get_qualified_locale.obj
 0002:00007094       ??_C@_1BI@NMFDBHJE@?$AAe?$AAn?$AAg?$AAl?$AAi?$AAs?$AAh?$AA?9?$AAu?$AAs?$AAa@ 100a7094     libucrt:get_qualified_locale.obj
 0002:000070ac       ??_C@_1BO@OIHKJKII@?$AAf?$AAr?$AAe?$AAn?$AAc?$AAh?$AA?9?$AAb?$AAe?$AAl?$AAg?$AAi?$AAa?$AAn@ 100a70ac     libucrt:get_qualified_locale.obj
 0002:000070cc       ??_C@_1CA@NKAELJKI@?$AAf?$AAr?$AAe?$AAn?$AAc?$AAh?$AA?9?$AAc?$AAa?$AAn?$AAa?$AAd?$AAi?$AAa?$AAn@ 100a70cc     libucrt:get_qualified_locale.obj
 0002:000070ec       ??_C@_1CE@MGKCNLGN@?$AAf?$AAr?$AAe?$AAn?$AAc?$AAh?$AA?9?$AAl?$AAu?$AAx?$AAe?$AAm?$AAb?$AAo?$AAu@ 100a70ec     libucrt:get_qualified_locale.obj
 0002:00007110       ??_C@_1BK@CEGEAILM@?$AAf?$AAr?$AAe?$AAn?$AAc?$AAh?$AA?9?$AAs?$AAw?$AAi?$AAs?$AAs@ 100a7110     libucrt:get_qualified_locale.obj
 0002:0000712c       ??_C@_1CA@PAFKEOCC@?$AAg?$AAe?$AAr?$AAm?$AAa?$AAn?$AA?9?$AAa?$AAu?$AAs?$AAt?$AAr?$AAi?$AAa?$AAn@ 100a712c     libucrt:get_qualified_locale.obj
 0002:0000714c       ??_C@_1CI@HCFHGOFD@?$AAg?$AAe?$AAr?$AAm?$AAa?$AAn?$AA?9?$AAl?$AAi?$AAc?$AAh?$AAt?$AAe?$AAn?$AAs@ 100a714c     libucrt:get_qualified_locale.obj
 0002:00007174       ??_C@_1CE@FEDDNPDG@?$AAg?$AAe?$AAr?$AAm?$AAa?$AAn?$AA?9?$AAl?$AAu?$AAx?$AAe?$AAm?$AAb?$AAo?$AAu@ 100a7174     libucrt:get_qualified_locale.obj
 0002:00007198       ??_C@_1BK@LIMINNMN@?$AAg?$AAe?$AAr?$AAm?$AAa?$AAn?$AA?9?$AAs?$AAw?$AAi?$AAs?$AAs@ 100a7198     libucrt:get_qualified_locale.obj
 0002:000071b4       ??_C@_1BM@LGMDBEPD@?$AAi?$AAr?$AAi?$AAs?$AAh?$AA?9?$AAe?$AAn?$AAg?$AAl?$AAi?$AAs?$AAh@ 100a71b4     libucrt:get_qualified_locale.obj
 0002:000071d0       ??_C@_1BM@NNCFBAEE@?$AAi?$AAt?$AAa?$AAl?$AAi?$AAa?$AAn?$AA?9?$AAs?$AAw?$AAi?$AAs?$AAs@ 100a71d0     libucrt:get_qualified_locale.obj
 0002:000071ec       ??_C@_1BE@FEDJNPIB@?$AAn?$AAo?$AAr?$AAw?$AAe?$AAg?$AAi?$AAa?$AAn@ 100a71ec     libucrt:get_qualified_locale.obj
 0002:00007200       ??_C@_1CC@CILKDEIE@?$AAn?$AAo?$AAr?$AAw?$AAe?$AAg?$AAi?$AAa?$AAn?$AA?9?$AAb?$AAo?$AAk?$AAm?$AAa@ 100a7200     libucrt:get_qualified_locale.obj
 0002:00007224       ??_C@_1CE@DHMMHEPL@?$AAn?$AAo?$AAr?$AAw?$AAe?$AAg?$AAi?$AAa?$AAn?$AA?9?$AAn?$AAy?$AAn?$AAo?$AAr@ 100a7224     libucrt:get_qualified_locale.obj
 0002:00007248       ??_C@_1CK@OPNMHECD@?$AAp?$AAo?$AAr?$AAt?$AAu?$AAg?$AAu?$AAe?$AAs?$AAe?$AA?9?$AAb?$AAr?$AAa?$AAz@ 100a7248     libucrt:get_qualified_locale.obj
 0002:00007274       ??_C@_1CE@KEEHCDB@?$AAs?$AAp?$AAa?$AAn?$AAi?$AAs?$AAh?$AA?9?$AAa?$AAr?$AAg?$AAe?$AAn?$AAt?$AAi@ 100a7274     libucrt:get_qualified_locale.obj
 0002:00007298       ??_C@_1CA@GIAOLHJD@?$AAs?$AAp?$AAa?$AAn?$AAi?$AAs?$AAh?$AA?9?$AAb?$AAo?$AAl?$AAi?$AAv?$AAi?$AAa@ 100a7298     libucrt:get_qualified_locale.obj
 0002:000072b8       ??_C@_1BM@OJNDFNPD@?$AAs?$AAp?$AAa?$AAn?$AAi?$AAs?$AAh?$AA?9?$AAc?$AAh?$AAi?$AAl?$AAe@ 100a72b8     libucrt:get_qualified_locale.obj
 0002:000072d4       ??_C@_1CC@OCOLPALL@?$AAs?$AAp?$AAa?$AAn?$AAi?$AAs?$AAh?$AA?9?$AAc?$AAo?$AAl?$AAo?$AAm?$AAb?$AAi@ 100a72d4     libucrt:get_qualified_locale.obj
 0002:000072f8       ??_C@_1CG@BPOFMKBB@?$AAs?$AAp?$AAa?$AAn?$AAi?$AAs?$AAh?$AA?9?$AAc?$AAo?$AAs?$AAt?$AAa?$AA?5?$AAr@ 100a72f8     libucrt:get_qualified_locale.obj
 0002:00007320       ??_C@_1DG@IGOBAPBB@?$AAs?$AAp?$AAa?$AAn?$AAi?$AAs?$AAh?$AA?9?$AAd?$AAo?$AAm?$AAi?$AAn?$AAi?$AAc@ 100a7320     libucrt:get_qualified_locale.obj
 0002:00007358       ??_C@_1CA@JHAPGEGI@?$AAs?$AAp?$AAa?$AAn?$AAi?$AAs?$AAh?$AA?9?$AAe?$AAc?$AAu?$AAa?$AAd?$AAo?$AAr@ 100a7358     libucrt:get_qualified_locale.obj
 0002:00007378       ??_C@_1CI@LAPALJPP@?$AAs?$AAp?$AAa?$AAn?$AAi?$AAs?$AAh?$AA?9?$AAe?$AAl?$AA?5?$AAs?$AAa?$AAl?$AAv@ 100a7378     libucrt:get_qualified_locale.obj
 0002:000073a0       ??_C@_1CE@PDGBOFOM@?$AAs?$AAp?$AAa?$AAn?$AAi?$AAs?$AAh?$AA?9?$AAg?$AAu?$AAa?$AAt?$AAe?$AAm?$AAa@ 100a73a0     libucrt:get_qualified_locale.obj
 0002:000073c4       ??_C@_1CC@NBEBAODI@?$AAs?$AAp?$AAa?$AAn?$AAi?$AAs?$AAh?$AA?9?$AAh?$AAo?$AAn?$AAd?$AAu?$AAr?$AAa@ 100a73c4     libucrt:get_qualified_locale.obj
 0002:000073e8       ??_C@_1CA@LLKGHBMF@?$AAs?$AAp?$AAa?$AAn?$AAi?$AAs?$AAh?$AA?9?$AAm?$AAe?$AAx?$AAi?$AAc?$AAa?$AAn@ 100a73e8     libucrt:get_qualified_locale.obj
 0002:00007408       ??_C@_1BO@LKNDOIGD@?$AAs?$AAp?$AAa?$AAn?$AAi?$AAs?$AAh?$AA?9?$AAm?$AAo?$AAd?$AAe?$AAr?$AAn@ 100a7408     libucrt:get_qualified_locale.obj
 0002:00007428       ??_C@_1CE@NMDMOEEB@?$AAs?$AAp?$AAa?$AAn?$AAi?$AAs?$AAh?$AA?9?$AAn?$AAi?$AAc?$AAa?$AAr?$AAa?$AAg@ 100a7428     libucrt:get_qualified_locale.obj
 0002:0000744c       ??_C@_1BO@LLCBEJGB@?$AAs?$AAp?$AAa?$AAn?$AAi?$AAs?$AAh?$AA?9?$AAp?$AAa?$AAn?$AAa?$AAm?$AAa@ 100a744c     libucrt:get_qualified_locale.obj
 0002:0000746c       ??_C@_1CC@FKPGGIHO@?$AAs?$AAp?$AAa?$AAn?$AAi?$AAs?$AAh?$AA?9?$AAp?$AAa?$AAr?$AAa?$AAg?$AAu?$AAa@ 100a746c     libucrt:get_qualified_locale.obj
 0002:00007490       ??_C@_1BK@CDEIHOOP@?$AAs?$AAp?$AAa?$AAn?$AAi?$AAs?$AAh?$AA?9?$AAp?$AAe?$AAr?$AAu@ 100a7490     libucrt:get_qualified_locale.obj
 0002:000074ac       ??_C@_1CI@GAHAKKGP@?$AAs?$AAp?$AAa?$AAn?$AAi?$AAs?$AAh?$AA?9?$AAp?$AAu?$AAe?$AAr?$AAt?$AAo?$AA?5@ 100a74ac     libucrt:get_qualified_locale.obj
 0002:000074d4       ??_C@_1CA@NKJBCAGP@?$AAs?$AAp?$AAa?$AAn?$AAi?$AAs?$AAh?$AA?9?$AAu?$AAr?$AAu?$AAg?$AAu?$AAa?$AAy@ 100a74d4     libucrt:get_qualified_locale.obj
 0002:000074f4       ??_C@_1CE@ODILCONM@?$AAs?$AAp?$AAa?$AAn?$AAi?$AAs?$AAh?$AA?9?$AAv?$AAe?$AAn?$AAe?$AAz?$AAu?$AAe@ 100a74f4     libucrt:get_qualified_locale.obj
 0002:00007518       ??_C@_1CA@OBNMCGFO@?$AAs?$AAw?$AAe?$AAd?$AAi?$AAs?$AAh?$AA?9?$AAf?$AAi?$AAn?$AAl?$AAa?$AAn?$AAd@ 100a7518     libucrt:get_qualified_locale.obj
 0002:00007538       ??_C@_1M@PIPDDPPI@?$AAs?$AAw?$AAi?$AAs?$AAs@ 100a7538     libucrt:get_qualified_locale.obj
 0002:00007544       ??_C@_15GMFIMNFM@?$AAu?$AAs@ 100a7544     libucrt:get_qualified_locale.obj
 0002:0000754c       ??_C@_17HAEBFAGL@?$AAu?$AAs?$AAa@ 100a754c     libucrt:get_qualified_locale.obj
 0002:00007554       ??_C@_1BA@DPFJEPHB@?$AAa?$AAm?$AAe?$AAr?$AAi?$AAc?$AAa@ 100a7554     libucrt:get_qualified_locale.obj
 0002:00007564       ??_C@_1BA@ELOGGFK@?$AAb?$AAr?$AAi?$AAt?$AAa?$AAi?$AAn@ 100a7564     libucrt:get_qualified_locale.obj
 0002:00007574       ??_C@_1M@GHBGIGDA@?$AAc?$AAh?$AAi?$AAn?$AAa@ 100a7574     libucrt:get_qualified_locale.obj
 0002:00007580       ??_C@_1M@NCHEJOPO@?$AAc?$AAz?$AAe?$AAc?$AAh@ 100a7580     libucrt:get_qualified_locale.obj
 0002:0000758c       ??_C@_1BA@BKPAPBLA@?$AAe?$AAn?$AAg?$AAl?$AAa?$AAn?$AAd@ 100a758c     libucrt:get_qualified_locale.obj
 0002:0000759c       ??_C@_1BM@HKBCKIPC@?$AAg?$AAr?$AAe?$AAa?$AAt?$AA?5?$AAb?$AAr?$AAi?$AAt?$AAa?$AAi?$AAn@ 100a759c     libucrt:get_qualified_locale.obj
 0002:000075b8       ??_C@_1BA@PPCHPGJB@?$AAh?$AAo?$AAl?$AAl?$AAa?$AAn?$AAd@ 100a75b8     libucrt:get_qualified_locale.obj
 0002:000075c8       ??_C@_1BE@JBMPEGDG@?$AAh?$AAo?$AAn?$AAg?$AA?9?$AAk?$AAo?$AAn?$AAg@ 100a75c8     libucrt:get_qualified_locale.obj
 0002:000075dc       ??_C@_1BI@KOELBBPJ@?$AAn?$AAe?$AAw?$AA?9?$AAz?$AAe?$AAa?$AAl?$AAa?$AAn?$AAd@ 100a75dc     libucrt:get_qualified_locale.obj
 0002:000075f4       ??_C@_15HIEBHAIO@?$AAn?$AAz@ 100a75f4     libucrt:get_qualified_locale.obj
 0002:000075fc       ??_C@_1BC@CHBCPFPI@?$AAp?$AAr?$AA?5?$AAc?$AAh?$AAi?$AAn?$AAa@ 100a75fc     libucrt:get_qualified_locale.obj
 0002:00007610       ??_C@_1BC@JAOIIFKD@?$AAp?$AAr?$AA?9?$AAc?$AAh?$AAi?$AAn?$AAa@ 100a7610     libucrt:get_qualified_locale.obj
 0002:00007624       ??_C@_1BI@BEHPPHKC@?$AAp?$AAu?$AAe?$AAr?$AAt?$AAo?$AA?9?$AAr?$AAi?$AAc?$AAo@ 100a7624     libucrt:get_qualified_locale.obj
 0002:0000763c       ??_C@_1O@PAEOFKDI@?$AAs?$AAl?$AAo?$AAv?$AAa?$AAk@ 100a763c     libucrt:get_qualified_locale.obj
 0002:0000764c       ??_C@_1BK@FIHMCKAM@?$AAs?$AAo?$AAu?$AAt?$AAh?$AA?5?$AAa?$AAf?$AAr?$AAi?$AAc?$AAa@ 100a764c     libucrt:get_qualified_locale.obj
 0002:00007668       ??_C@_1BI@NAEOODKB@?$AAs?$AAo?$AAu?$AAt?$AAh?$AA?5?$AAk?$AAo?$AAr?$AAe?$AAa@ 100a7668     libucrt:get_qualified_locale.obj
 0002:00007680       ??_C@_1BK@FBDGGIFF@?$AAs?$AAo?$AAu?$AAt?$AAh?$AA?9?$AAa?$AAf?$AAr?$AAi?$AAc?$AAa@ 100a7680     libucrt:get_qualified_locale.obj
 0002:0000769c       ??_C@_1BI@GHLEJDPK@?$AAs?$AAo?$AAu?$AAt?$AAh?$AA?9?$AAk?$AAo?$AAr?$AAe?$AAa@ 100a769c     libucrt:get_qualified_locale.obj
 0002:000076b4       ??_C@_1CE@PLHLOMJF@?$AAt?$AAr?$AAi?$AAn?$AAi?$AAd?$AAa?$AAd?$AA?5?$AA?$CG?$AA?5?$AAt?$AAo?$AAb?$AAa@ 100a76b4     libucrt:get_qualified_locale.obj
 0002:000076d8       ??_C@_1BO@MODIMHHI@?$AAu?$AAn?$AAi?$AAt?$AAe?$AAd?$AA?9?$AAk?$AAi?$AAn?$AAg?$AAd?$AAo?$AAm@ 100a76d8     libucrt:get_qualified_locale.obj
 0002:000076f8       ??_C@_1BM@FFHJONBJ@?$AAu?$AAn?$AAi?$AAt?$AAe?$AAd?$AA?9?$AAs?$AAt?$AAa?$AAt?$AAe?$AAs@ 100a76f8     libucrt:get_qualified_locale.obj
 0002:00007714       ??_C@_19MPDNHKDG@?$AAu?$AAt?$AAf?$AA8@ 100a7714     libucrt:get_qualified_locale.obj
 0002:00007720       ??_C@_17DNCLJFIF@?$AAA?$AAC?$AAP@ 100a7720     libucrt:get_qualified_locale.obj
 0002:00007728       ??_C@_1M@FPEIIFAM@?$AAu?$AAt?$AAf?$AA?9?$AA8@ 100a7728     libucrt:get_qualified_locale.obj
 0002:00007734       ??_C@_17CIKBIHLH@?$AAO?$AAC?$AAP@ 100a7734     libucrt:get_qualified_locale.obj
 0002:0000773c       ___rglangidNotDefault      100a773c     libucrt:getqloc_downlevel.obj
 0002:000077e8       ??_C@_01GBGANLPD@0@        100a77e8     libucrt:cfout.obj
 0002:000077ec       ??_C@_05DNEBIAHO@1?$CDINF@ 100a77ec     libucrt:cfout.obj
 0002:000077f4       ??_C@_06IMKFLFPG@1?$CDQNAN@ 100a77f4     libucrt:cfout.obj
 0002:000077fc       ??_C@_06PGGFOGJG@1?$CDSNAN@ 100a77fc     libucrt:cfout.obj
 0002:00007804       ??_C@_05PHHOCPM@1?$CDIND@  100a7804     libucrt:cfout.obj
 0002:00008650       ___acrt_pow_rcp_t1         100a8650     libucrt:pow_tables.obj
 0002:00008a60       ___acrt_pow_log2_t1        100a8a60     libucrt:pow_tables.obj
 0002:00009270       ___acrt_pow_rcp_t2         100a9270     libucrt:pow_tables.obj
 0002:00009680       ___acrt_pow_log2_t2        100a9680     libucrt:pow_tables.obj
 0002:00009e90       ___acrt_pow_rcp_t3         100a9e90     libucrt:pow_tables.obj
 0002:0000a6a0       ___acrt_pow_log2_t3        100aa6a0     libucrt:pow_tables.obj
 0002:0000b6b0       ___acrt_pow_clv            100ab6b0     libucrt:pow_tables.obj
 0002:0000b6d0       ___acrt_pow_exp2_tbl       100ab6d0     libucrt:pow_tables.obj
 0002:0000c030       ??_C@_1BA@BALFACEM@?$AAC?$AAO?$AAN?$AAO?$AAU?$AAT?$AA$@ 100ac030     libucrt:initcon.obj
 0002:0000c040       ___acrt_log10_table_t      100ac040     libucrt:log10_tables.obj
 0002:0000c450       ___acrt_log10_table_cb     100ac450     libucrt:log10_tables.obj
 0002:0000c86c       ??_C@_0CE@FILPLMEH@C?3?2src?2plugins?2arclite?2comutils@ 100ac86c     archive.obj
 0002:0000c890       ??_C@_19HNCGHLOK@?$AAC?$AAo?$AAp?$AAy@ 100ac890     archive.obj
 0002:0000c89c       ??_C@_19MMHLLJED@?$AAL?$AAZ?$AAM?$AAA@ 100ac89c     archive.obj
 0002:0000c8a8       ??_C@_1M@DDMLOLLP@?$AAL?$AAZ?$AAM?$AAA?$AA2@ 100ac8a8     archive.obj
 0002:0000c8b4       ??_C@_19FHPHDENP@?$AAP?$AAP?$AAM?$AAD@ 100ac8b4     archive.obj
 0002:0000c8c0       ??_C@_19DOGDICKI@?$AA?4?$AAe?$AAx?$AAe@ 100ac8c0     archive.obj
 0002:0000c8cc       ??_C@_19IEMBGPPO@?$AA?4?$AA0?$AA0?$AA1@ 100ac8cc     archive.obj
 0002:0000c8d8       ??_C@_13PAHNCFBL@?$PP?$JC@ 100ac8d8     archive.obj
 0002:0000c8dc       ??_C@_0N@DLJIDING@CreateObject@ 100ac8dc     archive.obj
 0002:0000c8ec       ??_C@_0O@HMDGOOC@CreateDecoder@ 100ac8ec     archive.obj
 0002:0000c8fc       ??_C@_0O@MJGODKIG@CreateEncoder@ 100ac8fc     archive.obj
 0002:0000c90c       ??_C@_0BD@HEPKNIHJ@GetNumberOfMethods@ 100ac90c     archive.obj
 0002:0000c920       ??_C@_0BC@OJPJFIMA@GetMethodProperty@ 100ac920     archive.obj
 0002:0000c934       ??_C@_0BD@GPKACDEP@GetNumberOfFormats@ 100ac934     archive.obj
 0002:0000c948       ??_C@_0BD@DAJFLGDO@GetHandlerProperty@ 100ac948     archive.obj
 0002:0000c95c       ??_C@_0BE@CMCBNMGM@GetHandlerProperty2@ 100ac95c     archive.obj
 0002:0000c970       ??_C@_08IPABKFMB@GetIsArc@ 100ac970     archive.obj
 0002:0000c97c       ??_C@_09NCDAKKNI@SetCodecs@ 100ac97c     archive.obj
 0002:0000c988       ??_C@_0L@FNFIFDEC@GetHashers@ 100ac988     archive.obj
 0002:0000c994       ??_C@_1O@CNEPMAPN@?$AA7?$AAz?$AA?4?$AAs?$AAf?$AAx@ 100ac994     archive.obj
 0002:0000c9a4       ??_C@_1BE@CPEIGPON@?$AA7?$AAz?$AAC?$AAo?$AAn?$AA?4?$AAs?$AAf?$AAx@ 100ac9a4     archive.obj
 0002:0000c9b8       ??_C@_1BA@GPHFCJDK@?$AA7?$AAz?$AAS?$AA?4?$AAs?$AAf?$AAx@ 100ac9b8     archive.obj
 0002:0000c9c8       ??_C@_1BC@EKJIHECG@?$AA7?$AAz?$AAS?$AAD?$AA?4?$AAs?$AAf?$AAx@ 100ac9c8     archive.obj
 0002:0000c9dc       ??_C@_1BC@IBOPFADC@?$AA7?$AAz?$AAS?$AA2?$AA?4?$AAs?$AAf?$AAx@ 100ac9dc     archive.obj
 0002:0000c9f0       ??_C@_1BI@JEMGCCOA@?$AA7?$AAz?$AAS?$AA2?$AAc?$AAo?$AAn?$AA?4?$AAs?$AAf?$AAx@ 100ac9f0     archive.obj
 0002:0000ca08       ??_C@_13OHNMPHJM@?$AA?$FN@ 100aca08     archive.obj
 0002:0000ca0c       ??_C@_15FFJNNDMJ@?$AA?5?$AA?$FL@ 100aca0c     archive.obj
 0002:0000ca14       ??_C@_1M@HNNPBALB@?$AA?$CK?$AA?4?$AAd?$AAl?$AAl@ 100aca14     archive.obj
 0002:0000ca20       ??_C@_1M@HFEBMLCN@?$AA?$CK?$AA?4?$AAs?$AAf?$AAx@ 100aca20     archive.obj
 0002:0000ca2c       ??_C@_1BO@CHFBIDJD@?$AAS?$AAo?$AAf?$AAt?$AAw?$AAa?$AAr?$AAe?$AA?2?$AA7?$AA?9?$AAZ?$AAi?$AAp@ 100aca2c     archive.obj
 0002:0000ca4c       ??_C@_19NHABCBNP@?$AAP?$AAa?$AAt?$AAh@ 100aca4c     archive.obj
 0002:0000ca58       ??_C@_1O@CFNBBLGB@?$AA7?$AAz?$AA?4?$AAd?$AAl?$AAl@ 100aca58     archive.obj
 0002:0000ca68       ??_C@_1CC@DJBHBKGF@?$AAF?$AAo?$AAr?$AAm?$AAa?$AAt?$AAs?$AA?2?$AA?$CK?$AA?4?$AAf?$AAo?$AAr?$AAm?$AAa@ 100aca68     archive.obj
 0002:0000ca8c       ??_C@_1BO@IMACGJDG@?$AAC?$AAo?$AAd?$AAe?$AAc?$AAs?$AA?2?$AA?$CK?$AA?4?$AAc?$AAo?$AAd?$AAe?$AAc@ 100aca8c     archive.obj
 0002:0000caac       ??_C@_13BBDEGPLJ@?$AA?$CK@ 100acaac     archive.obj
 0002:0000cab0       ??_C@_0M@HIHBHGEM@archive?4cpp@ 100acab0     archive.obj
 0002:0000cac0       ??_C@_1GK@CKLFAJOB@?$AAS?$AAt?$AAr?$AAi?$AAn?$AAg?$AAF?$AAr?$AAo?$AAm?$AAG?$AAU?$AAI?$AAD?$AA2@ 100acac0     archive.obj
 0002:0000cb2c       ??_C@_19LKKOIHJI@?$AA?4?$AAt?$AAm?$AAp@ 100acb2c     archive.obj
 0002:0000cb38       ??_C@_15DDHGOCBH@?$AA?4?$AA?4@ 100acb38     archive.obj
 0002:0000cb40       ??_C@_13JOFGPIOO@?$AA?4@   100acb40     archive.obj
 0002:0000cb44       ??_C@_1CM@CMIJFKHD@?$AAE?$AAn?$AAc?$AAr?$AAy?$AAp?$AAt?$AAe?$AAd?$AAH?$AAe?$AAa?$AAd?$AAe?$AAr@ 100acb44     archive.obj
 0002:0000cb70       ??_C@_1CC@NJPIIGFF@?$AAU?$AAn?$AAc?$AAo?$AAn?$AAf?$AAi?$AAr?$AAm?$AAe?$AAd?$AAS?$AAt?$AAa?$AAr@ 100acb70     archive.obj
 0002:0000cb94       ??_C@_1CG@NCCDFAEB@?$AAU?$AAn?$AAs?$AAu?$AAp?$AAp?$AAo?$AAr?$AAt?$AAe?$AAd?$AAF?$AAe?$AAa?$AAt@ 100acb94     archive.obj
 0002:0000cbbc       ??_C@_1CA@KGIFCFON@?$AAU?$AAn?$AAk?$AAn?$AAo?$AAw?$AAn?$AA?5?$AAe?$AAr?$AAr?$AAo?$AAr?$AA?3?$AA?5@ 100acbbc     archive.obj
 0002:0000cbdc       ??_C@_0BG@BBKNOMOH@invalid?5map?$DMK?0?5T?$DO?5key@ 100acbdc     archive.obj
 0002:0000cbf4       ??_C@_0BA@FOIKENOD@vector?5too?5long@ 100acbf4     archive.obj
 0002:0000cc04       ??_C@_0BI@CFPLBAOH@invalid?5string?5position@ 100acc04     archive.obj
 0002:0000cc1c       ??_C@_0O@NKNMEGII@list?5too?5long@ 100acc1c     archive.obj
 0002:0000cc2c       ??_C@_0BC@KBDMBKEH@deque?$DMT?$DO?5too?5long@ 100acc2c     archive.obj
 0002:0000cc40       ??_C@_0BB@GCADKGJO@map?1set?5too?5long@ 100acc40     archive.obj
 0002:0000cc54       _IID_IOutArchive           100acc54     archive.obj
 0002:0000cc64       _IID_IInArchive            100acc64     archive.obj
 0002:0000ccc8       ?c_volume_ext@@3PB_WB      100accc8     archive.obj
 0002:0000cccc       ?c_sfx_ext@@3PB_WB         100acccc     archive.obj
 0002:0000ccd0       ?c_min_volume_size@@3_KB   100accd0     archive.obj
 0002:0000cdf0       ?c_method_ppmd@@3PB_WB     100acdf0     archive.obj
 0002:0000cdf4       ?c_method_lzma2@@3PB_WB    100acdf4     archive.obj
 0002:0000cdf8       ?c_method_lzma@@3PB_WB     100acdf8     archive.obj
 0002:0000cdfc       ?c_method_copy@@3PB_WB     100acdfc     archive.obj
 0002:0000ce30       ?c_copy_opened_files_option@@3PB_WB 100ace30     options.obj
 0002:0000ce34       ?c_esc_confirmation_option@@3PB_WB 100ace34     options.obj
 0002:0000cf34       ??_7IHashers@@6B@          100acf34     archive.obj
 0002:0000cf4c       _IID_IHashers              100acf4c     archive.obj
 0002:0000cf5c       _IID_ICompressCodecsInfo   100acf5c     archive.obj
 0002:0000cf70       ??_7MyCompressCodecsInfo@@6BComBase@@@ 100acf70     archive.obj
 0002:0000cf84       ??_7MyCompressCodecsInfo@@6BIHashers@@@ 100acf84     archive.obj
 0002:0000cfa0       ??_7MyCompressCodecsInfo@@6BICompressCodecsInfo@@@ 100acfa0     archive.obj
 0002:0000cfc0       ??_7ComBase@@6B@           100acfc0     archive.obj
 0002:0000cfd0       ??_C@_0BA@JFNIOLAK@string?5too?5long@ 100acfd0     archive.obj
 0002:0000cfe0       ??_C@_0BF@KINCDENJ@bad?5array?5new?5length@ 100acfe0     archive.obj
 0002:0000cff8       ??_C@_0BC@EOODALEL@Unknown?5exception@ 100acff8     archive.obj
 0002:0000d00c       ??_C@_0CB@GHBAJPG@C?3?2src?2plugins?2arclite?2error?4hp@ 100ad00c     plugin.obj
 0002:0000d030       ??_C@_0L@MBOHGIBE@plugin?4cpp@ 100ad030     plugin.obj
 0002:0000d03c       ??_C@_13EBCNDICG@?$AA?3@   100ad03c     plugin.obj
 0002:0000d040       ??_C@_13FPGAJAPJ@?$AA?2@   100ad040     plugin.obj
 0002:0000d048       ??_C@_1FE@OHPOHPOP@?$AAF?$AAa?$AAr?$AA?3?$AA?3?$AAg?$AAe?$AAt?$AA_?$AAp?$AAa?$AAn?$AAe?$AAl?$AA_@ 100ad048     plugin.obj
 0002:0000d09c       ??_C@_13ENNFDPBH@?$AA_@    100ad09c     plugin.obj
 0002:0000d0a0       ??_C@_1JK@FFADHFBH@?$AAg?$AAe?$AAt?$AA_?$AAa?$AAp?$AAp?$AA_?$AAo?$AAp?$AAt?$AAi?$AAo?$AAn?$AA?$CI@ 100ad0a0     plugin.obj
 0002:0000d13c       ??_C@_13LBAGMAIH@?$AA?6@   100ad13c     plugin.obj
 0002:0000d140       ??_C@_1BA@BAPGAOIJ@?$AAA?$AAr?$AAc?$AAL?$AAi?$AAt?$AAe@ 100ad140     plugin.obj
 0002:0000d150       ??_C@_1FC@HPEFIKDA@?$AAA?$AAr?$AAc?$AAh?$AAi?$AAv?$AAe?$AA?5?$AAs?$AAu?$AAp?$AAp?$AAo?$AAr?$AAt@ 100ad150     plugin.obj
 0002:0000d1a4       ??_C@_1DE@BGKMIKPD@?$AAE?$AAu?$AAg?$AAe?$AAn?$AAe?$AA?5?$AAR?$AAo?$AAs?$AAh?$AAa?$AAl?$AA?5?$AA?$CG@ 100ad1a4     plugin.obj
 0002:0000d1d8       ??_C@_1BC@ENICKDH@?$AAC?$AAo?$AAn?$AAt?$AAe?$AAn?$AAt?$AAs@ 100ad1d8     plugin.obj
 0002:0000d1ec       ??_C@_1CC@GBAAMIEE@?$AAK?$AAe?$AAy?$AAs?$AA?$CI?$AA?8?$AAC?$AAt?$AAr?$AAl?$AAP?$AAg?$AAD?$AAn?$AA?8@ 100ad1ec     plugin.obj
 0002:0000d210       ??_C@_1O@GBAEOCCH@?$AAP?$AAr?$AAe?$AAf?$AAi?$AAx@ 100ad210     plugin.obj
 0002:0000d238       ??_7?$_Ref_count@VArchive@@@std@@6B@ 100ad238     plugin.obj
 0002:0000d24c       ??_7?$_Ref_count@V?$list@UError@@V?$allocator@UError@@@std@@@std@@@std@@6B@ 100ad24c     plugin.obj
 0002:0000d25c       ??_C@_11LOCGONAA@@         100ad25c     ui.obj
 0002:0000d25c       ?empty@?1???$null_to_empty@_W@@YAPB_WPB_W@Z@4_WB 100ad25c     plugin.obj
 0002:0000d264       ??_7PluginPanelItems@?1??extract@Plugin@@QAEXXZ@6B@ 100ad264     plugin.obj
 0002:0000d270       ??_7PluginPanelItems@?1??get_files@Plugin@@QAEXPBUPluginPanelItem@@HHPAPB_W_K@Z@6B@ 100ad270     plugin.obj
 0002:0000d278       ??_C@_02LMMGGCAJ@?3?5@     100ad278     plugin.obj
 0002:0000d27c       _c_far_guid                100ad27c     plugin.obj
 0002:0000d28c       _c_format_library_info_dialog_guid 100ad28c     plugin.obj
 0002:0000d29c       _c_multi_select_dialog_guid 100ad29c     plugin.obj
 0002:0000d2ac       _c_update_params_saved_dialog_guid 100ad2ac     plugin.obj
 0002:0000d2bc       _c_generic_guid            100ad2bc     plugin.obj
 0002:0000d2cc       _c_save_profile_dialog_guid 100ad2cc     plugin.obj
 0002:0000d2dc       _c_create_dir_dialog_guid  100ad2dc     plugin.obj
 0002:0000d2ec       _c_arccmd_menu_guid        100ad2ec     plugin.obj
 0002:0000d2fc       _c_main_menu_guid          100ad2fc     plugin.obj
 0002:0000d30c       _c_format_menu_guid        100ad30c     plugin.obj
 0002:0000d31c       _c_error_dialog_guid       100ad31c     plugin.obj
 0002:0000d32c       _c_arc_path_eval_dialog_guid 100ad32c     plugin.obj
 0002:0000d33c       _c_extract_params_saved_dialog_guid 100ad33c     plugin.obj
 0002:0000d34c       _c_test_ok_dialog_guid     100ad34c     plugin.obj
 0002:0000d35c       _c_delete_profile_dialog_guid 100ad35c     plugin.obj
 0002:0000d36c       _c_error_log_dialog_guid   100ad36c     plugin.obj
 0002:0000d37c       _c_retry_ignore_dialog_guid 100ad37c     plugin.obj
 0002:0000d38c       _c_interrupt_dialog_guid   100ad38c     plugin.obj
 0002:0000d39c       _c_progress_dialog_guid    100ad39c     plugin.obj
 0002:0000d3ac       _c_overwrite_archive_dialog_guid 100ad3ac     plugin.obj
 0002:0000d3bc       _c_delete_files_dialog_guid 100ad3bc     plugin.obj
 0002:0000d3cc       _c_sfx_options_dialog_guid 100ad3cc     plugin.obj
 0002:0000d3dc       _c_attr_dialog_guid        100ad3dc     plugin.obj
 0002:0000d3ec       _c_settings_dialog_guid    100ad3ec     plugin.obj
 0002:0000d3fc       _c_update_dialog_guid      100ad3fc     plugin.obj
 0002:0000d40c       _c_extract_dialog_guid     100ad40c     plugin.obj
 0002:0000d41c       _c_overwrite_dialog_guid   100ad41c     plugin.obj
 0002:0000d42c       _c_password_dialog_guid    100ad42c     plugin.obj
 0002:0000d43c       _c_plugin_config_guid      100ad43c     plugin.obj
 0002:0000d44c       _c_plugin_menu_guid        100ad44c     plugin.obj
 0002:0000d45c       _c_plugin_guid             100ad45c     plugin.obj
 0002:0000d46c       ??_C@_06NPJEFJLB@ui?4cpp@  100ad46c     ui.obj
 0002:0000d478       ??_C@_1JG@OMFJPMPF@?$AAg?$AAe?$AAt?$AA_?$AAa?$AAp?$AAp?$AA_?$AAo?$AAp?$AAt?$AAi?$AAo?$AAn?$AA?$CI@ 100ad478     ui.obj
 0002:0000d510       ??_C@_17DMMFPNIF@?$AA?$CF?$AA?$HN?$AA?5@ 100ad510     ui.obj
 0002:0000d518       ??_C@_13GCIFAHHO@?$AA?$HL@ 100ad518     ui.obj
 0002:0000d51c       ??_C@_15FOBPOKEL@?$AA?$FN?$AA?5@ 100ad51c     ui.obj
 0002:0000d524       ??_C@_13MCLHKIEA@?$AA?$FL@ 100ad524     ui.obj
 0002:0000d528       ??_C@_13NEIAEHFG@?$AA?$CC@ 100ad528     ui.obj
 0002:0000d52c       ??_C@_1BA@DNNJDHAB@?$AAE?$AAx?$AAt?$AAr?$AAa?$AAc?$AAt@ 100ad52c     ui.obj
 0002:0000d53c       ??_C@_1CI@GPLIDJDI@?$AAa?$AAr?$AAc?$AAl?$AAi?$AAt?$AAe?$AA?4?$AAe?$AAx?$AAt?$AAr?$AAa?$AAc?$AAt@ 100ad53c     ui.obj
 0002:0000d564       ??_C@_15IEGBJKPD@?$AA?3?$AA?6@ 100ad564     ui.obj
 0002:0000d56c       ??_C@_15OJKDPEFE@?$AA?5?$AA?5@ 100ad56c     ui.obj
 0002:0000d574       ??_C@_13NMPKAAJP@?$AA?$DN@ 100ad574     ui.obj
 0002:0000d578       ??_C@_1BG@PGBNDIAE@?$AA0?$AA1?$AA2?$AA3?$AA4?$AA5?$AA6?$AA7?$AA8?$AA9@ 100ad578     ui.obj
 0002:0000d590       ??_C@_13PJJBFPED@?$AA?$DL@ 100ad590     ui.obj
 0002:0000d598       ??_C@_1GG@OEEJHDBB@?$AAs?$AAe?$AAn?$AAd?$AA_?$AAm?$AAe?$AAs?$AAs?$AAa?$AAg?$AAe?$AA?$CI?$AAD?$AAM@ 100ad598     ui.obj
 0002:0000d600       ??_C@_1O@PBKAOOPF@?$AAU?$AAp?$AAd?$AAa?$AAt?$AAe@ 100ad600     ui.obj
 0002:0000d610       ??_C@_1CC@JHNGBHPE@?$AAa?$AAr?$AAc?$AAl?$AAi?$AAt?$AAe?$AA?4?$AAa?$AAr?$AAc?$AA_?$AAp?$AAa?$AAt@ 100ad610     ui.obj
 0002:0000d634       ??_C@_1CC@MEHHCPDF@?$AAa?$AAr?$AAc?$AAl?$AAi?$AAt?$AAe?$AA?4?$AAa?$AAd?$AAv?$AAa?$AAn?$AAc?$AAe@ 100ad634     ui.obj
 0002:0000d658       ??_C@_1CI@KIHLOCML@?$AAa?$AAr?$AAc?$AAl?$AAi?$AAt?$AAe?$AA?4?$AAv?$AAo?$AAl?$AAu?$AAm?$AAe?$AA_@ 100ad658     ui.obj
 0002:0000d680       ??_C@_1DM@DOHHEJNC@?$AAi?$AAt?$AAe?$AAm?$AA_?$AAc?$AAo?$AAl?$AAo?$AAr?$AAs?$AA?9?$AA?$DO?$AAC?$AAo@ 100ad680     ui.obj
 0002:0000d6bc       ??_C@_13DEFPDAGF@?$AA?0@   100ad6bc     ui.obj
 0002:0000d6c0       ??_C@_1O@BJPKKLLM@?$AAC?$AAo?$AAn?$AAf?$AAi?$AAg@ 100ad6c0     ui.obj
 0002:0000d6d0       ??_C@_02BBAHNLBA@?$CFp@    100ad6d0     ui.obj
 0002:0000d6d4       ??_C@_02MDKMJEGG@eE@       100ad6d4     ui.obj
 0002:0000d6d8       ??_C@_02OOPEBDOJ@pP@       100ad6d8     ui.obj
 0002:0000d6e0       ??_7?$_Ref_count@VFileFilter@Far@@@std@@6B@ 100ad6e0     ui.obj
 0002:0000d6f0       ??_C@_04LOAJBDKD@true@     100ad6f0     ui.obj
 0002:0000d6f8       ??_C@_05LAPONLG@false@     100ad6f8     ui.obj
 0002:0000d700       ??_C@_0BA@ELKIONDK@bad?5locale?5name@ 100ad700     ui.obj
 0002:0000d710       ??_C@_00CNPNBAHC@@         100ad710     ui.obj
 0002:0000d714       ??_C@_0BF@PHHKMMFD@ios_base?3?3badbit?5set@ 100ad714     ui.obj
 0002:0000d72c       ??_C@_0BG@FMKFHCIL@ios_base?3?3failbit?5set@ 100ad72c     ui.obj
 0002:0000d744       ??_C@_0BF@OOHOMBOF@ios_base?3?3eofbit?5set@ 100ad744     ui.obj
 0002:0000d75c       ??_C@_08LLGCOLLL@iostream@ 100ad75c     ui.obj
 0002:0000d768       ??_C@_0BG@PADBLCHM@iostream?5stream?5error@ 100ad768     ui.obj
 0002:0000d784       ??_7_Iostream_error_category@std@@6B@ 100ad784     ui.obj
 0002:0000d7a0       ??_7failure@ios_base@std@@6B@ 100ad7a0     ui.obj
 0002:0000d7ac       ??_7ios_base@std@@6B@      100ad7ac     ui.obj
 0002:0000d7b4       ??_7?$basic_ios@_WU?$char_traits@_W@std@@@std@@6B@ 100ad7b4     ui.obj
 0002:0000d7bc       ??_7?$basic_ostream@_WU?$char_traits@_W@std@@@std@@6B@ 100ad7bc     ui.obj
 0002:0000d7c0       ??_8?$basic_ostringstream@_WU?$char_traits@_W@std@@V?$allocator@_W@2@@std@@7B@ 100ad7c0     ui.obj
 0002:0000d7cc       ??_7?$basic_ostringstream@_WU?$char_traits@_W@std@@V?$allocator@_W@2@@std@@6B@ 100ad7cc     ui.obj
 0002:0000d7d4       ??_7?$basic_streambuf@_WU?$char_traits@_W@std@@@std@@6B@ 100ad7d4     ui.obj
 0002:0000d814       ??_7?$basic_stringbuf@_WU?$char_traits@_W@std@@V?$allocator@_W@2@@std@@6B@ 100ad814     ui.obj
 0002:0000d854       ??_7AttrDialog@@6B@        100ad854     ui.obj
 0002:0000d85c       ??_7SettingsDialog@@6B@    100ad85c     ui.obj
 0002:0000d864       ??_7FormatLibraryInfoDialog@@6B@ 100ad864     ui.obj
 0002:0000d86c       ??_7MultiSelectDialog@@6B@ 100ad86c     ui.obj
 0002:0000d874       ??_7UpdateDialog@@6B@      100ad874     ui.obj
 0002:0000d87c       ??_7ExtractDialog@@6B@     100ad87c     ui.obj
 0002:0000d884       ??_7OverwriteDialog@@6B@   100ad884     ui.obj
 0002:0000d88c       ??_7PasswordDialog@@6B@    100ad88c     ui.obj
 0002:0000d8c0       ??_7ProgressMonitor@@6B@   100ad8c0     ui.obj
 0002:0000d8c8       ??_C@_15OKNMGNJN@?$AA?$AB?$AA?6@ 100ad8c8     extract.obj
 0002:0000d8d0       ??_C@_17MMMBOHJC@?$AA?5?$AA?$EA?$AA?5@ 100ad8d0     extract.obj
 0002:0000d8d8       ??_C@_17DFGDFKBN@?$AA?5?$AA?1?$AA?5@ 100ad8d8     extract.obj
 0002:0000d8e0       ??_C@_19IDMFBI@?$AA?$CJ?$AA?5?$AA?1?$AA?5@ 100ad8e0     extract.obj
 0002:0000d8ec       ??_C@_17HIKLPLBG@?$AA?5?$AA?9?$AA?5@ 100ad8ec     extract.obj
 0002:0000d8f4       ??_C@_13LLDNKHDC@?$AA?$CI@ 100ad8f4     extract.obj
 0002:0000d8f8       ??_C@_0M@ELMNDOCL@extract?4cpp@ 100ad8f8     extract.obj
 0002:0000d908       ??_7?$_Ref_count@V?$set@IU?$less@I@std@@V?$allocator@I@2@@std@@@std@@6B@ 100ad908     extract.obj
 0002:0000d91c       ??_7?$_Ref_count@_N@std@@6B@ 100ad91c     extract.obj
 0002:0000d930       ??_7?$_Ref_count@W4OverwriteAction@@@std@@6B@ 100ad930     extract.obj
 0002:0000d944       ??_7?$_Ref_count@VExtractProgress@@@std@@6B@ 100ad944     extract.obj
 0002:0000d958       ??_7?$_Ref_count@VFileWriteCache@@@std@@6B@ 100ad958     extract.obj
 0002:0000d968       ??_C@_0N@FJHHFFAF@bad_weak_ptr@ 100ad968     extract.obj
 0002:0000d97c       ??_7bad_weak_ptr@std@@6B@  100ad97c     extract.obj
 0002:0000d988       ??_7SetDirAttr@@6B@        100ad988     extract.obj
 0002:0000d994       ??_7PrepareExtract@@6B@    100ad994     extract.obj
 0002:0000d9a0       ??_7ICryptoGetTextPassword@@6B@ 100ad9a0     extract.obj
 0002:0000d9b4       ??_7IArchiveExtractCallback@@6B@ 100ad9b4     extract.obj
 0002:0000d9d4       _IID_ICryptoGetTextPassword 100ad9d4     extract.obj
 0002:0000d9e4       _IID_IArchiveExtractCallback 100ad9e4     extract.obj
 0002:0000d9f4       _IID_IProgress             100ad9f4     extract.obj
 0002:0000da08       ??_7ArchiveExtractor@@6BComBase@@@ 100ada08     extract.obj
 0002:0000da1c       ??_7ArchiveExtractor@@6BICryptoGetTextPassword@@@ 100ada1c     extract.obj
 0002:0000da30       ??_7ArchiveExtractor@@6BIArchiveExtractCallback@@@ 100ada30     extract.obj
 0002:0000da50       _IID_ISequentialOutStream  100ada50     extract.obj
 0002:0000da64       ??_7CachedFileExtractStream@@6BComBase@@@ 100ada64     extract.obj
 0002:0000da78       ??_7CachedFileExtractStream@@6BISequentialOutStream@@@ 100ada78     extract.obj
 0002:0000da8c       ??_7ExtractProgress@@6B@   100ada8c     extract.obj
 0002:0000da94       ??_C@_08PBKAOBPC@open?4cpp@ 100ada94     open.obj
 0002:0000daa0       ??_C@_04BNEKHNHI@PK?$AF?$AG@ 100adaa0     open.obj
 0002:0000daa8       ??_C@_1DC@IJGGMPKB@?$AAg?$AAe?$AAt?$AA_?$AAm?$AAa?$AAi?$AAn?$AA_?$AAf?$AAi?$AAl?$AAe?$AA?$CI?$AAm@ 100adaa8     open.obj
 0002:0000dae0       ??_C@_1FA@KJKBGIDM@?$AAg?$AAe?$AAt?$AA_?$AAs?$AAt?$AAr?$AAe?$AAa?$AAm?$AA?$CI?$AAm?$AAa?$AAi?$AAn@ 100adae0     open.obj
 0002:0000db30       ??_C@_1EE@OOLOIHM@?$AAo?$AAp?$AAe?$AAn?$AA?$CI?$AAs?$AAu?$AAb?$AA_?$AAs?$AAt?$AAr?$AAe?$AAa?$AAm@ 100adb30     open.obj
 0002:0000db74       _IID_IArchiveAllowTail     100adb74     open.obj
 0002:0000db84       _IID_IInArchiveGetStream   100adb84     open.obj
 0002:0000db98       ??_7IArchiveOpenVolumeCallback@@6B@ 100adb98     open.obj
 0002:0000dbb0       ??_7IArchiveOpenCallback@@6B@ 100adbb0     open.obj
 0002:0000dbc4       _IID_IArchiveOpenVolumeCallback 100adbc4     open.obj
 0002:0000dbd4       _IID_IArchiveOpenCallback  100adbd4     open.obj
 0002:0000dbe8       ??_7ArchiveOpener@@6BProgressMonitor@@@ 100adbe8     open.obj
 0002:0000dbf4       ??_7ArchiveOpener@@6BComBase@@@ 100adbf4     open.obj
 0002:0000dc08       ??_7ArchiveOpener@@6BICryptoGetTextPassword@@@ 100adc08     open.obj
 0002:0000dc1c       ??_7ArchiveOpener@@6BIArchiveOpenVolumeCallback@@@ 100adc1c     open.obj
 0002:0000dc34       ??_7ArchiveOpener@@6BIArchiveOpenCallback@@@ 100adc34     open.obj
 0002:0000dc4c       ??_7ArchiveOpenStream@@6BComBase@@@ 100adc4c     open.obj
 0002:0000dc60       ??_7ArchiveOpenStream@@6BIInStream@@@ 100adc60     open.obj
 0002:0000dc74       _IID_IInStream             100adc74     open.obj
 0002:0000dc84       _IID_ISequentialInStream   100adc84     open.obj
 0002:0000dc98       ??_7ArchiveSubStream@@6BComBase@@@ 100adc98     open.obj
 0002:0000dcac       ??_7ArchiveSubStream@@6BIInStream@@@ 100adcac     open.obj
 0002:0000dcc0       ??_C@_15BLMJCMIJ@?$AA?5?$AA?9@ 100adcc0     update.obj
 0002:0000dcc8       ??_C@_13EJFHHPOP@?$AA?$CF@ 100adcc8     update.obj
 0002:0000dccc       ??_C@_17HLHNPJIN@?$AA?5?$AA?$DN?$AA?5@ 100adccc     update.obj
 0002:0000dcd4       ??_C@_17GPJGFMAC@?$AA?5?$PP?$JC?$AA?5@ 100adcd4     update.obj
 0002:0000dcdc       ??_C@_0L@JMDIPHEI@update?4cpp@ 100adcdc     update.obj
 0002:0000dce8       ??_C@_1CA@ODCKIHEE@?$AAw?$AAr?$AAi?$AAt?$AAe?$AA_?$AAs?$AAi?$AAz?$AAe?$AA?5?$AA?$CB?$AA?$DN?$AA?5?$AA0@ 100adce8     update.obj
 0002:0000dd08       ??_C@_13KHDBCPJB@?$AAs@    100add08     update.obj
 0002:0000dd0c       ??_C@_15ILBMLOPH@?$AAs?$AA1@ 100add0c     update.obj
 0002:0000dd14       ??_C@_15LELIAJAM@?$AAs?$AA?$CL@ 100add14     update.obj
 0002:0000dd1c       ??_C@_19DNJINCAB@?$AAs?$AA?$DN?$AAo?$AAn@ 100add1c     update.obj
 0002:0000dd28       ??_C@_15DDKANJJC@?$AAs?$AA0@ 100add28     update.obj
 0002:0000dd30       ??_C@_15JBNDFGNA@?$AAs?$AA?9@ 100add30     update.obj
 0002:0000dd38       ??_C@_1M@IDNIJFJD@?$AAs?$AA?$DN?$AAo?$AAf?$AAf@ 100add38     update.obj
 0002:0000dd44       ??_C@_17DPAGFBDD@?$AAq?$AAs?$AA1@ 100add44     update.obj
 0002:0000dd4c       ??_C@_17KCOGMI@?$AAq?$AAs?$AA?$CL@ 100add4c     update.obj
 0002:0000dd54       ??_C@_1M@BKCILBID@?$AAq?$AAs?$AA?$DN?$AAo?$AAn@ 100add54     update.obj
 0002:0000dd60       ??_C@_17IHLKDGFG@?$AAq?$AAs?$AA0@ 100add60     update.obj
 0002:0000dd68       ??_C@_17CFMJLJBE@?$AAq?$AAs?$AA?9@ 100add68     update.obj
 0002:0000dd70       ??_C@_1O@FONGHIAI@?$AAq?$AAs?$AA?$DN?$AAo?$AAf?$AAf@ 100add70     update.obj
 0002:0000dd80       ??_C@_13HADAKIJA@?$AAx@    100add80     update.obj
 0002:0000dd84       ??_C@_13COJANIEC@?$AA0@    100add84     update.obj
 0002:0000dd88       ??_C@_13JGCMLPCH@?$AA1@    100add88     update.obj
 0002:0000dd8c       ??_C@_17IMAACFJN@?$AAB?$AAC?$AAJ@ 100add8c     update.obj
 0002:0000dd94       ??_C@_15KGGCNEFK@?$AAh?$AAe@ 100add94     update.obj
 0002:0000dda0       ??_7?$_Ref_count@V?$map@IUFileIndexInfo@@U?$less@I@std@@V?$allocator@U?$pair@$$CBIUFileIndexInfo@@@std@@@3@@std@@@std@@6B@ 100adda0     update.obj
 0002:0000ddb4       ??_7?$_Ref_count@VArchiveUpdateProgress@@@std@@6B@ 100addb4     update.obj
 0002:0000ddc8       ??_7DeleteSrcFiles@@6B@    100addc8     update.obj
 0002:0000ddd0       _IID_ISetProperties        100addd0     update.obj
 0002:0000dde4       ??_7ICryptoGetTextPassword2@@6B@ 100adde4     update.obj
 0002:0000ddf4       _IID_ICryptoGetTextPassword2 100addf4     update.obj
 0002:0000de04       _IID_IArchiveUpdateCallback 100ade04     update.obj
 0002:0000de18       ??_7ArchiveUpdater@@6BComBase@@@ 100ade18     update.obj
 0002:0000de2c       ??_7ArchiveUpdater@@6BICryptoGetTextPassword2@@@ 100ade2c     update.obj
 0002:0000de40       ??_7ArchiveUpdater@@6BIArchiveUpdateCallback@@@ 100ade40     update.obj
 0002:0000de68       ??_7PrepareUpdate@@6B@     100ade68     update.obj
 0002:0000de70       _IID_IStreamGetSize        100ade70     update.obj
 0002:0000de84       ??_7FileReadStream@@6BComBase@@@ 100ade84     update.obj
 0002:0000de98       ??_7FileReadStream@@6BIStreamGetSize@@@ 100ade98     update.obj
 0002:0000deac       ??_7FileReadStream@@6BIInStream@@@ 100adeac     update.obj
 0002:0000dec4       ??_7MultiVolumeUpdateStream@@6BComBase@@@ 100adec4     update.obj
 0002:0000ded8       ??_7MultiVolumeUpdateStream@@6BUpdateStream@@@ 100aded8     update.obj
 0002:0000defc       ??_7SfxUpdateStream@@6BComBase@@@ 100adefc     update.obj
 0002:0000df10       ??_7SfxUpdateStream@@6BUpdateStream@@@ 100adf10     update.obj
 0002:0000df30       _IID_IOutStream            100adf30     update.obj
 0002:0000df44       ??_7SimpleUpdateStream@@6BComBase@@@ 100adf44     update.obj
 0002:0000df58       ??_7SimpleUpdateStream@@6BUpdateStream@@@ 100adf58     update.obj
 0002:0000df7c       ??_7UpdateStream@@6B@      100adf7c     update.obj
 0002:0000dfa0       ??_7ArchiveUpdateProgress@@6B@ 100adfa0     update.obj
 0002:0000dfa8       ??_C@_0L@NFFAKAN@delete?4cpp@ 100adfa8     delete.obj
 0002:0000dfb8       ??_7?$_Ref_count@VArchiveFileDeleterProgress@@@std@@6B@ 100adfb8     delete.obj
 0002:0000dfcc       ??_7ArchiveFileDeleter@@6BComBase@@@ 100adfcc     delete.obj
 0002:0000dfe0       ??_7ArchiveFileDeleter@@6BIArchiveUpdateCallback@@@ 100adfe0     delete.obj
 0002:0000e008       ??_7ArchiveFileDeleterStream@@6BComBase@@@ 100ae008     delete.obj
 0002:0000e01c       ??_7ArchiveFileDeleterStream@@6BIOutStream@@@ 100ae01c     delete.obj
 0002:0000e038       ??_7ArchiveFileDeleterProgress@@6B@ 100ae038     delete.obj
 0002:0000e040       ??_C@_09ODAGPFND@Codecs?47z@ 100ae040     options.obj
 0002:0000e04c       ??_C@_07KHIHFBFN@Options@  100ae04c     options.obj
 0002:0000e054       ??_C@_0P@KHJJOKPN@max_check_size@ 100ae054     options.obj
 0002:0000e064       ??_C@_0BC@BPKCBNDI@correct_name_mode@ 100ae064     options.obj
 0002:0000e078       ??_C@_0O@BOFFKPJB@qs_by_default@ 100ae078     options.obj
 0002:0000e088       ??_C@_0M@DDNHBEON@strict_case@ 100ae088     options.obj
 0002:0000e094       ??_C@_05CCGOGOBM@range@    100ae094     options.obj
 0002:0000e09c       ??_C@_03PFFIEBLO@std@      100ae09c     options.obj
 0002:0000e0a0       ??_C@_03JKBHOJDP@bcj@      100ae0a0     options.obj
 0002:0000e0a4       ??_C@_03GLJKANAJ@adv@      100ae0a4     options.obj
 0002:0000e0a8       ??_C@_1BI@PHELCDBJ@?$AAa?$AAr?$AAc?$AAl?$AAi?$AAt?$AAe?$AA?4?$AAx?$AAm?$AAl@ 100ae0a8     options.obj
 0002:0000e0c0       ??_C@_1CG@FJDLGHGG@?$AAa?$AAr?$AAc?$AAl?$AAi?$AAt?$AAe?$AA?4?$AAx?$AAm?$AAl?$AA?4?$AAc?$AAu?$AAs@ 100ae0c0     options.obj
 0002:0000e0e8       ??_C@_1BK@IBHIPMBL@?$AA?$CF?$AAF?$AAA?$AAR?$AAP?$AAR?$AAO?$AAF?$AAI?$AAL?$AAE?$AA?$CF@ 100ae0e8     options.obj
 0002:0000e104       ??_C@_17OJOFHEJE@?$AAa?$AAr?$AAc@ 100ae104     options.obj
 0002:0000e10c       ??_C@_15FDMACJLB@?$AA7?$AAz@ 100ae10c     options.obj
 0002:0000e118       ??_C@_1CGI@BLGKMGKC@?$AA?$CK?$AA?4?$AAz?$AAi?$AAp?$AA?0?$AA?$CK?$AA?4?$AAr?$AAa?$AAr?$AA?0?$AA?$CK?$AA?4?$AA?$FL@ 100ae118     options.obj
 0002:0000e380       ??_C@_1BC@JCBBLHDN@?$AAs?$AAf?$AAx?$AA?4?$AAn?$AAa?$AAm?$AAe@ 100ae380     options.obj
 0002:0000e394       ??_C@_1CC@HONLGMMG@?$AAs?$AAf?$AAx?$AA?4?$AAr?$AAe?$AAp?$AAl?$AAa?$AAc?$AAe?$AA_?$AAi?$AAc?$AAo@ 100ae394     options.obj
 0002:0000e3b8       ??_C@_1BM@JPIAFBBJ@?$AAs?$AAf?$AAx?$AA?4?$AAi?$AAc?$AAo?$AAn?$AA_?$AAp?$AAa?$AAt?$AAh@ 100ae3b8     options.obj
 0002:0000e3d4       ??_C@_1CI@JFOGOFA@?$AAs?$AAf?$AAx?$AA?4?$AAr?$AAe?$AAp?$AAl?$AAa?$AAc?$AAe?$AA_?$AAv?$AAe?$AAr@ 100ae3d4     options.obj
 0002:0000e3fc       ??_C@_1CK@ELAOMKDG@?$AAs?$AAf?$AAx?$AA?4?$AAv?$AAe?$AAr?$AA_?$AAi?$AAn?$AAf?$AAo?$AA?4?$AAv?$AAe@ 100ae3fc     options.obj
 0002:0000e428       ??_C@_1CM@BEBJAOOB@?$AAs?$AAf?$AAx?$AA?4?$AAv?$AAe?$AAr?$AA_?$AAi?$AAn?$AAf?$AAo?$AA?4?$AAc?$AAo@ 100ae428     options.obj
 0002:0000e454       ??_C@_1DE@DCPPCPEM@?$AAs?$AAf?$AAx?$AA?4?$AAv?$AAe?$AAr?$AA_?$AAi?$AAn?$AAf?$AAo?$AA?4?$AAc?$AAo@ 100ae454     options.obj
 0002:0000e488       ??_C@_1DM@MFOMGNPE@?$AAs?$AAf?$AAx?$AA?4?$AAv?$AAe?$AAr?$AA_?$AAi?$AAn?$AAf?$AAo?$AA?4?$AAf?$AAi@ 100ae488     options.obj
 0002:0000e4c4       ??_C@_1DK@HPCOKLKF@?$AAs?$AAf?$AAx?$AA?4?$AAv?$AAe?$AAr?$AA_?$AAi?$AAn?$AAf?$AAo?$AA?4?$AAl?$AAe@ 100ae4c4     options.obj
 0002:0000e500       ??_C@_1DE@DEHPBBNH@?$AAs?$AAf?$AAx?$AA?4?$AAv?$AAe?$AAr?$AA_?$AAi?$AAn?$AAf?$AAo?$AA?4?$AAp?$AAr@ 100ae500     options.obj
 0002:0000e534       ??_C@_1DE@CMPJDOC@?$AAs?$AAf?$AAx?$AA?4?$AAa?$AAp?$AAp?$AAe?$AAn?$AAd?$AA_?$AAi?$AAn?$AAs?$AAt@ 100ae534     options.obj
 0002:0000e568       ??_C@_1DC@IBDCCCFH@?$AAs?$AAf?$AAx?$AA?4?$AAi?$AAn?$AAs?$AAt?$AAa?$AAl?$AAl?$AA_?$AAc?$AAo?$AAn@ 100ae568     options.obj
 0002:0000e5a0       ??_C@_1EA@FHBMGOJC@?$AAs?$AAf?$AAx?$AA?4?$AAi?$AAn?$AAs?$AAt?$AAa?$AAl?$AAl?$AA_?$AAc?$AAo?$AAn@ 100ae5a0     options.obj
 0002:0000e5e0       ??_C@_1DI@FGFGCAEP@?$AAs?$AAf?$AAx?$AA?4?$AAi?$AAn?$AAs?$AAt?$AAa?$AAl?$AAl?$AA_?$AAc?$AAo?$AAn@ 100ae5e0     options.obj
 0002:0000e618       ??_C@_1DO@EDLAEBAA@?$AAs?$AAf?$AAx?$AA?4?$AAi?$AAn?$AAs?$AAt?$AAa?$AAl?$AAl?$AA_?$AAc?$AAo?$AAn@ 100ae618     options.obj
 0002:0000e658       ??_C@_1DK@JGHNKBKG@?$AAs?$AAf?$AAx?$AA?4?$AAi?$AAn?$AAs?$AAt?$AAa?$AAl?$AAl?$AA_?$AAc?$AAo?$AAn@ 100ae658     options.obj
 0002:0000e698       ??_C@_1EA@KNCOOEHK@?$AAs?$AAf?$AAx?$AA?4?$AAi?$AAn?$AAs?$AAt?$AAa?$AAl?$AAl?$AA_?$AAc?$AAo?$AAn@ 100ae698     options.obj
 0002:0000e6d8       ??_C@_1EM@GLJDOHOC@?$AAs?$AAf?$AAx?$AA?4?$AAi?$AAn?$AAs?$AAt?$AAa?$AAl?$AAl?$AA_?$AAc?$AAo?$AAn@ 100ae6d8     options.obj
 0002:0000e724       ??_C@_1BM@BHABOEEP@?$AAh?$AAa?$AAn?$AAd?$AAl?$AAe?$AA_?$AAc?$AAr?$AAe?$AAa?$AAt?$AAe@ 100ae724     options.obj
 0002:0000e740       ??_C@_1CA@FIGILPCF@?$AAh?$AAa?$AAn?$AAd?$AAl?$AAe?$AA_?$AAc?$AAo?$AAm?$AAm?$AAa?$AAn?$AAd?$AAs@ 100ae740     options.obj
 0002:0000e760       ??_C@_1BM@IOCBKKLB@?$AAp?$AAl?$AAu?$AAg?$AAi?$AAn?$AA_?$AAp?$AAr?$AAe?$AAf?$AAi?$AAx@ 100ae760     options.obj
 0002:0000e77c       ??_C@_1BO@IEILHPMJ@?$AAm?$AAa?$AAx?$AA_?$AAc?$AAh?$AAe?$AAc?$AAk?$AA_?$AAs?$AAi?$AAz?$AAe@ 100ae77c     options.obj
 0002:0000e79c       ??_C@_1CM@CBFIHEKK@?$AAe?$AAx?$AAt?$AAr?$AAa?$AAc?$AAt?$AA_?$AAi?$AAg?$AAn?$AAo?$AAr?$AAe?$AA_@ 100ae79c     options.obj
 0002:0000e7c8       ??_C@_1CE@HIFCNFIN@?$AAe?$AAx?$AAt?$AAr?$AAa?$AAc?$AAt?$AA_?$AAo?$AAv?$AAe?$AAr?$AAw?$AAr?$AAi@ 100ae7c8     options.obj
 0002:0000e7ec       ??_C@_1CK@CPALOIJF@?$AAe?$AAx?$AAt?$AAr?$AAa?$AAc?$AAt?$AA_?$AAs?$AAe?$AAp?$AAa?$AAr?$AAa?$AAt@ 100ae7ec     options.obj
 0002:0000e818       ??_C@_1CC@JIDFBFJI@?$AAe?$AAx?$AAt?$AAr?$AAa?$AAc?$AAt?$AA_?$AAo?$AAp?$AAe?$AAn?$AA_?$AAd?$AAi@ 100ae818     options.obj
 0002:0000e83c       ??_C@_1CO@BOJMLONJ@?$AAu?$AAp?$AAd?$AAa?$AAt?$AAe?$AA_?$AAa?$AAr?$AAc?$AA_?$AAf?$AAo?$AAr?$AAm@ 100ae83c     options.obj
 0002:0000e86c       ??_C@_1BK@CGJCKDIP@?$AAu?$AAp?$AAd?$AAa?$AAt?$AAe?$AA_?$AAl?$AAe?$AAv?$AAe?$AAl@ 100ae86c     options.obj
 0002:0000e888       ??_C@_1BM@IKEOFPDG@?$AAu?$AAp?$AAd?$AAa?$AAt?$AAe?$AA_?$AAl?$AAe?$AAv?$AAe?$AAl?$AAs@ 100ae888     options.obj
 0002:0000e8a4       ??_C@_1BM@MDOLGGCE@?$AAu?$AAp?$AAd?$AAa?$AAt?$AAe?$AA_?$AAm?$AAe?$AAt?$AAh?$AAo?$AAd@ 100ae8a4     options.obj
 0002:0000e8c0       ??_C@_1BK@BADBIELM@?$AAu?$AAp?$AAd?$AAa?$AAt?$AAe?$AA_?$AAs?$AAo?$AAl?$AAi?$AAd@ 100ae8c0     options.obj
 0002:0000e8dc       ??_C@_1CA@BLMBLMOL@?$AAu?$AAp?$AAd?$AAa?$AAt?$AAe?$AA_?$AAa?$AAd?$AAv?$AAa?$AAn?$AAc?$AAe?$AAd@ 100ae8dc     options.obj
 0002:0000e8fc       ??_C@_1BO@OHNABIDK@?$AAu?$AAp?$AAd?$AAa?$AAt?$AAe?$AA_?$AAe?$AAn?$AAc?$AAr?$AAy?$AAp?$AAt@ 100ae8fc     options.obj
 0002:0000e91c       ??_C@_1CK@BCFJMECK@?$AAu?$AAp?$AAd?$AAa?$AAt?$AAe?$AA_?$AAs?$AAh?$AAo?$AAw?$AA_?$AAp?$AAa?$AAs@ 100ae91c     options.obj
 0002:0000e948       ??_C@_1CM@HPBKHKPI@?$AAu?$AAp?$AAd?$AAa?$AAt?$AAe?$AA_?$AAe?$AAn?$AAc?$AAr?$AAy?$AAp?$AAt?$AA_@ 100ae948     options.obj
 0002:0000e974       ??_C@_1CA@FGCOBLEE@?$AAu?$AAp?$AAd?$AAa?$AAt?$AAe?$AA_?$AAp?$AAa?$AAs?$AAs?$AAw?$AAo?$AAr?$AAd@ 100ae974     options.obj
 0002:0000e994       ??_C@_1CE@DJBPJNEE@?$AAu?$AAp?$AAd?$AAa?$AAt?$AAe?$AA_?$AAc?$AAr?$AAe?$AAa?$AAt?$AAe?$AA_?$AAs@ 100ae994     options.obj
 0002:0000e9b8       ??_C@_1CM@CHAOPLGB@?$AAu?$AAp?$AAd?$AAa?$AAt?$AAe?$AA_?$AAe?$AAn?$AAa?$AAb?$AAl?$AAe?$AA_?$AAv@ 100ae9b8     options.obj
 0002:0000e9e4       ??_C@_1CG@KICFKBBP@?$AAu?$AAp?$AAd?$AAa?$AAt?$AAe?$AA_?$AAv?$AAo?$AAl?$AAu?$AAm?$AAe?$AA_?$AAs@ 100ae9e4     options.obj
 0002:0000ea0c       ??_C@_1CE@NAAPDECD@?$AAu?$AAp?$AAd?$AAa?$AAt?$AAe?$AA_?$AAm?$AAo?$AAv?$AAe?$AA_?$AAf?$AAi?$AAl@ 100aea0c     options.obj
 0002:0000ea30       ??_C@_1CK@ICOFBPBC@?$AAu?$AAp?$AAd?$AAa?$AAt?$AAe?$AA_?$AAi?$AAg?$AAn?$AAo?$AAr?$AAe?$AA_?$AAe@ 100aea30     options.obj
 0002:0000ea5c       ??_C@_1CC@JJLCAMDI@?$AAu?$AAp?$AAd?$AAa?$AAt?$AAe?$AA_?$AAo?$AAv?$AAe?$AAr?$AAw?$AAr?$AAi?$AAt@ 100aea5c     options.obj
 0002:0000ea80       ??_C@_1CE@CFBHBNFH@?$AAu?$AAp?$AAd?$AAa?$AAt?$AAe?$AA_?$AAa?$AAp?$AAp?$AAe?$AAn?$AAd?$AA_?$AAe@ 100aea80     options.obj
 0002:0000eaa4       ??_C@_1CI@LDHPGHDF@?$AAo?$AAw?$AAn?$AA_?$AAp?$AAa?$AAn?$AAe?$AAl?$AA_?$AAv?$AAi?$AAe?$AAw?$AA_@ 100aeaa4     options.obj
 0002:0000eacc       ??_C@_1CA@BMEGBAGO@?$AAp?$AAa?$AAn?$AAe?$AAl?$AA_?$AAv?$AAi?$AAe?$AAw?$AA_?$AAm?$AAo?$AAd?$AAe@ 100aeacc     options.obj
 0002:0000eaec       ??_C@_1CA@FOAPJPME@?$AAp?$AAa?$AAn?$AAe?$AAl?$AA_?$AAs?$AAo?$AAr?$AAt?$AA_?$AAm?$AAo?$AAd?$AAe@ 100aeaec     options.obj
 0002:0000eb0c       ??_C@_1CG@IMENIFAM@?$AAp?$AAa?$AAn?$AAe?$AAl?$AA_?$AAr?$AAe?$AAv?$AAe?$AAr?$AAs?$AAe?$AA_?$AAs@ 100aeb0c     options.obj
 0002:0000eb34       ??_C@_1CE@JGFBPPBK@?$AAu?$AAs?$AAe?$AA_?$AAi?$AAn?$AAc?$AAl?$AAu?$AAd?$AAe?$AA_?$AAm?$AAa?$AAs@ 100aeb34     options.obj
 0002:0000eb58       ??_C@_1BM@KFJICIME@?$AAi?$AAn?$AAc?$AAl?$AAu?$AAd?$AAe?$AA_?$AAm?$AAa?$AAs?$AAk?$AAs@ 100aeb58     options.obj
 0002:0000eb74       ??_C@_1CE@IKFGFEP@?$AAu?$AAs?$AAe?$AA_?$AAe?$AAx?$AAc?$AAl?$AAu?$AAd?$AAe?$AA_?$AAm?$AAa?$AAs@ 100aeb74     options.obj
 0002:0000eb98       ??_C@_1BM@DLGMLCJB@?$AAe?$AAx?$AAc?$AAl?$AAu?$AAd?$AAe?$AA_?$AAm?$AAa?$AAs?$AAk?$AAs@ 100aeb98     options.obj
 0002:0000ebb4       ??_C@_1BG@EHDBJMPF@?$AAp?$AAg?$AAd?$AAn?$AA_?$AAm?$AAa?$AAs?$AAk?$AAs@ 100aebb4     options.obj
 0002:0000ebcc       ??_C@_1CI@EOKCLAPP@?$AAu?$AAs?$AAe?$AA_?$AAe?$AAn?$AAa?$AAb?$AAl?$AAe?$AAd?$AA_?$AAf?$AAo?$AAr@ 100aebcc     options.obj
 0002:0000ebf4       ??_C@_1CA@KFAHFAPB@?$AAe?$AAn?$AAa?$AAb?$AAl?$AAe?$AAd?$AA_?$AAf?$AAo?$AAr?$AAm?$AAa?$AAt?$AAs@ 100aebf4     options.obj
 0002:0000ec14       ??_C@_1CK@JLKPDPGC@?$AAu?$AAs?$AAe?$AA_?$AAd?$AAi?$AAs?$AAa?$AAb?$AAl?$AAe?$AAd?$AA_?$AAf?$AAo@ 100aec14     options.obj
 0002:0000ec40       ??_C@_1CC@KFCGBLDB@?$AAd?$AAi?$AAs?$AAa?$AAb?$AAl?$AAe?$AAd?$AA_?$AAf?$AAo?$AAr?$AAm?$AAa?$AAt@ 100aec40     options.obj
 0002:0000ec64       ??_C@_1BK@LLAIEAGG@?$AAp?$AAg?$AAd?$AAn?$AA_?$AAf?$AAo?$AAr?$AAm?$AAa?$AAt?$AAs@ 100aec64     options.obj
 0002:0000ec80       ??_C@_1O@CKCABMKB@?$AAs?$AAa?$AAv?$AAe?$AAC?$AAP@ 100aec80     options.obj
 0002:0000ec90       ??_C@_1M@OAANMHNH@?$AAo?$AAe?$AAm?$AAC?$AAP@ 100aec90     options.obj
 0002:0000ec9c       ??_C@_1O@GOOOKFBK@?$AAa?$AAn?$AAs?$AAi?$AAC?$AAP@ 100aec9c     options.obj
 0002:0000ecac       ??_C@_1CE@PDJEHHLN@?$AAc?$AAo?$AAr?$AAr?$AAe?$AAc?$AAt?$AA_?$AAn?$AAa?$AAm?$AAe?$AA_?$AAm?$AAo@ 100aecac     options.obj
 0002:0000ecd0       ??_C@_1BM@MNDMAIMM@?$AAq?$AAs?$AA_?$AAb?$AAy?$AA_?$AAd?$AAe?$AAf?$AAa?$AAu?$AAl?$AAt@ 100aecd0     options.obj
 0002:0000ecec       ??_C@_1BI@EHINFBH@?$AAs?$AAt?$AAr?$AAi?$AAc?$AAt?$AA_?$AAc?$AAa?$AAs?$AAe@ 100aecec     options.obj
 0002:0000ed04       ??_C@_1BC@DNIPBCFP@?$AAa?$AAr?$AAc?$AA_?$AAt?$AAy?$AAp?$AAe@ 100aed04     options.obj
 0002:0000ed18       ??_C@_1M@NNEKJJGI@?$AAl?$AAe?$AAv?$AAe?$AAl@ 100aed18     options.obj
 0002:0000ed24       ??_C@_1O@BENICBGF@?$AAm?$AAe?$AAt?$AAh?$AAo?$AAd@ 100aed24     options.obj
 0002:0000ed34       ??_C@_1M@OLOJLOFL@?$AAs?$AAo?$AAl?$AAi?$AAd@ 100aed34     options.obj
 0002:0000ed40       ??_C@_1BC@OMIPJNBO@?$AAp?$AAa?$AAs?$AAs?$AAw?$AAo?$AAr?$AAd@ 100aed40     options.obj
 0002:0000ed54       ??_C@_1BA@OGAKGFHO@?$AAe?$AAn?$AAc?$AAr?$AAy?$AAp?$AAt@ 100aed54     options.obj
 0002:0000ed64       ??_C@_1BO@KNNCBMKF@?$AAe?$AAn?$AAc?$AAr?$AAy?$AAp?$AAt?$AA_?$AAh?$AAe?$AAa?$AAd?$AAe?$AAr@ 100aed64     options.obj
 0002:0000ed84       ??_C@_1BG@OELPMCIK@?$AAc?$AAr?$AAe?$AAa?$AAt?$AAe?$AA_?$AAs?$AAf?$AAx@ 100aed84     options.obj
 0002:0000ed9c       ??_C@_1BO@PFMGJNDM@?$AAe?$AAn?$AAa?$AAb?$AAl?$AAe?$AA_?$AAv?$AAo?$AAl?$AAu?$AAm?$AAe?$AAs@ 100aed9c     options.obj
 0002:0000edbc       ??_C@_1BI@GIIMKBK@?$AAv?$AAo?$AAl?$AAu?$AAm?$AAe?$AA_?$AAs?$AAi?$AAz?$AAe@ 100aedbc     options.obj
 0002:0000edd4       ??_C@_1BG@NKPGLON@?$AAm?$AAo?$AAv?$AAe?$AA_?$AAf?$AAi?$AAl?$AAe?$AAs@ 100aedd4     options.obj
 0002:0000edec       ??_C@_1BM@NLHOIHKK@?$AAi?$AAg?$AAn?$AAo?$AAr?$AAe?$AA_?$AAe?$AAr?$AAr?$AAo?$AAr?$AAs@ 100aedec     options.obj
 0002:0000ee08       ??_C@_1BC@KBGADKLB@?$AAa?$AAd?$AAv?$AAa?$AAn?$AAc?$AAe?$AAd@ 100aee08     options.obj
 0002:0000ee1c       ??_C@_1BG@BBLLCINI@?$AAC?$AAo?$AAp?$AAy?$AAO?$AAp?$AAe?$AAn?$AAe?$AAd@ 100aee1c     options.obj
 0002:0000ee34       ??_C@_17FPIFMLJN@?$AAE?$AAs?$AAc@ 100aee34     options.obj
 0002:0000ee3c       ??_C@_0BJ@DHFDPMIM@invalid?5vector?5subscript@ 100aee3c     options.obj
 0002:0000ee5c       ??_7xml_parser@@6B@        100aee5c     options.obj
 0002:0000ee70       ??_7IParseCallback@SimpleXML@@6B@ 100aee70     options.obj
 0002:0000ee80       ??_C@_0BG@EOMJEIFA@vector?$DMbool?$DO?5too?5long@ 100aee80     msearch.obj
 0002:0000ee98       ??_C@_13HOIJIPNN@?$AA?5@   100aee98     attr.obj
 0002:0000ee9c       ??_C@_08IJFGBAA@attr?4cpp@ 100aee9c     attr.obj
 0002:0000eea8       ??_C@_08ENCNIKBI@test?4cpp@ 100aeea8     test.obj
 0002:0000eeb8       ??_7ArchiveTester@@6BProgressMonitor@@@ 100aeeb8     test.obj
 0002:0000eec4       ??_7ArchiveTester@@6BComBase@@@ 100aeec4     test.obj
 0002:0000eed8       ??_7ArchiveTester@@6BICryptoGetTextPassword@@@ 100aeed8     test.obj
 0002:0000eeec       ??_7ArchiveTester@@6BIArchiveExtractCallback@@@ 100aeeec     test.obj
 0002:0000ef0c       ??_C@_1CA@PMIEPGIA@?$AA?$CJ?$AA?5?$AAK?$AAe?$AAy?$AAs?$AA?$CI?$AA?8?$AAE?$AAn?$AAt?$AAe?$AAr?$AA?8?$AA?$CJ@ 100aef0c     common.obj
 0002:0000ef2c       ??_C@_1O@BBPMHPCD@?$AAp?$AAr?$AAi?$AAn?$AAt?$AA?$CI@ 100aef2c     common.obj
 0002:0000ef3c       ??_C@_0L@PIMMLIEG@common?4cpp@ 100aef3c     common.obj
 0002:0000ef48       ??_C@_1CI@FOKFAKOH@?$AA?$DL?$AA?$CB?$AA?$EA?$AAI?$AAn?$AAs?$AAt?$AAa?$AAl?$AAl?$AA?$EA?$AA?$CB?$AAU?$AAT?$AAF@ 100aef48     sfx.obj
 0002:0000ef70       ??_C@_15GLOEBKAF@?$AA?$CC?$AA?6@ 100aef70     sfx.obj
 0002:0000ef78       ??_C@_1BA@OLOEMDEM@?$AAT?$AAi?$AAt?$AAl?$AAe?$AA?$DN?$AA?$CC@ 100aef78     sfx.obj
 0002:0000ef88       ??_C@_1BM@GIJJCMLO@?$AAB?$AAe?$AAg?$AAi?$AAn?$AAP?$AAr?$AAo?$AAm?$AAp?$AAt?$AA?$DN?$AA?$CC@ 100aef88     sfx.obj
 0002:0000efa4       ??_C@_1BG@NCOBKEDJ@?$AAP?$AAr?$AAo?$AAg?$AAr?$AAe?$AAs?$AAs?$AA?$DN?$AA?$CC@ 100aefa4     sfx.obj
 0002:0000efbc       ??_C@_1BK@KFKMPGNC@?$AAR?$AAu?$AAn?$AAP?$AAr?$AAo?$AAg?$AAr?$AAa?$AAm?$AA?$DN?$AA?$CC@ 100aefbc     sfx.obj
 0002:0000efd8       ??_C@_1BI@LDJDHMHI@?$AAD?$AAi?$AAr?$AAe?$AAc?$AAt?$AAo?$AAr?$AAy?$AA?$DN?$AA?$CC@ 100aefd8     sfx.obj
 0002:0000eff0       ??_C@_1BM@GCHJMPFL@?$AAE?$AAx?$AAe?$AAc?$AAu?$AAt?$AAe?$AAF?$AAi?$AAl?$AAe?$AA?$DN?$AA?$CC@ 100aeff0     sfx.obj
 0002:0000f00c       ??_C@_1CI@KHPPDIK@?$AAE?$AAx?$AAe?$AAc?$AAu?$AAt?$AAe?$AAP?$AAa?$AAr?$AAa?$AAm?$AAe?$AAt?$AAe@ 100af00c     sfx.obj
 0002:0000f034       ??_C@_1CC@OAOKHGML@?$AA?$DL?$AA?$CB?$AA?$EA?$AAI?$AAn?$AAs?$AAt?$AAa?$AAl?$AAl?$AAE?$AAn?$AAd?$AA?$EA?$AA?$CB@ 100af034     sfx.obj
 0002:0000f058       ??_C@_07JLLJJILI@sfx?4cpp@ 100af058     sfx.obj
 0002:0000f060       ??_C@_1DM@BJNOLDOM@?$AAs?$AAf?$AAx?$AA_?$AAi?$AAd?$AA?5?$AA?$DM?$AA?5?$AAA?$AAr?$AAc?$AAA?$AAP?$AAI@ 100af060     sfx.obj
 0002:0000f0a0       ??_C@_1GG@NAMIJFA@?$AAd?$AAs?$AAt?$AA_?$AAf?$AAi?$AAl?$AAe?$AA?4?$AAw?$AAr?$AAi?$AAt?$AAe?$AA?$CI@ 100af0a0     sfx.obj
 0002:0000f108       ??_C@_17IHBDLLG@?$AAy?$AAe?$AAs@ 100af108     sfx.obj
 0002:0000f110       ??_C@_15BPIGNHCD@?$AAn?$AAo@ 100af110     sfx.obj
 0002:0000f118       ??_C@_1BG@HKPDLJKO@?$AAS?$AAf?$AAx?$AAO?$AAp?$AAt?$AAi?$AAo?$AAn?$AAs@ 100af118     sfx.obj
 0002:0000f130       ??_C@_1CE@CCMGPAPF@?$AAa?$AAr?$AAc?$AAl?$AAi?$AAt?$AAe?$AA?4?$AAi?$AAc?$AAo?$AAn?$AA_?$AAp?$AAa@ 100af130     sfx.obj
 0002:0000f158       ??_7SfxOptionsDialog@@6B@  100af158     sfx.obj
 0002:0000f160       ??_7AttachSfxModuleProgress@@6B@ 100af160     sfx.obj
 0002:0000f168       ??_C@_13PHCIHIAO@?$AAc@    100af168     cmdline.obj
 0002:0000f16c       ??_C@_13ICFKHAEN@?$AAu@    100af16c     cmdline.obj
 0002:0000f170       ??_C@_13NCEDCHNC@?$AAe@    100af170     cmdline.obj
 0002:0000f174       ??_C@_13GKPPEALH@?$AAd@    100af174     cmdline.obj
 0002:0000f178       ??_C@_13DKOGBHCI@?$AAt@    100af178     cmdline.obj
 0002:0000f17c       ??_C@_0M@ECEFEAAC@cmdline?4cpp@ 100af17c     cmdline.obj
 0002:0000f188       ??_C@_13FHBKNHDA@?$AAC@    100af188     cmdline.obj
 0002:0000f18c       ??_C@_13CCGINPHD@?$AAU@    100af18c     cmdline.obj
 0002:0000f190       ??_C@_13NAACAHKO@?$AAX@    100af190     cmdline.obj
 0002:0000f194       ??_C@_13HCHBIIOM@?$AAE@    100af194     cmdline.obj
 0002:0000f198       ??_C@_13MKMNOPIJ@?$AAD@    100af198     cmdline.obj
 0002:0000f19c       ??_C@_13JKNELIBG@?$AAT@    100af19c     cmdline.obj
 0002:0000f1a0       ??_C@_13MIIMMPPF@?$AAy@    100af1a0     cmdline.obj
 0002:0000f1a4       ??_C@_13FECKAND@?$AAn@     100af1a4     cmdline.obj
 0002:0000f1a8       ??_C@_13FNCBLAIF@?$AAa@    100af1a8     cmdline.obj
 0002:0000f1ac       ??_C@_13LFIEIAHP@?$AAp@    100af1ac     cmdline.obj
 0002:0000f1b0       ??_C@_19NNMOHCMN@?$AAl?$AAz?$AAm?$AAa@ 100af1b0     cmdline.obj
 0002:0000f1bc       ??_C@_1M@JKHNFEPH@?$AAl?$AAz?$AAm?$AAa?$AA2@ 100af1bc     cmdline.obj
 0002:0000f1c8       ??_C@_19EGECPPFB@?$AAp?$AAp?$AAm?$AAd@ 100af1c8     cmdline.obj
 0002:0000f1d4       ??_C@_15IECJDLIK@?$AAp?$AAr@ 100af1d4     cmdline.obj
 0002:0000f1dc       ??_C@_13KPELGIFI@?$AAl@    100af1dc     cmdline.obj
 0002:0000f1e0       ??_C@_13BHPHAPDN@?$AAm@    100af1e0     cmdline.obj
 0002:0000f1e4       ??_C@_15OIJGBPFJ@?$AAe?$AAh@ 100af1e4     cmdline.obj
 0002:0000f1ec       ??_C@_17MICENCNB@?$AAs?$AAf?$AAx@ 100af1ec     cmdline.obj
 0002:0000f1f4       ??_C@_13JAOPNPKD@?$AAv@    100af1f4     cmdline.obj
 0002:0000f1f8       ??_C@_15OEBKOKAH@?$AAm?$AAf@ 100af1f8     cmdline.obj
 0002:0000f200       ??_C@_15GNDOAHPP@?$AAi?$AAe@ 100af200     cmdline.obj
 0002:0000f208       ??_C@_13LNPOMHLG@?$AAo@    100af208     cmdline.obj
 0002:0000f20c       ??_C@_17FLKNDCLP@?$AAa?$AAd?$AAv@ 100af20c     cmdline.obj
 0002:0000f214       ??_C@_15KHFHDPFH@?$AA?9?$AA?9@ 100af214     cmdline.obj
 0002:0000f21c       ??_C@_13BPINEIPE@?$AAr@    100af21c     cmdline.obj
 0002:0000f220       ??_C@_15HHMPEBGH@?$AAs?$AAd@ 100af220     cmdline.obj
 0002:0000f228       ??_C@_15FOMCIDHG@?$AAd?$AAa@ 100af228     cmdline.obj
 0002:0000f230       ??_C@_17CMKEDJDI@?$AAo?$AAu?$AAt@ 100af230     cmdline.obj
 0002:0000f238       ??_C@_08DMEHPCKJ@rsrc?4cpp@ 100af238     rsrc.obj
 0002:0000f248       ??_C@_1GK@MOFBPDLL@?$AAe?$AAn?$AAt?$AAr?$AAy?$AA?4?$AAi?$AAm?$AAa?$AAg?$AAe?$AA_?$AAo?$AAf?$AAf@ 100af248     rsrc.obj
 0002:0000f2b4       ??_C@_1CA@FOECMPGO@?$AAV?$AAS?$AA_?$AAV?$AAE?$AAR?$AAS?$AAI?$AAO?$AAN?$AA_?$AAI?$AAN?$AAF?$AAO@ 100af2b4     rsrc.obj
 0002:0000f2d4       ??_C@_1BO@PBBNDBNF@?$AAS?$AAt?$AAr?$AAi?$AAn?$AAg?$AAF?$AAi?$AAl?$AAe?$AAI?$AAn?$AAf?$AAo@ 100af2d4     rsrc.obj
 0002:0000f2f4       ??_C@_19MABGBOMG@?$AA0?$AA4?$AAb?$AA0@ 100af2f4     rsrc.obj
 0002:0000f300       ??_C@_1BC@OJAINIIB@?$AAC?$AAo?$AAm?$AAm?$AAe?$AAn?$AAt?$AAs@ 100af300     rsrc.obj
 0002:0000f314       ??_C@_1BI@KBKGFMKH@?$AAC?$AAo?$AAm?$AAp?$AAa?$AAn?$AAy?$AAN?$AAa?$AAm?$AAe@ 100af314     rsrc.obj
 0002:0000f32c       ??_C@_1CA@JGBAIPOO@?$AAF?$AAi?$AAl?$AAe?$AAD?$AAe?$AAs?$AAc?$AAr?$AAi?$AAp?$AAt?$AAi?$AAo?$AAn@ 100af32c     rsrc.obj
 0002:0000f34c       ??_C@_1BI@HCCAONKE@?$AAF?$AAi?$AAl?$AAe?$AAV?$AAe?$AAr?$AAs?$AAi?$AAo?$AAn@ 100af34c     rsrc.obj
 0002:0000f364       ??_C@_1BO@DAFANMIE@?$AAL?$AAe?$AAg?$AAa?$AAl?$AAC?$AAo?$AAp?$AAy?$AAr?$AAi?$AAg?$AAh?$AAt@ 100af364     rsrc.obj
 0002:0000f384       ??_C@_1BI@CJGIOPAN@?$AAP?$AAr?$AAo?$AAd?$AAu?$AAc?$AAt?$AAN?$AAa?$AAm?$AAe@ 100af384     rsrc.obj
 0002:0000f39c       ??_C@_1BO@OKEPMKJE@?$AAP?$AAr?$AAo?$AAd?$AAu?$AAc?$AAt?$AAV?$AAe?$AAr?$AAs?$AAi?$AAo?$AAn@ 100af39c     rsrc.obj
 0002:0000f3bc       ??_C@_1BI@LJHFMFCG@?$AAV?$AAa?$AAr?$AAF?$AAi?$AAl?$AAe?$AAI?$AAn?$AAf?$AAo@ 100af3bc     rsrc.obj
 0002:0000f3d4       ??_C@_1BI@OMFAJHAK@?$AAT?$AAr?$AAa?$AAn?$AAs?$AAl?$AAa?$AAt?$AAi?$AAo?$AAn@ 100af3d4     rsrc.obj
 0002:0000f3ec       ??_C@_0N@NEKDJBOO@farutils?4cpp@ 100af3ec     farutils.obj
 0002:0000f400       ??_C@_1GM@ELBBCICA@?$AAs?$AAi?$AAz?$AAe?$AA?5?$AA?$DO?$AA?$DN?$AA?5?$AAs?$AAi?$AAz?$AAe?$AAo?$AAf?$AA?$CI@ 100af400     farutils.obj
 0002:0000f46c       ??_C@_1CG@GFKBHPGN@?$AAs?$AAi?$AAz?$AAe?$AA?5?$AA?$DN?$AA?$DN?$AA?5?$AAb?$AAu?$AAf?$AA?4?$AAs?$AAi?$AAz@ 100af46c     farutils.obj
 0002:0000f494       ??_C@_15FEDGKCDI@?$AAr?$AAu@ 100af494     farutils.obj
 0002:0000f4a0       ??_7Dialog@Far@@6B@        100af4a0     farutils.obj
 0002:0000f4b4       ??_C@_15LEKKCGMK@?$AA?2?$AA?2@ 100af4b4     pathutils.obj
 0002:0000f4bc       ??_C@_15DKMKFLDO@?$AA?$DP?$AA?2@ 100af4bc     pathutils.obj
 0002:0000f4c4       ??_C@_15PCEAIKAA@?$AA?4?$AA?2@ 100af4c4     pathutils.obj
 0002:0000f4cc       ??_C@_1BA@BFGBFLGI@?$AA?2?$AA?2?$AA?$DP?$AA?2?$AAU?$AAN?$AAC@ 100af4cc     pathutils.obj
 0002:0000f4dc       ??_C@_19MJCDBCKE@?$AA?2?$AA?2?$AA?$DP?$AA?2@ 100af4dc     pathutils.obj
 0002:0000f4e8       ??_C@_1O@IBEKDEPM@?$AA?$DP?$AA?2?$AAU?$AAN?$AAC?$AA?2@ 100af4e8     pathutils.obj
 0002:0000f4f8       ??_C@_15GKAHMKIN@?$AA?3?$AA?2@ 100af4f8     pathutils.obj
 0002:0000f500       ??_C@_17LIAKHCCP@?$AAC?$AAO?$AAN@ 100af500     pathutils.obj
 0002:0000f508       ??_C@_17PFHGFFKC@?$AAP?$AAR?$AAN@ 100af508     pathutils.obj
 0002:0000f510       ??_C@_17CNBAFMOM@?$AAA?$AAU?$AAX@ 100af510     pathutils.obj
 0002:0000f518       ??_C@_17CLELIOII@?$AAN?$AAU?$AAL@ 100af518     pathutils.obj
 0002:0000f520       ??_C@_19KHKAFFPC@?$AAC?$AAO?$AAM?$AA9@ 100af520     pathutils.obj
 0002:0000f52c       ??_C@_19NHOJHOKL@?$AAL?$AAP?$AAT?$AA9@ 100af52c     pathutils.obj
 0002:0000f538       ??_C@_17LGKOMLJ@?$AA?4?$AA?4?$AA?4@ 100af538     strutils.obj
 0002:0000f540       ??_C@_1BA@MDJFAEBM@?$AAw?$AAi?$AAn?$AAh?$AAt?$AAt?$AAp@ 100af540     sysutils.obj
 0002:0000f550       ??_C@_13DIBMAFH@?$AA?$CJ@  100af550     sysutils.obj
 0002:0000f554       ??_C@_19NDEKGCGE@?$AA?5?$AA?$CI?$AA0?$AAx@ 100af554     sysutils.obj
 0002:0000f560       ??_C@_1BI@EPLLDPGF@?$AAH?$AAR?$AAE?$AAS?$AAU?$AAL?$AAT?$AA?3?$AA?5?$AA0?$AAx@ 100af560     sysutils.obj
 0002:0000f578       ??_C@_0N@LGBBMAOF@sysutils?4cpp@ 100af578     sysutils.obj
 0002:0000f588       ??_C@_1CE@MHDMOOMJ@?$AAl?$AAe?$AAn?$AA?5?$AA?$DM?$AA?$DN?$AA?5?$AAb?$AAu?$AAf?$AA?4?$AAs?$AAi?$AAz?$AAe@ 100af588     sysutils.obj
 0002:0000f5ac       ??_C@_1CG@EKGDMFPK@?$AAs?$AAi?$AAz?$AAe?$AA?5?$AA?$DM?$AA?5?$AAp?$AAa?$AAt?$AAh?$AA?4?$AAs?$AAi?$AAz@ 100af5ac     sysutils.obj
 0002:0000f5d8       ??_7CriticalSection@@6B@   100af5d8     sysutils.obj
 0002:0000f630       ??_C@_03PKPBNCAL@?o?$LL?$LP@ 100af630     SimpleXML.obj
 0002:0000f634       ??_C@_06CMNLMIOJ@?$DM?$DPxml?5@ 100af634     SimpleXML.obj
 0002:0000f63c       ??_C@_04FFDNBKGC@?$DM?$CB?9?9@ 100af63c     SimpleXML.obj
 0002:0000f644       ??_C@_09BLLNCBLF@?$DM?$CB?$FLCDATA?$FL@ 100af644     SimpleXML.obj
 0002:0000f650       ??_C@_09PHEMGOEJ@?$DM?$CBDOCTYPE@ 100af650     SimpleXML.obj
 0002:0000f65c       ??_C@_0O@NLDKAIKN@EncodePointer@ 100af65c     vc_crt_fix_impl.obj
 0002:0000f66c       ??_C@_0O@KBPMFGHI@DecodePointer@ 100af66c     vc_crt_fix_impl.obj
 0002:0000f67c       ??_C@_0BD@GIGEJCNH@GetModuleHandleExW@ 100af67c     vc_crt_fix_impl.obj
 0002:0000f690       ??_C@_0BE@NBEJPEJA@InitializeSListHead@ 100af690     vc_crt_fix_impl.obj
 0002:0000f6a4       ??_C@_0BG@PLLPFLHB@InterlockedFlushSList@ 100af6a4     vc_crt_fix_impl.obj
 0002:0000f6bc       ??_C@_0BJ@PNEEKDOK@InterlockedPopEntrySList@ 100af6bc     vc_crt_fix_impl.obj
 0002:0000f6d8       ??_C@_0BK@JFGGAIOA@InterlockedPushEntrySList@ 100af6d8     vc_crt_fix_impl.obj
 0002:0000f6f4       ??_C@_0BL@FOECAEGO@InterlockedPushListSListEx@ 100af6f4     vc_crt_fix_impl.obj
 0002:0000f710       ??_C@_0BD@FHMMIGCI@RtlFirstEntrySList@ 100af710     vc_crt_fix_impl.obj
 0002:0000f724       ??_C@_0BA@FGPHPMJB@QueryDepthSList@ 100af724     vc_crt_fix_impl.obj
 0002:0000f734       ??_C@_0BJ@NLNFLAMA@GetNumaHighestNodeNumber@ 100af734     vc_crt_fix_impl.obj
 0002:0000f750       ??_C@_0BP@KHGALBC@GetLogicalProcessorInformation@ 100af750     vc_crt_fix_impl.obj
 0002:0000f770       ??_C@_0BI@BKLFFAPO@SetThreadStackGuarantee@ 100af770     vc_crt_fix_impl.obj
 0002:0000f788       __real@3fe0000000000000    100af788     common.obj
 0002:0000f790       __real@4008000000000000    100af790     ui.obj
 0002:0000f798       __real@404e000000000000    100af798     farutils.obj
 0002:0000f7a0       __real@4059000000000000    100af7a0     common.obj
 0002:0000f7a8       __real@41f0000000000000    100af7a8     extract.obj
 0002:0000f7b0       __real@4202a05f20000000    100af7b0     ui.obj
 0002:0000f7b8       __real@43e0000000000000    100af7b8     update.obj
 0002:0000f7c0       __real@7fefffffffffffff    100af7c0     ui.obj
 0002:0000f7f0       __load_config_used         100af7f0     LIBCMT:loadcfg.obj
 0002:0000f894       ??_R4logic_error@std@@6B@  100af894     libcpmt:xthrow.obj
 0002:0000f8a8       ??_R3logic_error@std@@8    100af8a8     libcpmt:xthrow.obj
 0002:0000f8b8       ??_R2logic_error@std@@8    100af8b8     libcpmt:xthrow.obj
 0002:0000f8c4       ??_R1A@?0A@EA@logic_error@std@@8 100af8c4     libcpmt:xthrow.obj
 0002:0000f8e0       ??_R4length_error@std@@6B@ 100af8e0     libcpmt:xthrow.obj
 0002:0000f8f4       ??_R3length_error@std@@8   100af8f4     libcpmt:xthrow.obj
 0002:0000f904       ??_R2length_error@std@@8   100af904     libcpmt:xthrow.obj
 0002:0000f914       ??_R1A@?0A@EA@length_error@std@@8 100af914     libcpmt:xthrow.obj
 0002:0000f930       ??_R4out_of_range@std@@6B@ 100af930     libcpmt:xthrow.obj
 0002:0000f944       ??_R3out_of_range@std@@8   100af944     libcpmt:xthrow.obj
 0002:0000f954       ??_R2out_of_range@std@@8   100af954     libcpmt:xthrow.obj
 0002:0000f964       ??_R1A@?0A@EA@out_of_range@std@@8 100af964     libcpmt:xthrow.obj
 0002:0000f980       ??_R4_Locimp@locale@std@@6B@ 100af980     libcpmt:locale0.obj
 0002:0000f994       ??_R3_Locimp@locale@std@@8 100af994     libcpmt:locale0.obj
 0002:0000f9a4       ??_R2_Locimp@locale@std@@8 100af9a4     libcpmt:locale0.obj
 0002:0000f9b8       ??_R1A@?0A@EA@_Locimp@locale@std@@8 100af9b8     libcpmt:locale0.obj
 0002:0000f9d4       ??_R4type_info@@6B@        100af9d4     LIBCMT:std_type_info_static.obj
 0002:0000f9e8       ??_R3type_info@@8          100af9e8     LIBCMT:std_type_info_static.obj
 0002:0000f9f8       ??_R2type_info@@8          100af9f8     LIBCMT:std_type_info_static.obj
 0002:0000fa00       ??_R1A@?0A@EA@type_info@@8 100afa00     LIBCMT:std_type_info_static.obj
 0002:0000fa1c       ??_R4bad_typeid@std@@6B@   100afa1c     libvcruntime:rtti.obj
 0002:0000fa30       ??_R3bad_typeid@std@@8     100afa30     libvcruntime:rtti.obj
 0002:0000fa40       ??_R2bad_typeid@std@@8     100afa40     libvcruntime:rtti.obj
 0002:0000fa4c       ??_R1A@?0A@EA@bad_typeid@std@@8 100afa4c     libvcruntime:rtti.obj
 0002:0000fa68       ??_R4__non_rtti_object@std@@6B@ 100afa68     libvcruntime:rtti.obj
 0002:0000fa7c       ??_R3__non_rtti_object@std@@8 100afa7c     libvcruntime:rtti.obj
 0002:0000fa8c       ??_R2__non_rtti_object@std@@8 100afa8c     libvcruntime:rtti.obj
 0002:0000fa9c       ??_R1A@?0A@EA@__non_rtti_object@std@@8 100afa9c     libvcruntime:rtti.obj
 0002:0000fab8       ??_R4bad_exception@std@@6B@ 100afab8     libvcruntime:frame.obj
 0002:0000facc       ??_R3bad_exception@std@@8  100afacc     libvcruntime:frame.obj
 0002:0000fadc       ??_R2bad_exception@std@@8  100afadc     libvcruntime:frame.obj
 0002:0000fae8       ??_R1A@?0A@EA@bad_exception@std@@8 100afae8     libvcruntime:frame.obj
 0002:0000fb04       ??_R3DNameNode@@8          100afb04     libvcruntime:undname.obj
 0002:0000fb14       ??_R2DNameNode@@8          100afb14     libvcruntime:undname.obj
 0002:0000fb1c       ??_R1A@?0A@EA@DNameNode@@8 100afb1c     libvcruntime:undname.obj
 0002:0000fb38       ??_R4charNode@@6B@         100afb38     libvcruntime:undname.obj
 0002:0000fb4c       ??_R3charNode@@8           100afb4c     libvcruntime:undname.obj
 0002:0000fb5c       ??_R2charNode@@8           100afb5c     libvcruntime:undname.obj
 0002:0000fb68       ??_R1A@?0A@EA@charNode@@8  100afb68     libvcruntime:undname.obj
 0002:0000fb84       ??_R4pcharNode@@6B@        100afb84     libvcruntime:undname.obj
 0002:0000fb98       ??_R3pcharNode@@8          100afb98     libvcruntime:undname.obj
 0002:0000fba8       ??_R2pcharNode@@8          100afba8     libvcruntime:undname.obj
 0002:0000fbb4       ??_R1A@?0A@EA@pcharNode@@8 100afbb4     libvcruntime:undname.obj
 0002:0000fbd0       ??_R4pDNameNode@@6B@       100afbd0     libvcruntime:undname.obj
 0002:0000fbe4       ??_R3pDNameNode@@8         100afbe4     libvcruntime:undname.obj
 0002:0000fbf4       ??_R2pDNameNode@@8         100afbf4     libvcruntime:undname.obj
 0002:0000fc00       ??_R1A@?0A@EA@pDNameNode@@8 100afc00     libvcruntime:undname.obj
 0002:0000fc1c       ??_R4DNameStatusNode@@6B@  100afc1c     libvcruntime:undname.obj
 0002:0000fc30       ??_R3DNameStatusNode@@8    100afc30     libvcruntime:undname.obj
 0002:0000fc40       ??_R2DNameStatusNode@@8    100afc40     libvcruntime:undname.obj
 0002:0000fc4c       ??_R1A@?0A@EA@DNameStatusNode@@8 100afc4c     libvcruntime:undname.obj
 0002:0000fc68       ??_R4pairNode@@6B@         100afc68     libvcruntime:undname.obj
 0002:0000fc7c       ??_R3pairNode@@8           100afc7c     libvcruntime:undname.obj
 0002:0000fc8c       ??_R2pairNode@@8           100afc8c     libvcruntime:undname.obj
 0002:0000fc98       ??_R1A@?0A@EA@pairNode@@8  100afc98     libvcruntime:undname.obj
 0002:0000fcb4       ??_R2MyCompressCodecsInfo@@8 100afcb4     archive.obj
 0002:0000fcd4       ??_R2ComBase@@8            100afcd4     archive.obj
 0002:0000fce0       ??_R2IHashers@@8           100afce0     archive.obj
 0002:0000fcec       ??_R2ICompressCodecsInfo@@8 100afcec     archive.obj
 0002:0000fcf8       ??_R2IUnknown@@8           100afcf8     archive.obj
 0002:0000fd00       ??_R17?0A@EL@IUnknown@@8   100afd00     archive.obj
 0002:0000fd1c       ??_R17?0A@EN@ComBase@@8    100afd1c     archive.obj
 0002:0000fd38       ??_R13?0A@EC@IUnknown@@8   100afd38     archive.obj
 0002:0000fd54       ??_R13?0A@EA@IHashers@@8   100afd54     archive.obj
 0002:0000fd70       ??_R1A@?0A@EC@IUnknown@@8  100afd70     archive.obj
 0002:0000fd8c       ??_R1A@?0A@EA@MyCompressCodecsInfo@@8 100afd8c     archive.obj
 0002:0000fda8       ??_R1A@?0A@EA@ComBase@@8   100afda8     archive.obj
 0002:0000fdc4       ??_R1A@?0A@EA@IHashers@@8  100afdc4     archive.obj
 0002:0000fde0       ??_R1A@?0A@EA@ICompressCodecsInfo@@8 100afde0     archive.obj
 0002:0000fdfc       ??_R1A@?0A@EA@IUnknown@@8  100afdfc     archive.obj
 0002:0000fe18       ??_R3MyCompressCodecsInfo@@8 100afe18     archive.obj
 0002:0000fe28       ??_R3ComBase@@8            100afe28     archive.obj
 0002:0000fe38       ??_R3IHashers@@8           100afe38     archive.obj
 0002:0000fe48       ??_R3ICompressCodecsInfo@@8 100afe48     archive.obj
 0002:0000fe58       ??_R3IUnknown@@8           100afe58     archive.obj
 0002:0000fe68       ??_R4MyCompressCodecsInfo@@6BComBase@@@ 100afe68     archive.obj
 0002:0000fe7c       ??_R4MyCompressCodecsInfo@@6BIHashers@@@ 100afe7c     archive.obj
 0002:0000fe90       ??_R4MyCompressCodecsInfo@@6BICompressCodecsInfo@@@ 100afe90     archive.obj
 0002:0000fea4       ??_R4ComBase@@6B@          100afea4     archive.obj
 0002:0000feb8       ??_R4IHashers@@6B@         100afeb8     archive.obj
 0002:0000fecc       ??_R1A@?0A@EA@bad_array_new_length@std@@8 100afecc     archive.obj
 0002:0000fee8       ??_R2bad_array_new_length@std@@8 100afee8     archive.obj
 0002:0000fef8       ??_R3bad_array_new_length@std@@8 100afef8     archive.obj
 0002:0000ff08       ??_R4bad_array_new_length@std@@6B@ 100aff08     archive.obj
 0002:0000ff1c       ??_R1A@?0A@EA@bad_alloc@std@@8 100aff1c     archive.obj
 0002:0000ff38       ??_R2bad_alloc@std@@8      100aff38     archive.obj
 0002:0000ff44       ??_R3bad_alloc@std@@8      100aff44     archive.obj
 0002:0000ff54       ??_R4bad_alloc@std@@6B@    100aff54     archive.obj
 0002:0000ff68       ??_R1A@?0A@EA@exception@std@@8 100aff68     archive.obj
 0002:0000ff84       ??_R2exception@std@@8      100aff84     archive.obj
 0002:0000ff8c       ??_R3exception@std@@8      100aff8c     archive.obj
 0002:0000ff9c       ??_R4exception@std@@6B@    100aff9c     archive.obj
 0002:0000ffbc       ??_R2?$_Ref_count@V?$list@UError@@V?$allocator@UError@@@std@@@std@@@std@@8 100affbc     plugin.obj
 0002:0000ffc8       ??_R2?$_Ref_count@VArchive@@@std@@8 100affc8     plugin.obj
 0002:0000ffd4       ??_R2PluginPanelItems@?1??extract@Plugin@@QAEXXZ@8 100affd4     plugin.obj
 0002:0000ffe0       ??_R2PluginPanelItems@?1??get_files@Plugin@@QAEXPBUPluginPanelItem@@HHPAPB_W_K@Z@8 100affe0     plugin.obj
 0002:0000ffec       ??_R2PluginPanelItemAccessor@Plugin@@8 100affec     plugin.obj
 0002:00010010       ??_R1A@?0A@EA@?$_Ref_count@V?$list@UError@@V?$allocator@UError@@@std@@@std@@@std@@8 100b0010     plugin.obj
 0002:0001002c       ??_R2_Ref_count_base@std@@8 100b002c     plugin.obj
 0002:00010034       ??_R3_Ref_count_base@std@@8 100b0034     plugin.obj
 0002:00010044       ??_R1A@?0A@EA@_Ref_count_base@std@@8 100b0044     plugin.obj
 0002:00010060       ??_R1A@?0A@EA@?$_Ref_count@VArchive@@@std@@8 100b0060     plugin.obj
 0002:0001007c       ??_R1A@?0A@EA@PluginPanelItems@?1??extract@Plugin@@QAEXXZ@8 100b007c     plugin.obj
 0002:00010098       ??_R1A@?0A@EA@PluginPanelItems@?1??get_files@Plugin@@QAEXPBUPluginPanelItem@@HHPAPB_W_K@Z@8 100b0098     plugin.obj
 0002:000100b4       ??_R1A@?0A@EA@PluginPanelItemAccessor@Plugin@@8 100b00b4     plugin.obj
 0002:000100e0       ??_R3?$_Ref_count@V?$list@UError@@V?$allocator@UError@@@std@@@std@@@std@@8 100b00e0     plugin.obj
 0002:000100f0       ??_R3?$_Ref_count@VArchive@@@std@@8 100b00f0     plugin.obj
 0002:00010100       ??_R3PluginPanelItems@?1??extract@Plugin@@QAEXXZ@8 100b0100     plugin.obj
 0002:00010110       ??_R3PluginPanelItems@?1??get_files@Plugin@@QAEXPBUPluginPanelItem@@HHPAPB_W_K@Z@8 100b0110     plugin.obj
 0002:00010120       ??_R3PluginPanelItemAccessor@Plugin@@8 100b0120     plugin.obj
 0002:00010144       ??_R4?$_Ref_count@V?$list@UError@@V?$allocator@UError@@@std@@@std@@@std@@6B@ 100b0144     plugin.obj
 0002:00010158       ??_R4?$_Ref_count@VArchive@@@std@@6B@ 100b0158     plugin.obj
 0002:0001016c       ??_R4PluginPanelItems@?1??extract@Plugin@@QAEXXZ@6B@ 100b016c     plugin.obj
 0002:00010180       ??_R4PluginPanelItems@?1??get_files@Plugin@@QAEXPBUPluginPanelItem@@HHPAPB_W_K@Z@6B@ 100b0180     plugin.obj
 0002:00010194       ??_R2?$_Ref_count@VFileFilter@Far@@@std@@8 100b0194     ui.obj
 0002:000101a0       ??_R2?$numpunct@_W@std@@8  100b01a0     ui.obj
 0002:000101b4       ??_R2AttrDialog@@8         100b01b4     ui.obj
 0002:000101c0       ??_R2SettingsDialog@@8     100b01c0     ui.obj
 0002:000101cc       ??_R2FormatLibraryInfoDialog@@8 100b01cc     ui.obj
 0002:000101d8       ??_R2MultiSelectDialog@@8  100b01d8     ui.obj
 0002:000101e4       ??_R2UpdateDialog@@8       100b01e4     ui.obj
 0002:000101f0       ??_R2?$num_put@_WV?$ostreambuf_iterator@_WU?$char_traits@_W@std@@@std@@@std@@8 100b01f0     ui.obj
 0002:00010204       ??_R2ExtractDialog@@8      100b0204     ui.obj
 0002:00010210       ??_R2OverwriteDialog@@8    100b0210     ui.obj
 0002:0001021c       ??_R2PasswordDialog@@8     100b021c     ui.obj
 0002:00010228       ??_R2Dialog@Far@@8         100b0228     ui.obj
 0002:00010230       ??_R2ProgressMonitor@@8    100b0230     ui.obj
 0002:0001023c       ??_R2NonCopyable@@8        100b023c     ui.obj
 0002:00010244       ??_R2?$basic_ostringstream@_WU?$char_traits@_W@std@@V?$allocator@_W@2@@std@@8 100b0244     ui.obj
 0002:0001025c       ??_R2?$basic_stringbuf@_WU?$char_traits@_W@std@@V?$allocator@_W@2@@std@@8 100b025c     ui.obj
 0002:00010268       ??_R2?$basic_ostream@_WU?$char_traits@_W@std@@@std@@8 100b0268     ui.obj
 0002:0001027c       ??_R2?$basic_streambuf@_WU?$char_traits@_W@std@@@std@@8 100b027c     ui.obj
 0002:00010284       ??_R2?$basic_ios@_WU?$char_traits@_W@std@@@std@@8 100b0284     ui.obj
 0002:00010294       ??_R1A@?0A@EA@?$_Ref_count@VFileFilter@Far@@@std@@8 100b0294     ui.obj
 0002:000102b0       ??_R1A@?0A@EA@?$numpunct@_W@std@@8 100b02b0     ui.obj
 0002:000102cc       ??_R1A@?0A@EA@AttrDialog@@8 100b02cc     ui.obj
 0002:000102e8       ??_R1A@?0A@EA@SettingsDialog@@8 100b02e8     ui.obj
 0002:00010304       ??_R1A@?0A@EA@FormatLibraryInfoDialog@@8 100b0304     ui.obj
 0002:00010320       ??_R1A@?0A@EA@MultiSelectDialog@@8 100b0320     ui.obj
 0002:0001033c       ??_R1A@?0A@EA@UpdateDialog@@8 100b033c     ui.obj
 0002:00010358       ??_R1A@?0A@EA@?$num_put@_WV?$ostreambuf_iterator@_WU?$char_traits@_W@std@@@std@@@std@@8 100b0358     ui.obj
 0002:00010374       ??_R1A@?0A@EA@ExtractDialog@@8 100b0374     ui.obj
 0002:00010390       ??_R1A@?0A@EA@OverwriteDialog@@8 100b0390     ui.obj
 0002:000103ac       ??_R1A@?0A@EA@PasswordDialog@@8 100b03ac     ui.obj
 0002:000103c8       ??_R1A@?0A@EA@Dialog@Far@@8 100b03c8     ui.obj
 0002:000103e4       ??_R17?0A@EN@NonCopyable@@8 100b03e4     ui.obj
 0002:00010400       ??_R1A@?0A@EA@ProgressMonitor@@8 100b0400     ui.obj
 0002:0001041c       ??_R1A@?0A@EA@NonCopyable@@8 100b041c     ui.obj
 0002:00010438       ??_R1A@?0A@EA@?$basic_ostringstream@_WU?$char_traits@_W@std@@V?$allocator@_W@2@@std@@8 100b0438     ui.obj
 0002:00010454       ??_R1A@?0A@EA@?$basic_stringbuf@_WU?$char_traits@_W@std@@V?$allocator@_W@2@@std@@8 100b0454     ui.obj
 0002:00010470       ??_R17A@3EA@?$_Iosb@H@std@@8 100b0470     ui.obj
 0002:0001048c       ??_R1A@A@3EA@ios_base@std@@8 100b048c     ui.obj
 0002:000104a8       ??_R1A@A@3FA@?$basic_ios@_WU?$char_traits@_W@std@@@std@@8 100b04a8     ui.obj
 0002:000104c4       ??_R1A@?0A@EA@?$basic_ostream@_WU?$char_traits@_W@std@@@std@@8 100b04c4     ui.obj
 0002:000104e0       ??_R1A@?0A@EA@?$basic_streambuf@_WU?$char_traits@_W@std@@@std@@8 100b04e0     ui.obj
 0002:000104fc       ??_R1A@?0A@EA@?$basic_ios@_WU?$char_traits@_W@std@@@std@@8 100b04fc     ui.obj
 0002:00010518       ??_R3?$_Ref_count@VFileFilter@Far@@@std@@8 100b0518     ui.obj
 0002:00010528       ??_R3?$numpunct@_W@std@@8  100b0528     ui.obj
 0002:00010538       ??_R3AttrDialog@@8         100b0538     ui.obj
 0002:00010548       ??_R3SettingsDialog@@8     100b0548     ui.obj
 0002:00010558       ??_R3FormatLibraryInfoDialog@@8 100b0558     ui.obj
 0002:00010568       ??_R3MultiSelectDialog@@8  100b0568     ui.obj
 0002:00010578       ??_R3UpdateDialog@@8       100b0578     ui.obj
 0002:00010588       ??_R3?$num_put@_WV?$ostreambuf_iterator@_WU?$char_traits@_W@std@@@std@@@std@@8 100b0588     ui.obj
 0002:00010598       ??_R3ExtractDialog@@8      100b0598     ui.obj
 0002:000105a8       ??_R3OverwriteDialog@@8    100b05a8     ui.obj
 0002:000105b8       ??_R3Dialog@Far@@8         100b05b8     ui.obj
 0002:000105c8       ??_R3PasswordDialog@@8     100b05c8     ui.obj
 0002:000105d8       ??_R3ProgressMonitor@@8    100b05d8     ui.obj
 0002:000105e8       ??_R3NonCopyable@@8        100b05e8     ui.obj
 0002:000105f8       ??_R3?$basic_ostringstream@_WU?$char_traits@_W@std@@V?$allocator@_W@2@@std@@8 100b05f8     ui.obj
 0002:00010608       ??_R3?$basic_stringbuf@_WU?$char_traits@_W@std@@V?$allocator@_W@2@@std@@8 100b0608     ui.obj
 0002:00010618       ??_R3?$basic_ostream@_WU?$char_traits@_W@std@@@std@@8 100b0618     ui.obj
 0002:00010628       ??_R3?$basic_streambuf@_WU?$char_traits@_W@std@@@std@@8 100b0628     ui.obj
 0002:00010638       ??_R3?$basic_ios@_WU?$char_traits@_W@std@@@std@@8 100b0638     ui.obj
 0002:00010648       ??_R4?$_Ref_count@VFileFilter@Far@@@std@@6B@ 100b0648     ui.obj
 0002:0001065c       ??_R4?$numpunct@_W@std@@6B@ 100b065c     ui.obj
 0002:00010670       ??_R4AttrDialog@@6B@       100b0670     ui.obj
 0002:00010684       ??_R4SettingsDialog@@6B@   100b0684     ui.obj
 0002:00010698       ??_R4FormatLibraryInfoDialog@@6B@ 100b0698     ui.obj
 0002:000106ac       ??_R4MultiSelectDialog@@6B@ 100b06ac     ui.obj
 0002:000106c0       ??_R4UpdateDialog@@6B@     100b06c0     ui.obj
 0002:000106d4       ??_R4?$num_put@_WV?$ostreambuf_iterator@_WU?$char_traits@_W@std@@@std@@@std@@6B@ 100b06d4     ui.obj
 0002:000106e8       ??_R4ExtractDialog@@6B@    100b06e8     ui.obj
 0002:000106fc       ??_R4OverwriteDialog@@6B@  100b06fc     ui.obj
 0002:00010710       ??_R4PasswordDialog@@6B@   100b0710     ui.obj
 0002:00010724       ??_R4ProgressMonitor@@6B@  100b0724     ui.obj
 0002:00010738       ??_R4?$basic_ostringstream@_WU?$char_traits@_W@std@@V?$allocator@_W@2@@std@@6B@ 100b0738     ui.obj
 0002:0001074c       ??_R4?$basic_stringbuf@_WU?$char_traits@_W@std@@V?$allocator@_W@2@@std@@6B@ 100b074c     ui.obj
 0002:00010760       ??_R4?$basic_ostream@_WU?$char_traits@_W@std@@@std@@6B@ 100b0760     ui.obj
 0002:00010774       ??_R4?$basic_streambuf@_WU?$char_traits@_W@std@@@std@@6B@ 100b0774     ui.obj
 0002:00010788       ??_R4?$basic_ios@_WU?$char_traits@_W@std@@@std@@6B@ 100b0788     ui.obj
 0002:0001079c       ??_R1A@?0A@EA@?$ctype@_W@std@@8 100b079c     ui.obj
 0002:000107b8       ??_R2ctype_base@std@@8     100b07b8     ui.obj
 0002:000107cc       ??_R3ctype_base@std@@8     100b07cc     ui.obj
 0002:000107dc       ??_R1A@?0A@EA@ctype_base@std@@8 100b07dc     ui.obj
 0002:000107f8       ??_R2?$ctype@_W@std@@8     100b07f8     ui.obj
 0002:00010810       ??_R3?$ctype@_W@std@@8     100b0810     ui.obj
 0002:00010820       ??_R4?$ctype@_W@std@@6B@   100b0820     ui.obj
 0002:00010834       ??_R1A@?0A@EA@_Iostream_error_category@std@@8 100b0834     ui.obj
 0002:00010850       ??_R2_Generic_error_category@std@@8 100b0850     ui.obj
 0002:0001085c       ??_R3_Generic_error_category@std@@8 100b085c     ui.obj
 0002:0001086c       ??_R1A@?0A@EA@_Generic_error_category@std@@8 100b086c     ui.obj
 0002:00010888       ??_R2error_category@std@@8 100b0888     ui.obj
 0002:00010890       ??_R3error_category@std@@8 100b0890     ui.obj
 0002:000108a0       ??_R1A@?0A@EA@error_category@std@@8 100b08a0     ui.obj
 0002:000108bc       ??_R2_Iostream_error_category@std@@8 100b08bc     ui.obj
 0002:000108cc       ??_R3_Iostream_error_category@std@@8 100b08cc     ui.obj
 0002:000108dc       ??_R4_Iostream_error_category@std@@6B@ 100b08dc     ui.obj
 0002:000108f0       ??_R1A@?0A@EA@failure@ios_base@std@@8 100b08f0     ui.obj
 0002:0001090c       ??_R2failure@ios_base@std@@8 100b090c     ui.obj
 0002:00010924       ??_R3failure@ios_base@std@@8 100b0924     ui.obj
 0002:00010934       ??_R4failure@ios_base@std@@6B@ 100b0934     ui.obj
 0002:00010948       ??_R1A@?0A@EA@system_error@std@@8 100b0948     ui.obj
 0002:00010964       ??_R2system_error@std@@8   100b0964     ui.obj
 0002:00010978       ??_R3system_error@std@@8   100b0978     ui.obj
 0002:00010988       ??_R4system_error@std@@6B@ 100b0988     ui.obj
 0002:0001099c       ??_R1A@?0A@EA@_System_error@std@@8 100b099c     ui.obj
 0002:000109b8       ??_R2_System_error@std@@8  100b09b8     ui.obj
 0002:000109c8       ??_R3_System_error@std@@8  100b09c8     ui.obj
 0002:000109d8       ??_R4_System_error@std@@6B@ 100b09d8     ui.obj
 0002:000109ec       ??_R1A@?0A@EA@runtime_error@std@@8 100b09ec     ui.obj
 0002:00010a08       ??_R2runtime_error@std@@8  100b0a08     ui.obj
 0002:00010a14       ??_R3runtime_error@std@@8  100b0a14     ui.obj
 0002:00010a24       ??_R4runtime_error@std@@6B@ 100b0a24     ui.obj
 0002:00010a38       ??_R1A@?0A@EA@facet@locale@std@@8 100b0a38     ui.obj
 0002:00010a54       ??_R1A@?0A@EA@_Crt_new_delete@std@@8 100b0a54     ui.obj
 0002:00010a70       ??_R2_Crt_new_delete@std@@8 100b0a70     ui.obj
 0002:00010a78       ??_R3_Crt_new_delete@std@@8 100b0a78     ui.obj
 0002:00010a88       ??_R13?0A@EA@_Crt_new_delete@std@@8 100b0a88     ui.obj
 0002:00010aa4       ??_R2facet@locale@std@@8   100b0aa4     ui.obj
 0002:00010ab4       ??_R3facet@locale@std@@8   100b0ab4     ui.obj
 0002:00010ac4       ??_R1A@?0A@EA@ios_base@std@@8 100b0ac4     ui.obj
 0002:00010ae0       ??_R1A@?0A@EA@?$_Iosb@H@std@@8 100b0ae0     ui.obj
 0002:00010afc       ??_R2?$_Iosb@H@std@@8      100b0afc     ui.obj
 0002:00010b04       ??_R3?$_Iosb@H@std@@8      100b0b04     ui.obj
 0002:00010b14       ??_R17?0A@EA@?$_Iosb@H@std@@8 100b0b14     ui.obj
 0002:00010b30       ??_R2ios_base@std@@8       100b0b30     ui.obj
 0002:00010b3c       ??_R3ios_base@std@@8       100b0b3c     ui.obj
 0002:00010b4c       ??_R4ios_base@std@@6B@     100b0b4c     ui.obj
 0002:00010b60       ??_R1A@?0A@EA@_Facet_base@std@@8 100b0b60     ui.obj
 0002:00010b7c       ??_R2_Facet_base@std@@8    100b0b7c     ui.obj
 0002:00010b84       ??_R3_Facet_base@std@@8    100b0b84     ui.obj
 0002:00010b94       ??_R4_Facet_base@std@@6B@  100b0b94     ui.obj
 0002:00010ba8       ??_R2?$_Ref_count@V?$set@IU?$less@I@std@@V?$allocator@I@2@@std@@@std@@8 100b0ba8     extract.obj
 0002:00010bb4       ??_R2?$_Ref_count@VFileWriteCache@@@std@@8 100b0bb4     extract.obj
 0002:00010bc0       ??_R2?$_Ref_count@VExtractProgress@@@std@@8 100b0bc0     extract.obj
 0002:00010bcc       ??_R2?$_Ref_count@W4OverwriteAction@@@std@@8 100b0bcc     extract.obj
 0002:00010bd8       ??_R2?$_Ref_count@_N@std@@8 100b0bd8     extract.obj
 0002:00010be4       ??_R2SetDirAttr@@8         100b0be4     extract.obj
 0002:00010bf4       ??_R2PrepareExtract@@8     100b0bf4     extract.obj
 0002:00010c04       ??_R2ArchiveExtractor@@8   100b0c04     extract.obj
 0002:00010c28       ??_R2CachedFileExtractStream@@8 100b0c28     extract.obj
 0002:00010c40       ??_R2ExtractProgress@@8    100b0c40     extract.obj
 0002:00010c50       ??_R2ICryptoGetTextPassword@@8 100b0c50     extract.obj
 0002:00010c5c       ??_R2IArchiveExtractCallback@@8 100b0c5c     extract.obj
 0002:00010c6c       ??_R2ISequentialOutStream@@8 100b0c6c     extract.obj
 0002:00010c78       ??_R2IProgress@@8          100b0c78     extract.obj
 0002:00010c84       ??_R1A@?0A@EA@?$_Ref_count@V?$set@IU?$less@I@std@@V?$allocator@I@2@@std@@@std@@8 100b0c84     extract.obj
 0002:00010ca0       ??_R1A@?0A@EA@?$_Ref_count@VFileWriteCache@@@std@@8 100b0ca0     extract.obj
 0002:00010cbc       ??_R1A@?0A@EA@?$_Ref_count@VExtractProgress@@@std@@8 100b0cbc     extract.obj
 0002:00010cd8       ??_R1A@?0A@EA@?$_Ref_count@W4OverwriteAction@@@std@@8 100b0cd8     extract.obj
 0002:00010cf4       ??_R1A@?0A@EA@?$_Ref_count@_N@std@@8 100b0cf4     extract.obj
 0002:00010d10       ??_R1A@?0A@EA@SetDirAttr@@8 100b0d10     extract.obj
 0002:00010d2c       ??_R1A@?0A@EA@PrepareExtract@@8 100b0d2c     extract.obj
 0002:00010d48       ??_R17?0A@EC@IUnknown@@8   100b0d48     extract.obj
 0002:00010d64       ??_R17?0A@EA@ComBase@@8    100b0d64     extract.obj
 0002:00010d80       ??_R13?0A@EA@ICryptoGetTextPassword@@8 100b0d80     extract.obj
 0002:00010d9c       ??_R1A@?0A@EA@ArchiveExtractor@@8 100b0d9c     extract.obj
 0002:00010db8       ??_R13?0A@EA@ComBase@@8    100b0db8     extract.obj
 0002:00010dd4       ??_R1A@?0A@EA@CachedFileExtractStream@@8 100b0dd4     extract.obj
 0002:00010df0       ??_R1A@?0A@EA@ExtractProgress@@8 100b0df0     extract.obj
 0002:00010e0c       ??_R1A@?0A@EA@ICryptoGetTextPassword@@8 100b0e0c     extract.obj
 0002:00010e28       ??_R1A@?0A@EA@IArchiveExtractCallback@@8 100b0e28     extract.obj
 0002:00010e44       ??_R1A@?0A@EA@ISequentialOutStream@@8 100b0e44     extract.obj
 0002:00010e60       ??_R1A@?0A@EA@IProgress@@8 100b0e60     extract.obj
 0002:00010e7c       ??_R3?$_Ref_count@V?$set@IU?$less@I@std@@V?$allocator@I@2@@std@@@std@@8 100b0e7c     extract.obj
 0002:00010e8c       ??_R3?$_Ref_count@VFileWriteCache@@@std@@8 100b0e8c     extract.obj
 0002:00010e9c       ??_R3?$_Ref_count@VExtractProgress@@@std@@8 100b0e9c     extract.obj
 0002:00010eac       ??_R3?$_Ref_count@W4OverwriteAction@@@std@@8 100b0eac     extract.obj
 0002:00010ebc       ??_R3?$_Ref_count@_N@std@@8 100b0ebc     extract.obj
 0002:00010ecc       ??_R3SetDirAttr@@8         100b0ecc     extract.obj
 0002:00010edc       ??_R3PrepareExtract@@8     100b0edc     extract.obj
 0002:00010eec       ??_R3ArchiveExtractor@@8   100b0eec     extract.obj
 0002:00010efc       ??_R3CachedFileExtractStream@@8 100b0efc     extract.obj
 0002:00010f0c       ??_R3ExtractProgress@@8    100b0f0c     extract.obj
 0002:00010f1c       ??_R3ICryptoGetTextPassword@@8 100b0f1c     extract.obj
 0002:00010f2c       ??_R3IArchiveExtractCallback@@8 100b0f2c     extract.obj
 0002:00010f3c       ??_R3ISequentialOutStream@@8 100b0f3c     extract.obj
 0002:00010f4c       ??_R3IProgress@@8          100b0f4c     extract.obj
 0002:00010f5c       ??_R4?$_Ref_count@V?$set@IU?$less@I@std@@V?$allocator@I@2@@std@@@std@@6B@ 100b0f5c     extract.obj
 0002:00010f70       ??_R4?$_Ref_count@VFileWriteCache@@@std@@6B@ 100b0f70     extract.obj
 0002:00010f84       ??_R4?$_Ref_count@VExtractProgress@@@std@@6B@ 100b0f84     extract.obj
 0002:00010f98       ??_R4?$_Ref_count@W4OverwriteAction@@@std@@6B@ 100b0f98     extract.obj
 0002:00010fac       ??_R4?$_Ref_count@_N@std@@6B@ 100b0fac     extract.obj
 0002:00010fc0       ??_R4SetDirAttr@@6B@       100b0fc0     extract.obj
 0002:00010fd4       ??_R4PrepareExtract@@6B@   100b0fd4     extract.obj
 0002:00010fe8       ??_R4ArchiveExtractor@@6BComBase@@@ 100b0fe8     extract.obj
 0002:00010ffc       ??_R4ArchiveExtractor@@6BICryptoGetTextPassword@@@ 100b0ffc     extract.obj
 0002:00011010       ??_R4ArchiveExtractor@@6BIArchiveExtractCallback@@@ 100b1010     extract.obj
 0002:00011024       ??_R4CachedFileExtractStream@@6BComBase@@@ 100b1024     extract.obj
 0002:00011038       ??_R4CachedFileExtractStream@@6BISequentialOutStream@@@ 100b1038     extract.obj
 0002:0001104c       ??_R4ExtractProgress@@6B@  100b104c     extract.obj
 0002:00011060       ??_R4ICryptoGetTextPassword@@6B@ 100b1060     extract.obj
 0002:00011074       ??_R4IArchiveExtractCallback@@6B@ 100b1074     extract.obj
 0002:00011088       ??_R1A@?0A@EA@bad_weak_ptr@std@@8 100b1088     extract.obj
 0002:000110a4       ??_R2bad_weak_ptr@std@@8   100b10a4     extract.obj
 0002:000110b0       ??_R3bad_weak_ptr@std@@8   100b10b0     extract.obj
 0002:000110c0       ??_R4bad_weak_ptr@std@@6B@ 100b10c0     extract.obj
 0002:000110d4       ??_R2ArchiveOpener@@8      100b10d4     open.obj
 0002:00011104       ??_R2ArchiveOpenStream@@8  100b1104     open.obj
 0002:00011128       ??_R2File@@8               100b1128     open.obj
 0002:00011134       ??_R2ArchiveSubStream@@8   100b1134     open.obj
 0002:00011150       ??_R2IArchiveOpenVolumeCallback@@8 100b1150     open.obj
 0002:0001115c       ??_R2IArchiveOpenCallback@@8 100b115c     open.obj
 0002:00011168       ??_R2IInStream@@8          100b1168     open.obj
 0002:00011178       ??_R2ISequentialInStream@@8 100b1178     open.obj
 0002:00011184       ??_R1CA@?0A@EN@NonCopyable@@8 100b1184     open.obj
 0002:000111a0       ??_R1BI@?0A@EA@ProgressMonitor@@8 100b11a0     open.obj
 0002:000111bc       ??_R1M@?0A@EC@IUnknown@@8  100b11bc     open.obj
 0002:000111d8       ??_R1M@?0A@EA@ComBase@@8   100b11d8     open.obj
 0002:000111f4       ??_R17?0A@EA@ICryptoGetTextPassword@@8 100b11f4     open.obj
 0002:00011210       ??_R13?0A@EA@IArchiveOpenVolumeCallback@@8 100b1210     open.obj
 0002:0001122c       ??_R1A@?0A@EA@ArchiveOpener@@8 100b122c     open.obj
 0002:00011248       ??_R1M@?0A@EN@NonCopyable@@8 100b1248     open.obj
 0002:00011264       ??_R1M@?0A@EN@File@@8      100b1264     open.obj
 0002:00011280       ??_R1A@?0A@EA@ArchiveOpenStream@@8 100b1280     open.obj
 0002:0001129c       ??_R1A@?0A@EN@NonCopyable@@8 100b129c     open.obj
 0002:000112b8       ??_R1A@?0A@EA@File@@8      100b12b8     open.obj
 0002:000112d4       ??_R13?0A@EL@IUnknown@@8   100b12d4     open.obj
 0002:000112f0       ??_R13?0A@EN@ComBase@@8    100b12f0     open.obj
 0002:0001130c       ??_R1A@?0A@EA@ArchiveSubStream@@8 100b130c     open.obj
 0002:00011328       ??_R1A@?0A@EA@IArchiveOpenVolumeCallback@@8 100b1328     open.obj
 0002:00011344       ??_R1A@?0A@EA@IArchiveOpenCallback@@8 100b1344     open.obj
 0002:00011360       ??_R1A@?0A@EA@IInStream@@8 100b1360     open.obj
 0002:0001137c       ??_R1A@?0A@EA@ISequentialInStream@@8 100b137c     open.obj
 0002:00011398       ??_R3ArchiveOpener@@8      100b1398     open.obj
 0002:000113a8       ??_R3File@@8               100b13a8     open.obj
 0002:000113b8       ??_R3ArchiveOpenStream@@8  100b13b8     open.obj
 0002:000113c8       ??_R3ArchiveSubStream@@8   100b13c8     open.obj
 0002:000113d8       ??_R3IArchiveOpenVolumeCallback@@8 100b13d8     open.obj
 0002:000113e8       ??_R3IArchiveOpenCallback@@8 100b13e8     open.obj
 0002:000113f8       ??_R3IInStream@@8          100b13f8     open.obj
 0002:00011408       ??_R3ISequentialInStream@@8 100b1408     open.obj
 0002:00011418       ??_R4ArchiveOpener@@6BProgressMonitor@@@ 100b1418     open.obj
 0002:0001142c       ??_R4ArchiveOpener@@6BComBase@@@ 100b142c     open.obj
 0002:00011440       ??_R4ArchiveOpener@@6BICryptoGetTextPassword@@@ 100b1440     open.obj
 0002:00011454       ??_R4ArchiveOpener@@6BIArchiveOpenVolumeCallback@@@ 100b1454     open.obj
 0002:00011468       ??_R4ArchiveOpener@@6BIArchiveOpenCallback@@@ 100b1468     open.obj
 0002:0001147c       ??_R4ArchiveOpenStream@@6BComBase@@@ 100b147c     open.obj
 0002:00011490       ??_R4ArchiveOpenStream@@6BIInStream@@@ 100b1490     open.obj
 0002:000114a4       ??_R4ArchiveSubStream@@6BComBase@@@ 100b14a4     open.obj
 0002:000114b8       ??_R4ArchiveSubStream@@6BIInStream@@@ 100b14b8     open.obj
 0002:000114cc       ??_R4IArchiveOpenVolumeCallback@@6B@ 100b14cc     open.obj
 0002:000114e0       ??_R4IArchiveOpenCallback@@6B@ 100b14e0     open.obj
 0002:000114f4       ??_R2?$_Ref_count@VArchiveUpdateProgress@@@std@@8 100b14f4     update.obj
 0002:00011500       ??_R2?$_Ref_count@V?$map@IUFileIndexInfo@@U?$less@I@std@@V?$allocator@U?$pair@$$CBIUFileIndexInfo@@@std@@@3@@std@@@std@@8 100b1500     update.obj
 0002:0001150c       ??_R2DeleteSrcFiles@@8     100b150c     update.obj
 0002:0001151c       ??_R2ArchiveUpdater@@8     100b151c     update.obj
 0002:00011540       ??_R2PrepareUpdate@@8      100b1540     update.obj
 0002:00011550       ??_R2FileReadStream@@8     100b1550     update.obj
 0002:0001157c       ??_R2MultiVolumeUpdateStream@@8 100b157c     update.obj
 0002:0001159c       ??_R2SfxUpdateStream@@8    100b159c     update.obj
 0002:000115c4       ??_R2SimpleUpdateStream@@8 100b15c4     update.obj
 0002:000115ec       ??_R2UpdateStream@@8       100b15ec     update.obj
 0002:00011600       ??_R2ArchiveUpdateProgress@@8 100b1600     update.obj
 0002:00011610       ??_R2ICryptoGetTextPassword2@@8 100b1610     update.obj
 0002:0001161c       ??_R2IArchiveUpdateCallback@@8 100b161c     update.obj
 0002:0001162c       ??_R2IStreamGetSize@@8     100b162c     update.obj
 0002:00011638       ??_R2IOutStream@@8         100b1638     update.obj
 0002:00011648       ??_R1A@?0A@EA@?$_Ref_count@VArchiveUpdateProgress@@@std@@8 100b1648     update.obj
 0002:00011664       ??_R1A@?0A@EA@?$_Ref_count@V?$map@IUFileIndexInfo@@U?$less@I@std@@V?$allocator@U?$pair@$$CBIUFileIndexInfo@@@std@@@3@@std@@@std@@8 100b1664     update.obj
 0002:00011680       ??_R1A@?0A@EA@DeleteSrcFiles@@8 100b1680     update.obj
 0002:0001169c       ??_R13?0A@EA@ICryptoGetTextPassword2@@8 100b169c     update.obj
 0002:000116b8       ??_R1A@?0A@EA@ArchiveUpdater@@8 100b16b8     update.obj
 0002:000116d4       ??_R1A@?0A@EN@ProgressMonitor@@8 100b16d4     update.obj
 0002:000116f0       ??_R1A@?0A@EA@PrepareUpdate@@8 100b16f0     update.obj
 0002:0001170c       ??_R1BA@?0A@EN@NonCopyable@@8 100b170c     update.obj
 0002:00011728       ??_R1BA@?0A@EN@File@@8     100b1728     update.obj
 0002:00011744       ??_R13?0A@EA@IStreamGetSize@@8 100b1744     update.obj
 0002:00011760       ??_R1A@?0A@EA@FileReadStream@@8 100b1760     update.obj
 0002:0001177c       ??_R1A@?0A@EA@MultiVolumeUpdateStream@@8 100b177c     update.obj
 0002:00011798       ??_R1A@?0A@EA@SfxUpdateStream@@8 100b1798     update.obj
 0002:000117b4       ??_R1BE@?0A@EN@NonCopyable@@8 100b17b4     update.obj
 0002:000117d0       ??_R1BE@?0A@EN@File@@8     100b17d0     update.obj
 0002:000117ec       ??_R1A@?0A@EA@SimpleUpdateStream@@8 100b17ec     update.obj
 0002:00011808       ??_R1A@?0A@EA@UpdateStream@@8 100b1808     update.obj
 0002:00011824       ??_R1A@?0A@EA@ArchiveUpdateProgress@@8 100b1824     update.obj
 0002:00011840       ??_R1A@?0A@EA@ICryptoGetTextPassword2@@8 100b1840     update.obj
 0002:0001185c       ??_R1A@?0A@EA@IArchiveUpdateCallback@@8 100b185c     update.obj
 0002:00011878       ??_R1A@?0A@EA@IStreamGetSize@@8 100b1878     update.obj
 0002:00011894       ??_R1A@?0A@EA@IOutStream@@8 100b1894     update.obj
 0002:000118b0       ??_R3?$_Ref_count@VArchiveUpdateProgress@@@std@@8 100b18b0     update.obj
 0002:000118c0       ??_R3?$_Ref_count@V?$map@IUFileIndexInfo@@U?$less@I@std@@V?$allocator@U?$pair@$$CBIUFileIndexInfo@@@std@@@3@@std@@@std@@8 100b18c0     update.obj
 0002:000118d0       ??_R3DeleteSrcFiles@@8     100b18d0     update.obj
 0002:000118e0       ??_R3ArchiveUpdater@@8     100b18e0     update.obj
 0002:000118f0       ??_R3PrepareUpdate@@8      100b18f0     update.obj
 0002:00011900       ??_R3FileReadStream@@8     100b1900     update.obj
 0002:00011910       ??_R3MultiVolumeUpdateStream@@8 100b1910     update.obj
 0002:00011920       ??_R3SfxUpdateStream@@8    100b1920     update.obj
 0002:00011930       ??_R3SimpleUpdateStream@@8 100b1930     update.obj
 0002:00011940       ??_R3UpdateStream@@8       100b1940     update.obj
 0002:00011950       ??_R3ArchiveUpdateProgress@@8 100b1950     update.obj
 0002:00011960       ??_R3ICryptoGetTextPassword2@@8 100b1960     update.obj
 0002:00011970       ??_R3IArchiveUpdateCallback@@8 100b1970     update.obj
 0002:00011980       ??_R3IStreamGetSize@@8     100b1980     update.obj
 0002:00011990       ??_R3IOutStream@@8         100b1990     update.obj
 0002:000119a0       ??_R4?$_Ref_count@VArchiveUpdateProgress@@@std@@6B@ 100b19a0     update.obj
 0002:000119b4       ??_R4?$_Ref_count@V?$map@IUFileIndexInfo@@U?$less@I@std@@V?$allocator@U?$pair@$$CBIUFileIndexInfo@@@std@@@3@@std@@@std@@6B@ 100b19b4     update.obj
 0002:000119c8       ??_R4DeleteSrcFiles@@6B@   100b19c8     update.obj
 0002:000119dc       ??_R4ArchiveUpdater@@6BComBase@@@ 100b19dc     update.obj
 0002:000119f0       ??_R4ArchiveUpdater@@6BICryptoGetTextPassword2@@@ 100b19f0     update.obj
 0002:00011a04       ??_R4ArchiveUpdater@@6BIArchiveUpdateCallback@@@ 100b1a04     update.obj
 0002:00011a18       ??_R4PrepareUpdate@@6B@    100b1a18     update.obj
 0002:00011a2c       ??_R4FileReadStream@@6BComBase@@@ 100b1a2c     update.obj
 0002:00011a40       ??_R4FileReadStream@@6BIStreamGetSize@@@ 100b1a40     update.obj
 0002:00011a54       ??_R4FileReadStream@@6BIInStream@@@ 100b1a54     update.obj
 0002:00011a68       ??_R4MultiVolumeUpdateStream@@6BComBase@@@ 100b1a68     update.obj
 0002:00011a7c       ??_R4MultiVolumeUpdateStream@@6BUpdateStream@@@ 100b1a7c     update.obj
 0002:00011a90       ??_R4SfxUpdateStream@@6BComBase@@@ 100b1a90     update.obj
 0002:00011aa4       ??_R4SfxUpdateStream@@6BUpdateStream@@@ 100b1aa4     update.obj
 0002:00011ab8       ??_R4SimpleUpdateStream@@6BComBase@@@ 100b1ab8     update.obj
 0002:00011acc       ??_R4SimpleUpdateStream@@6BUpdateStream@@@ 100b1acc     update.obj
 0002:00011ae0       ??_R4UpdateStream@@6B@     100b1ae0     update.obj
 0002:00011af4       ??_R4ArchiveUpdateProgress@@6B@ 100b1af4     update.obj
 0002:00011b08       ??_R4ICryptoGetTextPassword2@@6B@ 100b1b08     update.obj
 0002:00011b1c       ??_R2?$_Ref_count@VArchiveFileDeleterProgress@@@std@@8 100b1b1c     delete.obj
 0002:00011b28       ??_R2ArchiveFileDeleter@@8 100b1b28     delete.obj
 0002:00011b44       ??_R2ArchiveFileDeleterStream@@8 100b1b44     delete.obj
 0002:00011b68       ??_R2ArchiveFileDeleterProgress@@8 100b1b68     delete.obj
 0002:00011b78       ??_R1A@?0A@EA@?$_Ref_count@VArchiveFileDeleterProgress@@@std@@8 100b1b78     delete.obj
 0002:00011b94       ??_R1A@?0A@EA@ArchiveFileDeleter@@8 100b1b94     delete.obj
 0002:00011bb0       ??_R1A@?0A@EA@ArchiveFileDeleterStream@@8 100b1bb0     delete.obj
 0002:00011bcc       ??_R1A@?0A@EA@ArchiveFileDeleterProgress@@8 100b1bcc     delete.obj
 0002:00011be8       ??_R3?$_Ref_count@VArchiveFileDeleterProgress@@@std@@8 100b1be8     delete.obj
 0002:00011bf8       ??_R3ArchiveFileDeleter@@8 100b1bf8     delete.obj
 0002:00011c08       ??_R3ArchiveFileDeleterStream@@8 100b1c08     delete.obj
 0002:00011c18       ??_R3ArchiveFileDeleterProgress@@8 100b1c18     delete.obj
 0002:00011c28       ??_R4?$_Ref_count@VArchiveFileDeleterProgress@@@std@@6B@ 100b1c28     delete.obj
 0002:00011c3c       ??_R4ArchiveFileDeleter@@6BComBase@@@ 100b1c3c     delete.obj
 0002:00011c50       ??_R4ArchiveFileDeleter@@6BIArchiveUpdateCallback@@@ 100b1c50     delete.obj
 0002:00011c64       ??_R4ArchiveFileDeleterStream@@6BComBase@@@ 100b1c64     delete.obj
 0002:00011c78       ??_R4ArchiveFileDeleterStream@@6BIOutStream@@@ 100b1c78     delete.obj
 0002:00011c8c       ??_R4ArchiveFileDeleterProgress@@6B@ 100b1c8c     delete.obj
 0002:00011ca0       ??_R2xml_parser@@8         100b1ca0     options.obj
 0002:00011cac       ??_R2IParseCallback@SimpleXML@@8 100b1cac     options.obj
 0002:00011cb4       ??_R1A@?0A@EA@xml_parser@@8 100b1cb4     options.obj
 0002:00011cd0       ??_R1A@?0A@EA@IParseCallback@SimpleXML@@8 100b1cd0     options.obj
 0002:00011cec       ??_R3xml_parser@@8         100b1cec     options.obj
 0002:00011cfc       ??_R3IParseCallback@SimpleXML@@8 100b1cfc     options.obj
 0002:00011d0c       ??_R4xml_parser@@6B@       100b1d0c     options.obj
 0002:00011d20       ??_R4IParseCallback@SimpleXML@@6B@ 100b1d20     options.obj
 0002:00011d34       ??_R2ArchiveTester@@8      100b1d34     test.obj
 0002:00011d60       ??_R1BI@?0A@EN@NonCopyable@@8 100b1d60     test.obj
 0002:00011d7c       ??_R1BA@?0A@EA@ProgressMonitor@@8 100b1d7c     test.obj
 0002:00011d98       ??_R1A@?0A@EA@ArchiveTester@@8 100b1d98     test.obj
 0002:00011db4       ??_R3ArchiveTester@@8      100b1db4     test.obj
 0002:00011dc4       ??_R4ArchiveTester@@6BProgressMonitor@@@ 100b1dc4     test.obj
 0002:00011dd8       ??_R4ArchiveTester@@6BComBase@@@ 100b1dd8     test.obj
 0002:00011dec       ??_R4ArchiveTester@@6BICryptoGetTextPassword@@@ 100b1dec     test.obj
 0002:00011e00       ??_R4ArchiveTester@@6BIArchiveExtractCallback@@@ 100b1e00     test.obj
 0002:00011e14       ??_R2SfxOptionsDialog@@8   100b1e14     sfx.obj
 0002:00011e20       ??_R2AttachSfxModuleProgress@@8 100b1e20     sfx.obj
 0002:00011e30       ??_R1A@?0A@EA@SfxOptionsDialog@@8 100b1e30     sfx.obj
 0002:00011e4c       ??_R1A@?0A@EA@AttachSfxModuleProgress@@8 100b1e4c     sfx.obj
 0002:00011e68       ??_R3SfxOptionsDialog@@8   100b1e68     sfx.obj
 0002:00011e78       ??_R3AttachSfxModuleProgress@@8 100b1e78     sfx.obj
 0002:00011e88       ??_R4SfxOptionsDialog@@6B@ 100b1e88     sfx.obj
 0002:00011e9c       ??_R4AttachSfxModuleProgress@@6B@ 100b1e9c     sfx.obj
 0002:00011eb0       ??_R4Dialog@Far@@6B@       100b1eb0     farutils.obj
 0002:00011ec4       ??_R2CriticalSection@@8    100b1ec4     sysutils.obj
 0002:00011ed4       ??_R2_RTL_CRITICAL_SECTION@@8 100b1ed4     sysutils.obj
 0002:00011edc       ??_R13?0A@EN@_RTL_CRITICAL_SECTION@@8 100b1edc     sysutils.obj
 0002:00011ef8       ??_R13?0A@EN@NonCopyable@@8 100b1ef8     sysutils.obj
 0002:00011f14       ??_R1A@?0A@EA@CriticalSection@@8 100b1f14     sysutils.obj
 0002:00011f30       ??_R1A@?0A@EA@_RTL_CRITICAL_SECTION@@8 100b1f30     sysutils.obj
 0002:00011f4c       ??_R3_RTL_CRITICAL_SECTION@@8 100b1f4c     sysutils.obj
 0002:00011f5c       ??_R3CriticalSection@@8    100b1f5c     sysutils.obj
 0002:00011f6c       ??_R4CriticalSection@@6B@  100b1f6c     sysutils.obj
 0002:00011f80       ___safe_se_handler_table   100b1f80     <linker-defined>
 0002:00012914       ___rtc_iaa                 100b2914     LIBCMT:initsect.obj
 0002:00012918       ___rtc_izz                 100b2918     LIBCMT:initsect.obj
 0002:0001291c       ___rtc_taa                 100b291c     LIBCMT:initsect.obj
 0002:00012920       ___rtc_tzz                 100b2920     LIBCMT:initsect.obj
 0002:0001c954       __TI2?AVbad_alloc@std@@    100bc954     libcpmt:xthrow.obj
 0002:0001c964       __CTA2?AVbad_alloc@std@@   100bc964     libcpmt:xthrow.obj
 0002:0001c970       __CT??_R0?AVlogic_error@std@@@8??0logic_error@std@@QAE@ABV01@@Z12 100bc970     libcpmt:xthrow.obj
 0002:0001c98c       __TI3?AVlength_error@std@@ 100bc98c     libcpmt:xthrow.obj
 0002:0001c99c       __CTA3?AVlength_error@std@@ 100bc99c     libcpmt:xthrow.obj
 0002:0001c9ac       __CT??_R0?AVlength_error@std@@@8??0length_error@std@@QAE@ABV01@@Z12 100bc9ac     libcpmt:xthrow.obj
 0002:0001c9c8       __TI3?AVout_of_range@std@@ 100bc9c8     libcpmt:xthrow.obj
 0002:0001c9d8       __CTA3?AVout_of_range@std@@ 100bc9d8     libcpmt:xthrow.obj
 0002:0001c9e8       __CT??_R0?AVout_of_range@std@@@8??0out_of_range@std@@QAE@ABV01@@Z12 100bc9e8     libcpmt:xthrow.obj
 0002:0001ca04       __TI2?AVruntime_error@std@@ 100bca04     libcpmt:xthrow.obj
 0002:0001ca14       __CTA2?AVruntime_error@std@@ 100bca14     libcpmt:xthrow.obj
 0002:0001cb74       __TI3?AV__non_rtti_object@std@@ 100bcb74     libvcruntime:rtti.obj
 0002:0001cb84       __CTA3?AV__non_rtti_object@std@@ 100bcb84     libvcruntime:rtti.obj
 0002:0001cb94       __CT??_R0?AV__non_rtti_object@std@@@8??0__non_rtti_object@std@@QAE@ABV01@@Z12 100bcb94     libvcruntime:rtti.obj
 0002:0001cbb0       __CT??_R0?AVbad_typeid@std@@@8??0bad_typeid@std@@QAE@ABV01@@Z12 100bcbb0     libvcruntime:rtti.obj
 0002:0001cbcc       __TI2?AVbad_typeid@std@@   100bcbcc     libvcruntime:rtti.obj
 0002:0001cbdc       __CTA2?AVbad_typeid@std@@  100bcbdc     libvcruntime:rtti.obj
 0002:0001cccc       __TI2?AVbad_exception@std@@ 100bcccc     libvcruntime:frame.obj
 0002:0001ccdc       __CTA2?AVbad_exception@std@@ 100bccdc     libvcruntime:frame.obj
 0002:0001cce8       __CT??_R0?AVbad_exception@std@@@8??0bad_exception@std@@QAE@ABV01@@Z12 100bcce8     libvcruntime:frame.obj
 0002:0001d134       __CTA1?AUError@@           100bd134     archive.obj
 0002:0001d13c       __CT??_R0?AUError@@@8??0Error@@QAE@ABU0@@Z36 100bd13c     archive.obj
 0002:0001d158       __TI1?AUError@@            100bd158     archive.obj
 0002:0001d168       __CT??_R0?AVbad_array_new_length@std@@@8??0bad_array_new_length@std@@QAE@ABV01@@Z12 100bd168     archive.obj
 0002:0001d184       __CT??_R0?AVbad_alloc@std@@@8??0bad_alloc@std@@QAE@ABV01@@Z12 100bd184     archive.obj
 0002:0001d1a0       __CT??_R0?AVexception@std@@@8??0exception@std@@QAE@ABV01@@Z12 100bd1a0     archive.obj
 0002:0001d1bc       __CTA3?AVbad_array_new_length@std@@ 100bd1bc     archive.obj
 0002:0001d1cc       __TI3?AVbad_array_new_length@std@@ 100bd1cc     archive.obj
 0002:0001d1dc       __CT??_R0?AVfailure@ios_base@std@@@8??0failure@ios_base@std@@QAE@ABV012@@Z20 100bd1dc     ui.obj
 0002:0001d1f8       __CT??_R0?AVsystem_error@std@@@8??0system_error@std@@QAE@ABV01@@Z20 100bd1f8     ui.obj
 0002:0001d214       __CT??_R0?AV_System_error@std@@@8??0_System_error@std@@QAE@ABV01@@Z20 100bd214     ui.obj
 0002:0001d230       __CT??_R0?AVruntime_error@std@@@8??0runtime_error@std@@QAE@ABV01@@Z12 100bd230     ui.obj
 0002:0001d24c       __CTA5?AVfailure@ios_base@std@@ 100bd24c     ui.obj
 0002:0001d264       __TI5?AVfailure@ios_base@std@@ 100bd264     ui.obj
 0002:0001d274       __CT??_R0?AVbad_weak_ptr@std@@@8??0bad_weak_ptr@std@@QAE@ABV01@@Z12 100bd274     extract.obj
 0002:0001d290       __CTA2?AVbad_weak_ptr@std@@ 100bd290     extract.obj
 0002:0001d29c       __TI2?AVbad_weak_ptr@std@@ 100bd29c     extract.obj
 0002:0001d2ac       __CTA1?AVParseException@SimpleXML@@ 100bd2ac     SimpleXML.obj
 0002:0001d2b4       __CT??_R0?AVParseException@SimpleXML@@@88 100bd2b4     SimpleXML.obj
 0002:0001d2d0       __TI1?AVParseException@SimpleXML@@ 100bd2d0     SimpleXML.obj
 0002:0001d4cc       __IMPORT_DESCRIPTOR_USER32 100bd4cc     user32:USER32.dll
 0002:0001d4e0       __IMPORT_DESCRIPTOR_ADVAPI32 100bd4e0     advapi32:ADVAPI32.dll
 0002:0001d4f4       __IMPORT_DESCRIPTOR_ole32  100bd4f4     ole32:ole32.dll
 0002:0001d508       __IMPORT_DESCRIPTOR_OLEAUT32 100bd508     oleaut32:OLEAUT32.dll
 0002:0001d51c       __IMPORT_DESCRIPTOR_VERSION 100bd51c     version:VERSION.dll
 0002:0001d530       __IMPORT_DESCRIPTOR_KERNEL32 100bd530     kernel32:KERNEL32.dll
 0002:0001d544       __NULL_IMPORT_DESCRIPTOR   100bd544     user32:USER32.dll
 0003:00000000       ?_Sync@ios_base@std@@0_NA  100bf000     libcpmt:ios.obj
 0003:0000000c       ___scrt_native_dllmain_reason 100bf00c     LIBCMT:utility.obj
 0003:00000010       ___security_cookie_complement 100bf010     LIBCMT:gs_cookie.obj
 0003:00000014       ___security_cookie         100bf014     LIBCMT:gs_cookie.obj
 0003:00000018       __fltused                  100bf018     LIBCMT:fltused.obj
 0003:00000020       ___isa_enabled             100bf020     LIBCMT:cpu_disp.obj
 0003:00000040       __NLG_Destination          100bf040     libvcruntime:exsup.obj
 0003:00000050       ___acrt_lconv_c            100bf050     libucrt:localeconv.obj
 0003:000000a0       ___acrt_lconv              100bf0a0     libucrt:localeconv.obj
 0003:000000a4       ___acrt_lconv_static_decimal 100bf0a4     libucrt:localeconv.obj
 0003:000000a8       ___acrt_lconv_static_W_decimal 100bf0a8     libucrt:localeconv.obj
 0003:000000b4       __pctype                   100bf0b4     libucrt:ctype.obj
 0003:000000b8       __pwctype                  100bf0b8     libucrt:ctype.obj
 0003:000000c0       ___abort_behavior          100bf0c0     libucrt:abort.obj
 0003:000000d8       ___acrt_initial_locale_data 100bf0d8     libucrt:nlsdata.obj
 0003:00000190       ___acrt_initial_locale_pointers 100bf190     libucrt:nlsdata.obj
 0003:00000198       ___acrt_wide_c_locale_string 100bf198     libucrt:nlsdata.obj
 0003:0000019c       ___mb_cur_max              100bf19c     libucrt:nlsdata.obj
 0003:000001a0       __iob                      100bf1a0     libucrt:_file.obj
 0003:00000250       ___globallocalestatus      100bf250     libucrt:glstatus.obj
 0003:000002e8       ___acrt_initial_multibyte_data 100bf2e8     libucrt:mbctype.obj
 0003:00000810       __lookuptrailbytes         100bf810     libucrt:read.obj
 0003:00000920       ?g_detect_next_time@@3W4TriState@@A 100bf920     plugin.obj
 0003:00000924       ?c_methods@@3PAPB_WA       100bf924     cmdline.obj
 0003:00000930       ?g_plugin_prefix@@3V?$basic_string@_WU?$char_traits@_W@std@@V?$allocator@_W@2@@std@@A 100bf930     plugin.obj
 0003:00000e80       ??_R0?AVlogic_error@std@@@8 100bfe80     libcpmt:xthrow.obj
 0003:00000ea0       ??_R0?AVlength_error@std@@@8 100bfea0     libcpmt:xthrow.obj
 0003:00000ec0       ??_R0?AVout_of_range@std@@@8 100bfec0     libcpmt:xthrow.obj
 0003:00000ee0       ??_R0?AV_Locimp@locale@std@@@8 100bfee0     libcpmt:locale0.obj
 0003:00000f04       ??_R0?AVtype_info@@@8      100bff04     LIBCMT:std_type_info_static.obj
 0003:00000f1c       ??_R0?AV__non_rtti_object@std@@@8 100bff1c     libvcruntime:rtti.obj
 0003:00000f40       ??_R0?AVbad_typeid@std@@@8 100bff40     libvcruntime:rtti.obj
 0003:00000f60       ??_R0?AVbad_exception@std@@@8 100bff60     libvcruntime:frame.obj
 0003:00000f80       ??_R0?AVDNameNode@@@8      100bff80     libvcruntime:undname.obj
 0003:00000f98       ??_R0?AVcharNode@@@8       100bff98     libvcruntime:undname.obj
 0003:00000fb0       ??_R0?AVpcharNode@@@8      100bffb0     libvcruntime:undname.obj
 0003:00000fc8       ??_R0?AVpDNameNode@@@8     100bffc8     libvcruntime:undname.obj
 0003:00000fe4       ??_R0?AVDNameStatusNode@@@8 100bffe4     libvcruntime:undname.obj
 0003:00001004       ??_R0?AVpairNode@@@8       100c0004     libvcruntime:undname.obj
 0003:0000101c       ??_R0?AVMyCompressCodecsInfo@@@8 100c001c     archive.obj
 0003:00001040       ??_R0?AVComBase@@@8        100c0040     archive.obj
 0003:00001058       ??_R0?AUIHashers@@@8       100c0058     archive.obj
 0003:00001070       ??_R0?AUICompressCodecsInfo@@@8 100c0070     archive.obj
 0003:00001094       ??_R0?AUIUnknown@@@8       100c0094     archive.obj
 0003:000010ac       ??_R0?AUError@@@8          100c00ac     archive.obj
 0003:000010c0       ??_R0?AVbad_array_new_length@std@@@8 100c00c0     archive.obj
 0003:000010e8       ??_R0?AVbad_alloc@std@@@8  100c00e8     archive.obj
 0003:00001104       ??_R0?AVexception@std@@@8  100c0104     archive.obj
 0003:00001120       ??_R0?AV_Ref_count_base@std@@@8 100c0120     plugin.obj
 0003:000011b0       ??_R0?AV?$_Ref_count@V?$list@UError@@V?$allocator@UError@@@std@@@std@@@std@@@8 100c01b0     plugin.obj
 0003:00001204       ??_R0?AV?$_Ref_count@VArchive@@@std@@@8 100c0204     plugin.obj
 0003:00001230       ??_R0?AVPluginPanelItems@?1??extract@Plugin@@QAEXXZ@@8 100c0230     plugin.obj
 0003:00001270       ??_R0?AVPluginPanelItems@?1??get_files@Plugin@@QAEXPBUPluginPanelItem@@HHPAPB_W_K@Z@@8 100c0270     plugin.obj
 0003:000012cc       ??_R0?AVPluginPanelItemAccessor@Plugin@@@8 100c02cc     plugin.obj
 0003:00001344       ??_R0?AV?$_Ref_count@VFileFilter@Far@@@std@@@8 100c0344     ui.obj
 0003:00001378       ??_R0?AV?$numpunct@_W@std@@@8 100c0378     ui.obj
 0003:00001398       ??_R0?AVAttrDialog@@@8     100c0398     ui.obj
 0003:000013b4       ??_R0?AVSettingsDialog@@@8 100c03b4     ui.obj
 0003:000013d4       ??_R0?AVFormatLibraryInfoDialog@@@8 100c03d4     ui.obj
 0003:000013fc       ??_R0?AVMultiSelectDialog@@@8 100c03fc     ui.obj
 0003:0000141c       ??_R0?AVUpdateDialog@@@8   100c041c     ui.obj
 0003:00001438       ??_R0?AV?$num_put@_WV?$ostreambuf_iterator@_WU?$char_traits@_W@std@@@std@@@std@@@8 100c0438     ui.obj
 0003:00001490       ??_R0?AVExtractDialog@@@8  100c0490     ui.obj
 0003:000014ac       ??_R0?AVOverwriteDialog@@@8 100c04ac     ui.obj
 0003:000014cc       ??_R0?AVDialog@Far@@@8     100c04cc     ui.obj
 0003:000014e8       ??_R0?AVPasswordDialog@@@8 100c04e8     ui.obj
 0003:00001508       ??_R0?AVProgressMonitor@@@8 100c0508     ui.obj
 0003:00001528       ??_R0?AVNonCopyable@@@8    100c0528     ui.obj
 0003:00001548       ??_R0?AV?$basic_ostringstream@_WU?$char_traits@_W@std@@V?$allocator@_W@2@@std@@@8 100c0548     ui.obj
 0003:000015a0       ??_R0?AV?$basic_stringbuf@_WU?$char_traits@_W@std@@V?$allocator@_W@2@@std@@@8 100c05a0     ui.obj
 0003:000015f0       ??_R0?AV?$basic_ostream@_WU?$char_traits@_W@std@@@std@@@8 100c05f0     ui.obj
 0003:0000162c       ??_R0?AV?$basic_streambuf@_WU?$char_traits@_W@std@@@std@@@8 100c062c     ui.obj
 0003:0000166c       ??_R0?AV?$basic_ios@_WU?$char_traits@_W@std@@@std@@@8 100c066c     ui.obj
 0003:000016a4       ??_R0?AV?$ctype@_W@std@@@8 100c06a4     ui.obj
 0003:000016c4       ??_R0?AUctype_base@std@@@8 100c06c4     ui.obj
 0003:000016e4       ??_R0?AV_Iostream_error_category@std@@@8 100c06e4     ui.obj
 0003:00001710       ??_R0?AV_Generic_error_category@std@@@8 100c0710     ui.obj
 0003:0000173c       ??_R0?AVerror_category@std@@@8 100c073c     ui.obj
 0003:00001760       ??_R0?AVfailure@ios_base@std@@@8 100c0760     ui.obj
 0003:00001784       ??_R0?AVsystem_error@std@@@8 100c0784     ui.obj
 0003:000017a4       ??_R0?AV_System_error@std@@@8 100c07a4     ui.obj
 0003:000017c4       ??_R0?AVruntime_error@std@@@8 100c07c4     ui.obj
 0003:000017e4       ??_R0?AVfacet@locale@std@@@8 100c07e4     ui.obj
 0003:00001804       ??_R0?AU_Crt_new_delete@std@@@8 100c0804     ui.obj
 0003:00001828       ??_R0?AVios_base@std@@@8   100c0828     ui.obj
 0003:00001844       ??_R0?AV?$_Iosb@H@std@@@8  100c0844     ui.obj
 0003:00001860       ??_R0?AV_Facet_base@std@@@8 100c0860     ui.obj
 0003:00001880       ??_R0?AV?$_Ref_count@V?$set@IU?$less@I@std@@V?$allocator@I@2@@std@@@std@@@8 100c0880     extract.obj
 0003:000018d0       ??_R0?AV?$_Ref_count@VFileWriteCache@@@std@@@8 100c08d0     extract.obj
 0003:00001904       ??_R0?AV?$_Ref_count@VExtractProgress@@@std@@@8 100c0904     extract.obj
 0003:00001938       ??_R0?AV?$_Ref_count@W4OverwriteAction@@@std@@@8 100c0938     extract.obj
 0003:0000196c       ??_R0?AV?$_Ref_count@_N@std@@@8 100c096c     extract.obj
 0003:00001990       ??_R0?AVSetDirAttr@@@8     100c0990     extract.obj
 0003:000019ac       ??_R0?AVPrepareExtract@@@8 100c09ac     extract.obj
 0003:000019cc       ??_R0?AVArchiveExtractor@@@8 100c09cc     extract.obj
 0003:000019ec       ??_R0?AVCachedFileExtractStream@@@8 100c09ec     extract.obj
 0003:00001a14       ??_R0?AVExtractProgress@@@8 100c0a14     extract.obj
 0003:00001a34       ??_R0?AUICryptoGetTextPassword@@@8 100c0a34     extract.obj
 0003:00001a5c       ??_R0?AUIArchiveExtractCallback@@@8 100c0a5c     extract.obj
 0003:00001a84       ??_R0?AUISequentialOutStream@@@8 100c0a84     extract.obj
 0003:00001aa8       ??_R0?AUIProgress@@@8      100c0aa8     extract.obj
 0003:00001ac0       ??_R0?AVbad_weak_ptr@std@@@8 100c0ac0     extract.obj
 0003:00001ae0       ??_R0?AVArchiveOpener@@@8  100c0ae0     open.obj
 0003:00001afc       ??_R0?AVFile@@@8           100c0afc     open.obj
 0003:00001b10       ??_R0?AVArchiveOpenStream@@@8 100c0b10     open.obj
 0003:00001b30       ??_R0?AVArchiveSubStream@@@8 100c0b30     open.obj
 0003:00001b50       ??_R0?AUIArchiveOpenVolumeCallback@@@8 100c0b50     open.obj
 0003:00001b7c       ??_R0?AUIArchiveOpenCallback@@@8 100c0b7c     open.obj
 0003:00001ba0       ??_R0?AUIInStream@@@8      100c0ba0     open.obj
 0003:00001bb8       ??_R0?AUISequentialInStream@@@8 100c0bb8     open.obj
 0003:00001bdc       ??_R0?AV?$_Ref_count@VArchiveUpdateProgress@@@std@@@8 100c0bdc     update.obj
 0003:00001c18       ??_R0?AV?$_Ref_count@V?$map@IUFileIndexInfo@@U?$less@I@std@@V?$allocator@U?$pair@$$CBIUFileIndexInfo@@@std@@@3@@std@@@std@@@8 100c0c18     update.obj
 0003:00001c98       ??_R0?AVDeleteSrcFiles@@@8 100c0c98     update.obj
 0003:00001cb8       ??_R0?AVArchiveUpdater@@@8 100c0cb8     update.obj
 0003:00001cd8       ??_R0?AVPrepareUpdate@@@8  100c0cd8     update.obj
 0003:00001cf4       ??_R0?AVFileReadStream@@@8 100c0cf4     update.obj
 0003:00001d14       ??_R0?AVMultiVolumeUpdateStream@@@8 100c0d14     update.obj
 0003:00001d3c       ??_R0?AVSfxUpdateStream@@@8 100c0d3c     update.obj
 0003:00001d5c       ??_R0?AVSimpleUpdateStream@@@8 100c0d5c     update.obj
 0003:00001d80       ??_R0?AVUpdateStream@@@8   100c0d80     update.obj
 0003:00001d9c       ??_R0?AVArchiveUpdateProgress@@@8 100c0d9c     update.obj
 0003:00001dc0       ??_R0?AUICryptoGetTextPassword2@@@8 100c0dc0     update.obj
 0003:00001de8       ??_R0?AUIArchiveUpdateCallback@@@8 100c0de8     update.obj
 0003:00001e10       ??_R0?AUIStreamGetSize@@@8 100c0e10     update.obj
 0003:00001e30       ??_R0?AUIOutStream@@@8     100c0e30     update.obj
 0003:00001e4c       ??_R0?AV?$_Ref_count@VArchiveFileDeleterProgress@@@std@@@8 100c0e4c     delete.obj
 0003:00001e8c       ??_R0?AVArchiveFileDeleter@@@8 100c0e8c     delete.obj
 0003:00001eb0       ??_R0?AVArchiveFileDeleterStream@@@8 100c0eb0     delete.obj
 0003:00001ed8       ??_R0?AVArchiveFileDeleterProgress@@@8 100c0ed8     delete.obj
 0003:00001f04       ??_R0?AVxml_parser@@@8     100c0f04     options.obj
 0003:00001f20       ??_R0?AVIParseCallback@SimpleXML@@@8 100c0f20     options.obj
 0003:00001f48       ??_R0?AVArchiveTester@@@8  100c0f48     test.obj
 0003:00001f64       ??_R0?AVSfxOptionsDialog@@@8 100c0f64     sfx.obj
 0003:00001f84       ??_R0?AVAttachSfxModuleProgress@@@8 100c0f84     sfx.obj
 0003:00001fac       ??_R0?AU_RTL_CRITICAL_SECTION@@@8 100c0fac     sysutils.obj
 0003:00001fd0       ??_R0?AVCriticalSection@@@8 100c0fd0     sysutils.obj
 0003:00001ff0       ??_R0?AVParseException@SimpleXML@@@8 100c0ff0     SimpleXML.obj
 0003:00002020       ?_Index@ios_base@std@@0HA  100c1020     libcpmt:ios.obj
 0003:00002058       ?_Id_cnt@id@locale@std@@0HA 100c1058     libcpmt:locale0.obj
 0003:0000205c       ?_Clocptr@_Locimp@locale@std@@0PAV123@A 100c105c     libcpmt:locale0.obj
 0003:00002060       ?id@?$ctype@G@std@@2V0locale@2@A 100c1060     libcpmt:locale0.obj
 0003:00002064       ?id@?$codecvt@_WDU_Mbstatet@@@std@@2V0locale@2@A 100c1064     libcpmt:locale0.obj
 0003:00002068       ?id@?$codecvt@GDU_Mbstatet@@@std@@2V0locale@2@A 100c1068     libcpmt:locale0.obj
 0003:0000206c       ?id@?$ctype@_W@std@@2V0locale@2@A 100c106c     libcpmt:locale0.obj
 0003:00002070       ?id@?$ctype@D@std@@2V0locale@2@A 100c1070     libcpmt:locale0.obj
 0003:00002158       ?id@?$num_get@DV?$istreambuf_iterator@DU?$char_traits@D@std@@@std@@@std@@2V0locale@2@A 100c1158     libcpmt:locale.obj
 0003:0000215c       ?id@?$num_put@DV?$ostreambuf_iterator@DU?$char_traits@D@std@@@std@@@std@@2V0locale@2@A 100c115c     libcpmt:locale.obj
 0003:00002160       ?id@?$numpunct@D@std@@2V0locale@2@A 100c1160     libcpmt:locale.obj
 0003:00002164       ?id@?$codecvt@DDU_Mbstatet@@@std@@2V0locale@2@A 100c1164     libcpmt:locale.obj
