 colorer

 Timestamp is 5f5c44b3 (Sat Sep 12 04:46:59 2020)

 Preferred load address is 10000000

 Start         Length     Name                   Class
 0001:00000000 00000780H .text$di                CODE
 0001:00000780 0016d720H .text$mn                CODE
 0001:0016dea0 00012400H .text$x                 CODE
 0001:001802a0 000004e8H .text$yd                CODE
 0002:00000000 0000024cH .idata$5                DATA
 0002:0000024c 00000004H .00cfg                  DATA
 0002:00000250 00000004H .CRT$XCA                DATA
 0002:00000254 00000014H .CRT$XCC                DATA
 0002:00000268 00000008H .CRT$XCL                DATA
 0002:00000270 000000c0H .CRT$XCU                DATA
 0002:00000330 00000004H .CRT$XCZ                DATA
 0002:00000334 00000004H .CRT$XIA                DATA
 0002:00000338 00000014H .CRT$XIC                DATA
 0002:0000034c 00000004H .CRT$XIZ                DATA
 0002:00000350 00000004H .CRT$XLA                DATA
 0002:00000354 00000004H .CRT$XLZ                DATA
 0002:00000358 00000004H .CRT$XPA                DATA
 0002:0000035c 00000004H .CRT$XPB                DATA
 0002:00000360 00000008H .CRT$XPX                DATA
 0002:00000368 00000004H .CRT$XPXA               DATA
 0002:0000036c 00000004H .CRT$XPZ                DATA
 0002:00000370 00000004H .CRT$XTA                DATA
 0002:00000374 0000000cH .CRT$XTZ                DATA
 0002:00000378 00000000H .gfids$y                DATA
 0002:00000380 0007864cH .rdata                  DATA
 0002:000789cc 00000018H .rdata$T                DATA
 0002:000789e4 0000e63cH .rdata$r                DATA
 0002:00087020 000010d4H .rdata$sxdata           DATA
 0002:000880f4 000003e0H .rdata$zzzdbg           DATA
 0002:000884d4 00000004H .rtc$IAA                DATA
 0002:000884d8 00000004H .rtc$IZZ                DATA
 0002:000884dc 00000004H .rtc$TAA                DATA
 0002:000884e0 00000004H .rtc$TZZ                DATA
 0002:000884e4 00000004H .tls                    DATA
 0002:000884e8 00000008H .tls$                   DATA
 0002:000884f0 00000008H .tls$ZZZ                DATA
 0002:000884f8 00015998H .xdata$x                DATA
 0002:0009de90 00000114H .edata                  DATA
 0002:0009dfa4 0000003cH .idata$2                DATA
 0002:0009dfe0 00000014H .idata$3                DATA
 0002:0009dff4 0000024cH .idata$4                DATA
 0002:0009e240 00000b12H .idata$6                DATA
 0003:00000000 00035ca0H .data                   DATA
 0003:00035ca0 0000a290H .data$r                 DATA
 0003:0003ff30 00001a20H .bss                    DATA
 0004:00000000 00000060H .rsrc$01                DATA
 0004:00000060 00000350H .rsrc$02                DATA

  Address         Publics by Value              Rva+Base       Lib:Object

 0000:00000000       ___guard_longjmp_table     00000000     <absolute>
 0000:00000000       __except_list              00000000     <absolute>
 0000:00000000       ___hybrid_code_map         00000000     <absolute>
 0000:00000000       ___hybrid_auxiliary_iat    00000000     <absolute>
 0000:00000000       ___volatile_metadata       00000000     <absolute>
 0000:00000000       ___AbsoluteZero            00000000     <absolute>
 0000:00000000       ___guard_longjmp_count     00000000     <absolute>
 0000:00000000       ___dynamic_value_reloc_table 00000000     <absolute>
 0000:00000000       ___enclave_config          00000000     <absolute>
 0000:00000000       ___hybrid_code_map_count   00000000     <absolute>
 0000:00000000       ___guard_fids_table        00000000     <absolute>
 0000:00000000       ___guard_fids_count        00000000     <absolute>
 0000:00000000       ___guard_iat_table         00000000     <absolute>
 0000:00000000       ___guard_iat_count         00000000     <absolute>
 0000:0000002c       __tls_array                0000002c     <absolute>
 0000:00000100       ___guard_flags             00000100     <absolute>
 0000:00000435       ___safe_se_handler_count   00000435     <absolute>
 0000:00000000       ___ImageBase               10000000     <linker-defined>
 0001:00000780       ??0exception@std@@QAE@ABV01@@Z 10001780 f i ChooseTypeMenu.cpp.obj
 0001:000007b0       ??1context_self_unblock@Concurrency@@UAE@XZ 100017b0 f i libconcrt:Exceptions.obj
 0001:000007b0       ??1out_of_range@std@@UAE@XZ 100017b0 f i libcpmt:xthrow.obj
 0001:000007b0       ??1context_unblock_unbalanced@Concurrency@@UAE@XZ 100017b0 f i libconcrt:Exceptions.obj
 0001:000007b0       ??1runtime_error@std@@UAE@XZ 100017b0 f i FarEditor.cpp.obj
 0001:000007b0       ??1length_error@std@@UAE@XZ 100017b0 f i libcpmt:xthrow.obj
 0001:000007b0       ??1bad_alloc@std@@UAE@XZ   100017b0 f i FarEditor.cpp.obj
 0001:000007b0       ??1__non_rtti_object@std@@UAE@XZ 100017b0 f i libvcruntime:rtti.obj
 0001:000007b0       ??1improper_lock@Concurrency@@UAE@XZ 100017b0 f i libconcrt:rtlocks.obj
 0001:000007b0       ??1bad_cast@std@@UAE@XZ    100017b0 f i spdlog:fmt.cpp.obj
 0001:000007b0       ??1invalid_argument@std@@UAE@XZ 100017b0 f i libcpmt:xthrow.obj
 0001:000007b0       ??1exception@std@@UAE@XZ   100017b0 f i ChooseTypeMenu.cpp.obj
 0001:000007b0       ??1unsupported_os@Concurrency@@UAE@XZ 100017b0 f i libconcrt:Exceptions.obj
 0001:000007b0       ??1invalid_scheduler_policy_thread_specification@Concurrency@@UAE@XZ 100017b0 f i libconcrt:Exceptions.obj
 0001:000007b0       ??1nested_scheduler_missing_detach@Concurrency@@UAE@XZ 100017b0 f i libconcrt:Exceptions.obj
 0001:000007b0       ??1invalid_scheduler_policy_value@Concurrency@@UAE@XZ 100017b0 f i libconcrt:Exceptions.obj
 0001:000007b0       ??1invalid_oversubscribe_operation@Concurrency@@UAE@XZ 100017b0 f i libconcrt:Exceptions.obj
 0001:000007b0       ??1format_error@v6@fmt@@UAE@XZ 100017b0 f i spdlog:fmt.cpp.obj
 0001:000007b0       ??1missing_wait@Concurrency@@UAE@XZ 100017b0 f i libconcrt:Exceptions.obj
 0001:000007b0       ??1improper_scheduler_attach@Concurrency@@UAE@XZ 100017b0 f i libconcrt:Exceptions.obj
 0001:000007b0       ??1improper_scheduler_reference@Concurrency@@UAE@XZ 100017b0 f i libconcrt:Exceptions.obj
 0001:000007b0       ??1scheduler_worker_creation_error@Concurrency@@UAE@XZ 100017b0 f i libconcrt:Exceptions.obj
 0001:000007b0       ??1invalid_scheduler_policy_key@Concurrency@@UAE@XZ 100017b0 f i libconcrt:Exceptions.obj
 0001:000007b0       ??1invalid_operation@Concurrency@@UAE@XZ 100017b0 f i libconcrt:ResourceManager.obj
 0001:000007b0       ??1_Interruption_exception@details@Concurrency@@UAE@XZ 100017b0 f i libconcrt:TaskCollection.obj
 0001:000007b0       ??1bad_exception@std@@UAE@XZ 100017b0 f i libvcruntime:frame.obj
 0001:000007b0       ??1scheduler_resource_allocation_error@Concurrency@@UAE@XZ 100017b0 f i libconcrt:Platform.obj
 0001:000007b0       ??1system_error@std@@UAE@XZ 100017b0 f i colorer:XStr.cpp.obj
 0001:000007b0       ??1bad_array_new_length@std@@UAE@XZ 100017b0 f i FarEditor.cpp.obj
 0001:000007d0       ?what@exception@std@@UBEPBDXZ 100017d0 f i ChooseTypeMenu.cpp.obj
 0001:000007e0       ??_Ebad_cast@std@@UAEPAXI@Z 100017e0 f i spdlog:fmt.cpp.obj
 0001:000007e0       ??_Eexception@std@@UAEPAXI@Z 100017e0 f i * CIL library *:* CIL module *
 0001:000007e0       ??_Gruntime_error@std@@UAEPAXI@Z 100017e0 f i FarEditor.cpp.obj
 0001:000007e0       ??_Gbad_array_new_length@std@@UAEPAXI@Z 100017e0 f i FarEditor.cpp.obj
 0001:000007e0       ??_Ebad_alloc@std@@UAEPAXI@Z 100017e0 f i * CIL library *:* CIL module *
 0001:000007e0       ??_Gexception@std@@UAEPAXI@Z 100017e0 f i ChooseTypeMenu.cpp.obj
 0001:000007e0       ??_Ebad_array_new_length@std@@UAEPAXI@Z 100017e0 f i * CIL library *:* CIL module *
 0001:000007e0       ??_Gbad_alloc@std@@UAEPAXI@Z 100017e0 f i FarEditor.cpp.obj
 0001:000007e0       ??_Gbad_cast@std@@UAEPAXI@Z 100017e0 f i spdlog:fmt.cpp.obj
 0001:000007e0       ??_Eruntime_error@std@@UAEPAXI@Z 100017e0 f i * CIL library *:* CIL module *
 0001:00000810       ??1ChooseTypeMenu@@QAE@XZ  10001810 f   ChooseTypeMenu.cpp.obj
 0001:00000850       ?AddItem@ChooseTypeMenu@@AAEIPB_W_KPBVFileType@@I@Z 10001850 f   ChooseTypeMenu.cpp.obj
 0001:00000960       ?AddFavorite@ChooseTypeMenu@@QAEIPBVFileType@@@Z 10001960 f   ChooseTypeMenu.cpp.obj
 0001:000009e0       ?DelFromFavorites@ChooseTypeMenu@@QAEXI@Z 100019e0 f   ChooseTypeMenu.cpp.obj
 0001:00000c30       ?GenerateName@ChooseTypeMenu@@QAEPAVSString@@PBVFileType@@@Z 10001c30 f   ChooseTypeMenu.cpp.obj
 0001:00000d40       ?endExtSubset@AbstractDOMParser@xercesc_3_2@@UAEXXZ 10001d40 f i xerces-c_3:AbstractDOMParser.cpp.obj
 0001:00000d40       ?NotifyAffinitizedWork@FairScheduleGroupSegment@details@Concurrency@@UAEXXZ 10001d40 f i libconcrt:SchedulerBase.obj
 0001:00000d40       ??1OutOfMemoryException@xercesc_3_2@@QAE@XZ 10001d40 f i xerces-c_3:MemoryManagerImpl.cpp.obj
 0001:00000d40       ??1DOMNodeImpl@xercesc_3_2@@QAE@XZ 10001d40 f i xerces-c_3:DOMNodeImpl.cpp.obj
 0001:00000d40       ?resetCachedGrammar@XMLScanner@xercesc_3_2@@UAEXXZ 10001d40 f i xerces-c_3:XMLScanner.cpp.obj
 0001:00000d40       ??3@YAXPAXPAVDOMDocumentImpl@xercesc_3_2@@@Z 10001d40 f i xerces-c_3:AbstractDOMParser.cpp.obj
 0001:00000d40       ?__global_delete@@YAXPAXI@Z 10001d40 f i * CIL library *:* CIL module *
 0001:00000d40       ??3@YAXPAXPAVDOMDocumentImpl@xercesc_3_2@@W4NodeObjectType@DOMMemoryManager@1@@Z 10001d40 f i xerces-c_3:AbstractDOMParser.cpp.obj
 0001:00000d40       ??3@YAXPAXPAVDOMDocument@xercesc_3_2@@W4NodeObjectType@DOMMemoryManager@1@@Z 10001d40 f i xerces-c_3:DOMAttrImpl.cpp.obj
 0001:00000d40       ?reset@DTDValidator@xercesc_3_2@@UAEXXZ 10001d40 f i xerces-c_3:DTDValidator.cpp.obj
 0001:00000d40       ?normalize@DOMNodeImpl@xercesc_3_2@@QAEXXZ 10001d40 f i xerces-c_3:DOMNodeImpl.cpp.obj
 0001:00000d40       ??1TextConsoleViewer@@QAE@XZ 10001d40 f i colorer:TextConsoleViewer.cpp.obj
 0001:00000d40       ?destroy@stl_condition_variable_win7@details@Concurrency@@UAEXXZ 10001d40 f i libcpmt:cond.obj
 0001:00000d40       ?destroy@stl_condition_variable_vista@details@Concurrency@@UAEXXZ 10001d40 f i libcpmt:cond.obj
 0001:00000d40       ?flush@?$wincolor_sink@Uconsole_mutex@details@spdlog@@@sinks@spdlog@@UAEXXZ 10001d40 f i spdlog:color_sinks.cpp.obj
 0001:00000d40       ?reset@DTDAttDef@xercesc_3_2@@UAEXXZ 10001d40 f i xerces-c_3:DTDAttDef.cpp.obj
 0001:00000d40       ??1XMLCanRepGroup@xercesc_3_2@@QAE@XZ 10001d40 f i xerces-c_3:XMLCanRepGroup.cpp.obj
 0001:00000d40       ?reset@SchemaAttDef@xercesc_3_2@@UAEXXZ 10001d40 f i xerces-c_3:SchemaAttDef.cpp.obj
 0001:00000d40       ?postParseValidation@SchemaValidator@xercesc_3_2@@UAEXXZ 10001d40 f i xerces-c_3:SchemaValidator.cpp.obj
 0001:00000d40       ??3@YAXPAXPAVDOMDocument@xercesc_3_2@@@Z 10001d40 f i xerces-c_3:AbstractDOMParser.cpp.obj
 0001:00000d40       ?resetErrors@AnnotationErrorReporter@xercesc_3_2@@UAEXXZ 10001d40 f i xerces-c_3:TraverseSchema.cpp.obj
 0001:00000d40       ??1DOMCharacterDataImpl@xercesc_3_2@@QAE@XZ 10001d40 f i xerces-c_3:DOMCharacterDataImpl.cpp.obj
 0001:00000d40       ?RMAwaken@InternalContextBase@details@Concurrency@@EAEXXZ 10001d40 f i libconcrt:InternalContextBase.obj
 0001:00000d40       ?flush@XMLFormatTarget@xercesc_3_2@@UAEXXZ 10001d40 f i xerces-c_3:MemBufFormatTarget.cpp.obj
 0001:00000d40       ?startExtSubset@AbstractDOMParser@xercesc_3_2@@UAEXXZ 10001d40 f i xerces-c_3:AbstractDOMParser.cpp.obj
 0001:00000d40       ?resetErrors@DOMLSParserImpl@xercesc_3_2@@UAEXXZ 10001d40 f i xerces-c_3:DOMLSParserImpl.cpp.obj
 0001:00000d40       @_guard_check_icall_nop@4  10001d40 f i LIBCMT:guard_support.obj
 0001:00000d40       ?__empty_global_delete@@YAXPAXI@Z 10001d40 f i ChooseTypeMenu.cpp.obj
 0001:00000d40       ?orphanChild@CMLeaf@xercesc_3_2@@UAEXXZ 10001d40 f i xerces-c_3:DFAContentModel.cpp.obj
 0001:00000d40       ?inheritAdditionalFacet@AbstractStringValidator@xercesc_3_2@@MAEXXZ 10001d40 f i xerces-c_3:AbstractStringValidator.cpp.obj
 0001:00000d40       ?orphanChild@CMAny@xercesc_3_2@@UAEXXZ 10001d40 f i xerces-c_3:CMAny.cpp.obj
 0001:00000d40       ?flush_@?$null_sink@Unull_mutex@details@spdlog@@@sinks@spdlog@@MAEXXZ 10001d40 f i FarEditorSet.cpp.obj
 0001:00000d40       ?release@DOMTreeWalkerImpl@xercesc_3_2@@UAEXXZ 10001d40 f i xerces-c_3:DOMTreeWalkerImpl.cpp.obj
 0001:00000d40       ??1critical_section@Concurrency@@QAE@XZ 10001d40 f i libconcrt:rtlocks.obj
 0001:00000d40       ?inheritAdditionalFacet@AbstractNumericFacetValidator@xercesc_3_2@@MAEXXZ 10001d40 f i xerces-c_3:AbstractNumericFacetValidator.cpp.obj
 0001:00000d40       ?Destroy@WaitAnyBlock@details@Concurrency@@UAEXXZ 10001d40 f i libconcrt:event.obj
 0001:00000d40       ??1EndOfEntityException@xercesc_3_2@@QAE@XZ 10001d40 f i xerces-c_3:ReaderMgr.cpp.obj
 0001:00000d40       ?resetEntities@XercesDOMParser@xercesc_3_2@@UAEXXZ 10001d40 f i xerces-c_3:XercesDOMParser.cpp.obj
 0001:00000d40       ?resetEntities@DOMLSParserImpl@xercesc_3_2@@UAEXXZ 10001d40 f i xerces-c_3:DOMLSParserImpl.cpp.obj
 0001:00000d40       ?resetErrors@XercesDOMParser@xercesc_3_2@@UAEXXZ 10001d40 f i xerces-c_3:XercesDOMParser.cpp.obj
 0001:00000d40       ?postParseValidation@DTDValidator@xercesc_3_2@@UAEXXZ 10001d40 f i xerces-c_3:DTDValidator.cpp.obj
 0001:00000d40       ??1DOMChildNode@xercesc_3_2@@QAE@XZ 10001d40 f i xerces-c_3:DOMChildNode.cpp.obj
 0001:00000d40       ?destroy@stl_critical_section_win7@details@Concurrency@@UAEXXZ 10001d40 f i libcpmt:mutex.obj
 0001:00000d50       ??_H@YGXPAXIIP6EPAX0@Z@Z   10001d50 f i ChooseTypeMenu.cpp.obj
 0001:00000d80       ?signbit@@YA_NN@Z          10001d80 f i FarEditor.cpp.obj
 0001:00000d80       ?signbit@@YA_NO@Z          10001d80 f i FarEditor.cpp.obj
 0001:00000da0       ___local_stdio_printf_options 10001da0 f i FarEditor.cpp.obj
 0001:00000db0       __vsnwprintf_l             10001db0 f i FarEditor.cpp.obj
 0001:00000df0       __snwprintf                10001df0 f i FarEditor.cpp.obj
 0001:00000e10       ??0exception@std@@QAE@QBD@Z 10001e10 f i FarEditor.cpp.obj
 0001:00000e50       ??0bad_array_new_length@std@@QAE@XZ 10001e50 f i FarEditor.cpp.obj
 0001:00000e70       ?_Throw_bad_array_new_length@std@@YAXXZ 10001e70 f i FarEditor.cpp.obj
 0001:00000e90       ??0bad_array_new_length@std@@QAE@ABV01@@Z 10001e90 f i FarEditor.cpp.obj
 0001:00000ec0       ??0bad_alloc@std@@QAE@ABV01@@Z 10001ec0 f i FarEditor.cpp.obj
 0001:00000ef0       ??0runtime_error@std@@QAE@PBD@Z 10001ef0 f i FarEditor.cpp.obj
 0001:00000f30       ??0runtime_error@std@@QAE@ABV01@@Z 10001f30 f i FarEditor.cpp.obj
 0001:00000f60       ??_Eformat_error@v6@fmt@@UAEPAXI@Z 10001f60 f i * CIL library *:* CIL module *
 0001:00000f60       ??_Gformat_error@v6@fmt@@UAEPAXI@Z 10001f60 f i FarEditor.cpp.obj
 0001:00000f80       ?count_digits@internal@v6@fmt@@YAH_K@Z 10001f80 f i FarEditor.cpp.obj
 0001:00001000       ?getRoot@DOMTreeWalkerImpl@xercesc_3_2@@UAEPAVDOMNode@2@XZ 10002000 f i xerces-c_3:DOMTreeWalkerImpl.cpp.obj
 0001:00001000       ?getFilter@DOMNodeIteratorImpl@xercesc_3_2@@UAEPAVDOMNodeFilter@2@XZ 10002000 f i xerces-c_3:DOMNodeIteratorImpl.cpp.obj
 0001:00001000       ?getData@CharOp@xercesc_3_2@@UBEHXZ 10002000 f i xerces-c_3:Op.cpp.obj
 0001:00001000       ?getMemoryManager@?$ValueVectorOf@H@xercesc_3_2@@QBEPAVMemoryManager@2@XZ 10002000 f i xerces-c_3:XercesXPath.cpp.obj
 0001:00001000       ?getMemoryManager@?$ValueVectorOf@PAVComplexTypeInfo@xercesc_3_2@@@xercesc_3_2@@QBEPAVMemoryManager@2@XZ 10002000 f i xerces-c_3:SGXMLScanner.cpp.obj
 0001:00001000       ?getMemoryManager@?$ValueVectorOf@VformatNodeHolder@xercesc_3_2@@@xercesc_3_2@@QBEPAVMemoryManager@2@XZ 10002000 f i xerces-c_3:ContentSpecNode.cpp.obj
 0001:00001000       ?getToken@RangeOp@xercesc_3_2@@UBEPBVToken@2@XZ 10002000 f i xerces-c_3:Op.cpp.obj
 0001:00001000       ?getMemoryManager@?$ValueVectorOf@I@xercesc_3_2@@QBEPAVMemoryManager@2@XZ 10002000 f i xerces-c_3:XPathMatcher.cpp.obj
 0001:00001000       ?getScanner@XMLValidator@xercesc_3_2@@IAEPAVXMLScanner@2@XZ 10002000 f i xerces-c_3:DTDValidator.cpp.obj
 0001:00001000       ?getChild@ChildOp@xercesc_3_2@@UBEPBVOp@2@XZ 10002000 f i xerces-c_3:Op.cpp.obj
 0001:00001000       ?length@SString@@UBEIXZ    10002000 f i FarEditor.cpp.obj
 0001:00001000       ?getLiteral@StringOp@xercesc_3_2@@UBEPB_WXZ 10002000 f i xerces-c_3:Op.cpp.obj
 0001:00001000       ?getSystemId@InputSource@xercesc_3_2@@UBEPB_WXZ 10002000 f i colorer:LocalFileXmlInputSource.cpp.obj
 0001:00001000       ?getString@StringToken@xercesc_3_2@@UBEPB_WXZ 10002000 f i xerces-c_3:StringToken.cpp.obj
 0001:00001000       ?getKey@XMLEntityDecl@xercesc_3_2@@QBEPB_WXZ 10002000 f i xerces-c_3:DTDGrammar.cpp.obj
 0001:00001000       ?getPublicId@DOMLSInputImpl@xercesc_3_2@@UBEPB_WXZ 10002000 f i xerces-c_3:DOMLSInputImpl.cpp.obj
 0001:00001000       ?getId@XSObject@xercesc_3_2@@UBEIXZ 10002000 f i xerces-c_3:XSObject.cpp.obj
 0001:00001000       ?getLocationHints@XMLSchemaDescriptionImpl@xercesc_3_2@@UBEPBV?$RefArrayVectorOf@_W@2@XZ 10002000 f i xerces-c_3:XMLSchemaDescriptionImpl.cpp.obj
 0001:00001000       ?getID@Region@@UBEHXZ      10002000 f i colorer:HRCParserImpl.cpp.obj
 0001:00001000       ?getLocation@DOMErrorImpl@xercesc_3_2@@UBEPAVDOMLocator@2@XZ 10002000 f i xerces-c_3:DOMErrorImpl.cpp.obj
 0001:00001000       ?getGroup@FileTypeImpl@@UBEPBVString@@XZ 10002000 f i colorer:FileTypeImpl.cpp.obj
 0001:00001000       ?getMemoryManager@?$ValueVectorOf@_N@xercesc_3_2@@QBEPAVMemoryManager@2@XZ 10002000 f i xerces-c_3:SGXMLScanner.cpp.obj
 0001:00001000       ?getMax@ClosureToken@xercesc_3_2@@UBEHXZ 10002000 f i xerces-c_3:ClosureToken.cpp.obj
 0001:00001010       ?setContentModel@SchemaElementDecl@xercesc_3_2@@UAEXQAVXMLContentModel@2@@Z 10002010 f i xerces-c_3:SchemaElementDecl.cpp.obj
 0001:00001010       ?setMaxBlockSize@TextParser@@UAEXH@Z 10002010 f i colorer:TextParserImpl.cpp.obj
 0001:00001010       ?setNamespaceScope@ValidationContext@xercesc_3_2@@UAEXPAVNamespaceScope@2@@Z 10002010 f i xerces-c_3:ValidationContextImpl.cpp.obj
 0001:00001010       ?setMin@Token@xercesc_3_2@@UAEXH@Z 10002010 f i xerces-c_3:RangeToken.cpp.obj
 0001:00001010       ?serialize@XMLGrammarDescription@xercesc_3_2@@UAEXAAVXSerializeEngine@2@@Z 10002010 f i xerces-c_3:XMLGrammarDescription.cpp.obj
 0001:00001010       ?checkAdditionalFacetConstraintsBase@AbstractNumericFacetValidator@xercesc_3_2@@MBEXQAVMemoryManager@2@@Z 10002010 f i xerces-c_3:AbstractNumericFacetValidator.cpp.obj
 0001:00001010       ?sink_it_@?$null_sink@Unull_mutex@details@spdlog@@@sinks@spdlog@@MAEXABUlog_msg@details@3@@Z 10002010 f i FarEditorSet.cpp.obj
 0001:00001010       ?startJob@LineSource@@UAEXI@Z 10002010 f i FarEditor.cpp.obj
 0001:00001010       ?startInputSource@XercesDOMParser@xercesc_3_2@@UAEXABVInputSource@2@@Z 10002010 f i xerces-c_3:XercesDOMParser.cpp.obj
 0001:00001010       ?endInputSource@XercesDOMParser@xercesc_3_2@@UAEXABVInputSource@2@@Z 10002010 f i xerces-c_3:XercesDOMParser.cpp.obj
 0001:00001010       ?endEntityReference@XSDDOMParser@xercesc_3_2@@UAEXABVXMLEntityDecl@2@@Z 10002010 f i xerces-c_3:XSDDOMParser.cpp.obj
 0001:00001010       ?validateElement@DTDValidator@xercesc_3_2@@UAEXPBVXMLElementDecl@2@@Z 10002010 f i xerces-c_3:DTDValidator.cpp.obj
 0001:00001010       ?checkAdditionalFacetConstraints@AbstractNumericFacetValidator@xercesc_3_2@@MBEXQAVMemoryManager@2@@Z 10002010 f i xerces-c_3:AbstractNumericFacetValidator.cpp.obj
 0001:00001010       ?setContentSpec@SchemaElementDecl@xercesc_3_2@@UAEXPAVContentSpecNode@2@@Z 10002010 f i xerces-c_3:SchemaElementDecl.cpp.obj
 0001:00001010       ?endInputSource@DOMLSParserImpl@xercesc_3_2@@UAEXABVInputSource@2@@Z 10002010 f i xerces-c_3:DOMLSParserImpl.cpp.obj
 0001:00001010       ?setScanner@ValidationContext@xercesc_3_2@@UAEXPAVXMLScanner@2@@Z 10002010 f i xerces-c_3:ValidationContextImpl.cpp.obj
 0001:00001010       ?endParsing@RegionHandler@@UAEXI@Z 10002010 f i colorer:Outliner.cpp.obj
 0001:00001010       ?setElemStack@ValidationContext@xercesc_3_2@@UAEXPAVElemStack@2@@Z 10002010 f i xerces-c_3:ValidationContextImpl.cpp.obj
 0001:00001010       ?setNodeValue@DOMNodeImpl@xercesc_3_2@@QAEXPB_W@Z 10002010 f i xerces-c_3:DOMNodeImpl.cpp.obj
 0001:00001010       ?serialize@XMLNumber@xercesc_3_2@@UAEXAAVXSerializeEngine@2@@Z 10002010 f i xerces-c_3:XMLNumber.cpp.obj
 0001:00001010       ?serialize@XMLAttDefList@xercesc_3_2@@UAEXAAVXSerializeEngine@2@@Z 10002010 f i xerces-c_3:XMLAttDefList.cpp.obj
 0001:00001010       ?endJob@LineSource@@UAEXI@Z 10002010 f i FarEditor.cpp.obj
 0001:00001010       ?startInputSource@DOMLSParserImpl@xercesc_3_2@@UAEXABVInputSource@2@@Z 10002010 f i xerces-c_3:DOMLSParserImpl.cpp.obj
 0001:00001010       ?startParsing@RegionHandler@@UAEXI@Z 10002010 f i colorer:Outliner.cpp.obj
 0001:00001010       ?checkAdditionalFacetConstraints@AbstractStringValidator@xercesc_3_2@@MBEXQAVMemoryManager@2@@Z 10002010 f i xerces-c_3:AbstractStringValidator.cpp.obj
 0001:00001010       ?startEntityReference@XSDDOMParser@xercesc_3_2@@UAEXABVXMLEntityDecl@2@@Z 10002010 f i xerces-c_3:XSDDOMParser.cpp.obj
 0001:00001010       ?setMax@Token@xercesc_3_2@@UAEXH@Z 10002010 f i xerces-c_3:RangeToken.cpp.obj
 0001:00001010       ?serialize@Grammar@xercesc_3_2@@UAEXAAVXSerializeEngine@2@@Z 10002010 f i xerces-c_3:Grammar.cpp.obj
 0001:00001010       ?setSystemId@XMLDTDDescription@xercesc_3_2@@UAEXQB_W@Z 10002010 f i xerces-c_3:XMLDTDDescription.cpp.obj
 0001:00001020       ??1LineSource@@MAE@XZ      10002020 f i FarEditor.cpp.obj
 0001:00001030       ??_GLineSource@@MAEPAXI@Z  10002030 f i FarEditor.cpp.obj
 0001:00001030       ??_ELineSource@@MAEPAXI@Z  10002030 f i * CIL library *:* CIL module *
 0001:00001060       ?styled@LineRegion@@QAEPBVStyledRegion@@XZ 10002060 f i FarEditor.cpp.obj
 0001:000010d0       ??0LineRegion@@QAE@ABV0@@Z 100020d0 f i FarEditor.cpp.obj
 0001:00001110       ??0FarEditor@@QAE@PAUPluginStartupInfo@@PAVParserFactory@@_N@Z 10002110 f   FarEditor.cpp.obj
 0001:000013c0       ??_EFarEditor@@UAEPAXI@Z   100023c0 f i * CIL library *:* CIL module *
 0001:000013c0       ??_GFarEditor@@UAEPAXI@Z   100023c0 f i FarEditor.cpp.obj
 0001:000014c0       ?endJob@FarEditor@@UAEXI@Z 100024c0 f   FarEditor.cpp.obj
 0001:000014e0       ?getLine@FarEditor@@UAEPAVSString@@I@Z 100024e0 f   FarEditor.cpp.obj
 0001:000015e0       ?chooseFileType@FarEditor@@QAEXPAVString@@@Z 100025e0 f   FarEditor.cpp.obj
 0001:00001630       ?setFileType@FarEditor@@QAEXPAVFileType@@@Z 10002630 f   FarEditor.cpp.obj
 0001:00001670       ?reloadTypeSettings@FarEditor@@AAEXXZ 10002670 f   FarEditor.cpp.obj
 0001:00001830       ?setCrossState@FarEditor@@QAEXHH@Z 10002830 f   FarEditor.cpp.obj
 0001:00001920       ?setRegionMapper@FarEditor@@QAEXPAVRegionMapper@@@Z 10002920 f   FarEditor.cpp.obj
 0001:00001ad0       ?matchPair@FarEditor@@QAEXXZ 10002ad0 f   FarEditor.cpp.obj
 0001:00001bd0       ?selectPair@FarEditor@@QAEXXZ 10002bd0 f   FarEditor.cpp.obj
 0001:00001ca0       ?selectBlock@FarEditor@@QAEXXZ 10002ca0 f   FarEditor.cpp.obj
 0001:00001d70       ?selectRegion@FarEditor@@QAEXXZ 10002d70 f   FarEditor.cpp.obj
 0001:00001e40       ?getNameCurrentScheme@FarEditor@@QAEXXZ 10002e40 f   FarEditor.cpp.obj
 0001:00001f70       ?listFunctions@FarEditor@@QAEXXZ 10002f70 f   FarEditor.cpp.obj
 0001:00001f90       ?listErrors@FarEditor@@QAEXXZ 10002f90 f   FarEditor.cpp.obj
 0001:00001fb0       ?locateFunction@FarEditor@@QAEXXZ 10002fb0 f   FarEditor.cpp.obj
 0001:000022b0       ?updateHighlighting@FarEditor@@QAEXXZ 100032b0 f   FarEditor.cpp.obj
 0001:000022e0       ?editorEvent@FarEditor@@QAEHHPAX@Z 100032e0 f   FarEditor.cpp.obj
 0001:00002bd0       ?showOutliner@FarEditor@@AAEXPAVOutliner@@@Z 10003bd0 f   FarEditor.cpp.obj
 0001:00003ac0       ?enterHandler@FarEditor@@AAE?AUEditorInfo@@XZ 10004ac0 f   FarEditor.cpp.obj
 0001:00003b70       ?convert@FarEditor@@ABE?AUFarColor@@PBVStyledRegion@@@Z 10004b70 f   FarEditor.cpp.obj
 0001:00003ca0       ?addFARColor@FarEditor@@ABEXHHHABUFarColor@@_K@Z 10004ca0 f   FarEditor.cpp.obj
 0001:00003d60       ?cleanEditor@FarEditor@@QAEXXZ 10004d60 f   FarEditor.cpp.obj
 0001:00003de0       ?changeCrossStyle@FarEditor@@QAEXW4CROSS_STYLE@1@@Z 10004de0 f   FarEditor.cpp.obj
 0001:00003e30       ??1?$vector@PAVRegionHandler@@V?$allocator@PAVRegionHandler@@@std@@@std@@QAE@XZ 10004e30 f i colorer:BaseEditor.cpp.obj
 0001:00003e30       ??1?$vector@PAVFileTypeChooser@@V?$allocator@PAVFileTypeChooser@@@std@@@std@@QAE@XZ 10004e30 f i colorer:FileTypeImpl.cpp.obj
 0001:00003e30       ??1?$vector@PB_WV?$allocator@PB_W@std@@@std@@QAE@XZ 10004e30 f i FarEditorSet.cpp.obj
 0001:00003e30       ??1?$vector@PAVVirtualEntry@@V?$allocator@PAVVirtualEntry@@@std@@@std@@QAE@XZ 10004e30 f i colorer:SchemeNode.cpp.obj
 0001:00003e30       ??1?$vector@PAVFileTypeImpl@@V?$allocator@PAVFileTypeImpl@@@std@@@std@@QAE@XZ 10004e30 f i colorer:HRCParserImpl.cpp.obj
 0001:00003e30       ??1?$vector@PAVOutlineItem@@V?$allocator@PAVOutlineItem@@@std@@@std@@QAE@XZ 10004e30 f i colorer:Outliner.cpp.obj
 0001:00003e30       ??1?$vector@HV?$allocator@H@std@@@std@@QAE@XZ 10004e30 f i FarEditor.cpp.obj
 0001:00003e30       ??1?$vector@PBVHRDNode@@V?$allocator@PBVHRDNode@@@std@@@std@@QAE@XZ 10004e30 f i FarEditorSet.cpp.obj
 0001:00003e30       ??1?$vector@PBVRegion@@V?$allocator@PBVRegion@@@std@@@std@@QAE@XZ 10004e30 f i colorer:HRCParserImpl.cpp.obj
 0001:00003e30       ??1?$vector@PAVSchemeNode@@V?$allocator@PAVSchemeNode@@@std@@@std@@QAE@XZ 10004e30 f i colorer:HRCParserImpl.cpp.obj
 0001:00003e30       ??1?$vector@PAVEditorListener@@V?$allocator@PAVEditorListener@@@std@@@std@@QAE@XZ 10004e30 f i colorer:BaseEditor.cpp.obj
 0001:00003e90       ??1?$unique_ptr@VOutliner@@U?$default_delete@VOutliner@@@std@@@std@@QAE@XZ 10004e90 f i FarEditor.cpp.obj
 0001:00003e90       ??1?$unique_ptr@VBaseEditor@@U?$default_delete@VBaseEditor@@@std@@@std@@QAE@XZ 10004e90 f i FarEditor.cpp.obj
 0001:00003ea0       ??1?$unique_ptr@VLineRegion@@U?$default_delete@VLineRegion@@@std@@@std@@QAE@XZ 10004ea0 f i FarEditor.cpp.obj
 0001:00003ed0       ??1?$unique_ptr@V?$B_formatter@Vscoped_padder@details@spdlog@@@details@spdlog@@U?$default_delete@V?$B_formatter@Vscoped_padder@details@spdlog@@@details@spdlog@@@std@@@std@@QAE@XZ 10004ed0 f i spdlog:spdlog.cpp.obj
 0001:00003ed0       ??1?$unique_ptr@Vformatter@spdlog@@U?$default_delete@Vformatter@spdlog@@@std@@@std@@QAE@XZ 10004ed0 f i FarEditorSet.cpp.obj
 0001:00003ed0       ??1?$unique_ptr@VString@@U?$default_delete@VString@@@std@@@std@@QAE@XZ 10004ed0 f i colorer:FileTypeImpl.cpp.obj
 0001:00003ed0       ??1?$unique_ptr@V?$level_formatter@Unull_scoped_padder@details@spdlog@@@details@spdlog@@U?$default_delete@V?$level_formatter@Unull_scoped_padder@details@spdlog@@@details@spdlog@@@std@@@std@@QAE@XZ 10004ed0 f i spdlog:spdlog.cpp.obj
 0001:00003ed0       ??1KeywordInfo@@QAE@XZ     10004ed0 f i colorer:HRCParserImpl.cpp.obj
 0001:00003ed0       ??1?$unique_ptr@VBinInputStream@xercesc_3_2@@U?$default_delete@VBinInputStream@xercesc_3_2@@@std@@@std@@QAE@XZ 10004ed0 f i colorer:ParserFactory.cpp.obj
 0001:00003ed0       ??1?$unique_ptr@V?$short_level_formatter@Vscoped_padder@details@spdlog@@@details@spdlog@@U?$default_delete@V?$short_level_formatter@Vscoped_padder@details@spdlog@@@details@spdlog@@@std@@@std@@QAE@XZ 10004ed0 f i spdlog:spdlog.cpp.obj
 0001:00003ed0       ??1?$unique_ptr@V?$B_formatter@Unull_scoped_padder@details@spdlog@@@details@spdlog@@U?$default_delete@V?$B_formatter@Unull_scoped_padder@details@spdlog@@@details@spdlog@@@std@@@std@@QAE@XZ 10004ed0 f i spdlog:spdlog.cpp.obj
 0001:00003ed0       ??1?$unique_ptr@VLocalFileInputSource@xercesc_3_2@@U?$default_delete@VLocalFileInputSource@xercesc_3_2@@@std@@@std@@QAE@XZ 10004ed0 f i colorer:LocalFileXmlInputSource.cpp.obj
 0001:00003ed0       ??1?$unique_ptr@VSString@@U?$default_delete@VSString@@@std@@@std@@QAE@XZ 10004ed0 f i FarEditor.cpp.obj
 0001:00003ed0       ??1?$unique_ptr@V?$A_formatter@Unull_scoped_padder@details@spdlog@@@details@spdlog@@U?$default_delete@V?$A_formatter@Unull_scoped_padder@details@spdlog@@@details@spdlog@@@std@@@std@@QAE@XZ 10004ed0 f i spdlog:spdlog.cpp.obj
 0001:00003ed0       ??1?$unique_ptr@V_Facet_base@std@@U?$default_delete@V_Facet_base@std@@@2@@std@@QAE@XZ 10004ed0 f i spdlog:fmt.cpp.obj
 0001:00003ed0       ??1?$unique_ptr@V?$name_formatter@Unull_scoped_padder@details@spdlog@@@details@spdlog@@U?$default_delete@V?$name_formatter@Unull_scoped_padder@details@spdlog@@@details@spdlog@@@std@@@std@@QAE@XZ 10004ed0 f i spdlog:spdlog.cpp.obj
 0001:00003ed0       ??1?$unique_ptr@V?$b_formatter@Vscoped_padder@details@spdlog@@@details@spdlog@@U?$default_delete@V?$b_formatter@Vscoped_padder@details@spdlog@@@details@spdlog@@@std@@@std@@QAE@XZ 10004ed0 f i spdlog:spdlog.cpp.obj
 0001:00003ed0       ??1?$unique_ptr@V?$b_formatter@Unull_scoped_padder@details@spdlog@@@details@spdlog@@U?$default_delete@V?$b_formatter@Unull_scoped_padder@details@spdlog@@@details@spdlog@@@std@@@std@@QAE@XZ 10004ed0 f i spdlog:spdlog.cpp.obj
 0001:00003ed0       ??1?$unique_ptr@V?$a_formatter@Vscoped_padder@details@spdlog@@@details@spdlog@@U?$default_delete@V?$a_formatter@Vscoped_padder@details@spdlog@@@details@spdlog@@@std@@@std@@QAE@XZ 10004ed0 f i spdlog:spdlog.cpp.obj
 0001:00003ed0       ??1?$unique_ptr@V?$name_formatter@Vscoped_padder@details@spdlog@@@details@spdlog@@U?$default_delete@V?$name_formatter@Vscoped_padder@details@spdlog@@@details@spdlog@@@std@@@std@@QAE@XZ 10004ed0 f i spdlog:spdlog.cpp.obj
 0001:00003ed0       ??1?$unique_ptr@V?$A_formatter@Vscoped_padder@details@spdlog@@@details@spdlog@@U?$default_delete@V?$A_formatter@Vscoped_padder@details@spdlog@@@details@spdlog@@@std@@@std@@QAE@XZ 10004ed0 f i spdlog:spdlog.cpp.obj
 0001:00003ed0       ??1?$unique_ptr@V?$short_level_formatter@Unull_scoped_padder@details@spdlog@@@details@spdlog@@U?$default_delete@V?$short_level_formatter@Unull_scoped_padder@details@spdlog@@@details@spdlog@@@std@@@std@@QAE@XZ 10004ed0 f i spdlog:spdlog.cpp.obj
 0001:00003ed0       ??1?$unique_ptr@V?$level_formatter@Vscoped_padder@details@spdlog@@@details@spdlog@@U?$default_delete@V?$level_formatter@Vscoped_padder@details@spdlog@@@details@spdlog@@@std@@@std@@QAE@XZ 10004ed0 f i spdlog:spdlog.cpp.obj
 0001:00003ed0       ??1?$unique_ptr@Vflag_formatter@details@spdlog@@U?$default_delete@Vflag_formatter@details@spdlog@@@std@@@std@@QAE@XZ 10004ed0 f i spdlog:spdlog.cpp.obj
 0001:00003ed0       ??1?$unique_ptr@VXmlInputSource@@U?$default_delete@VXmlInputSource@@@std@@@std@@QAE@XZ 10004ed0 f i FarEditorSet.cpp.obj
 0001:00003ed0       ??1?$unique_ptr@V?$a_formatter@Unull_scoped_padder@details@spdlog@@@details@spdlog@@U?$default_delete@V?$a_formatter@Unull_scoped_padder@details@spdlog@@@details@spdlog@@@std@@@std@@QAE@XZ 10004ed0 f i spdlog:spdlog.cpp.obj
 0001:00003ed0       ??1?$unique_ptr@VParserFactory@@U?$default_delete@VParserFactory@@@std@@@std@@QAE@XZ 10004ed0 f i FarEditorSet.cpp.obj
 0001:00003ed0       ??1?$unique_ptr@VBinFileInputStream@xercesc_3_2@@U?$default_delete@VBinFileInputStream@xercesc_3_2@@@std@@@std@@QAE@XZ 10004ed0 f i colorer:LocalFileXmlInputSource.cpp.obj
 0001:00003ee0       ??1?$basic_memory_buffer@D$0PK@V?$allocator@D@std@@@v6@fmt@@UAE@XZ 10004ee0 f i FarEditor.cpp.obj
 0001:00003f20       ??0?$basic_string_view@D@v6@fmt@@QAE@PBD@Z 10004f20 f i FarEditor.cpp.obj
 0001:00003f50       ??1?$basic_string@DU?$char_traits@D@std@@V?$allocator@D@2@@std@@QAE@XZ 10004f50 f i FarEditor.cpp.obj
 0001:00003f50       ?_Tidy_deallocate@?$basic_string@DU?$char_traits@D@std@@V?$allocator@D@2@@std@@AAEXXZ 10004f50 f i FarEditor.cpp.obj
 0001:00003fa0       ??0?$basic_string@DU?$char_traits@D@std@@V?$allocator@D@2@@std@@QAE@QBD@Z 10004fa0 f i FarEditor.cpp.obj
 0001:00003fe0       ??_G?$basic_memory_buffer@D$0PK@V?$allocator@D@std@@@v6@fmt@@UAEPAXI@Z 10004fe0 f i FarEditor.cpp.obj
 0001:00003fe0       ??_E?$basic_memory_buffer@D$0PK@V?$allocator@D@std@@@v6@fmt@@UAEPAXI@Z 10004fe0 f i * CIL library *:* CIL module *
 0001:00004040       ?assign@?$basic_string@DU?$char_traits@D@std@@V?$allocator@D@2@@std@@QAEAAV12@QBDI@Z 10005040 f i FarEditor.cpp.obj
 0001:00004170       ?allocate@?$allocator@D@std@@QAEPADI@Z 10005170 f i FarEditor.cpp.obj
 0001:000041c0       ?grow@?$basic_memory_buffer@D$0BPE@V?$allocator@D@std@@@v6@fmt@@MAEXI@Z 100051c0 f i FarEditor.cpp.obj
 0001:000041c0       ?grow@?$basic_memory_buffer@D$0PK@V?$allocator@D@std@@@v6@fmt@@MAEXI@Z 100051c0 f i FarEditor.cpp.obj
 0001:00004290       ??$make_unique@VSString@@VCString@@$0A@@std@@YA?AV?$unique_ptr@VSString@@U?$default_delete@VSString@@@std@@@0@$$QAVCString@@@Z 10005290 f i FarEditor.cpp.obj
 0001:000042e0       ??$debug@PBD@spdlog@@YAXV?$basic_string_view@D@v6@fmt@@ABQBD@Z 100052e0 f i FarEditor.cpp.obj
 0001:00004320       ?_Xlen@?$basic_string@DU?$char_traits@D@std@@V?$allocator@D@2@@std@@CAXXZ 10005320 f i FarEditor.cpp.obj
 0001:00004330       ??$uninitialized_copy@PADV?$checked_array_iterator@PAD@stdext@@@std@@YA?AV?$checked_array_iterator@PAD@stdext@@QAD0V12@@Z 10005330 f i FarEditor.cpp.obj
 0001:00004330       ??$uninitialized_copy@PBDV?$checked_array_iterator@PAD@stdext@@@std@@YA?AV?$checked_array_iterator@PAD@stdext@@QBD0V12@@Z 10005330 f i FarEditor.cpp.obj
 0001:00004390       ??$vformat_to@D@internal@v6@fmt@@YA?AV?$back_insert_iterator@V?$buffer@D@internal@v6@fmt@@@std@@AAV?$buffer@D@012@V?$basic_string_view@D@12@V?$basic_format_args@V?$basic_format_context@V?$back_insert_iterator@V?$buffer@D@internal@v6@fmt@@@std@@D@v6@fmt@@@12@@Z 10005390 f i FarEditor.cpp.obj
 0001:00004420       ??$log@PBD@logger@spdlog@@QAEXUsource_loc@1@W4level_enum@level@1@V?$basic_string_view@D@v6@fmt@@ABQBD@Z 10005420 f i FarEditor.cpp.obj
 0001:00004630       ??1?$format_handler@V?$arg_formatter@V?$buffer_range@D@v6@fmt@@@v6@fmt@@DV?$basic_format_context@V?$back_insert_iterator@V?$buffer@D@internal@v6@fmt@@@std@@D@23@@v6@fmt@@QAE@XZ 10005630 f i FarEditor.cpp.obj
 0001:00004640       ??0?$format_handler@V?$arg_formatter@V?$buffer_range@D@v6@fmt@@@v6@fmt@@DV?$basic_format_context@V?$back_insert_iterator@V?$buffer@D@internal@v6@fmt@@@std@@D@23@@v6@fmt@@QAE@V?$buffer_range@D@12@V?$basic_string_view@D@12@V?$basic_format_args@V?$basic_format_context@V?$back_insert_iterator@V?$buffer@D@internal@v6@fmt@@@std@@D@v6@fmt@@@12@Vlocale_ref@internal@12@@Z 10005640 f i FarEditor.cpp.obj
 0001:000046a0       ??$parse_format_string@$0A@DAAU?$format_handler@V?$arg_formatter@V?$buffer_range@D@v6@fmt@@@v6@fmt@@DV?$basic_format_context@V?$back_insert_iterator@V?$buffer@D@internal@v6@fmt@@@std@@D@23@@v6@fmt@@@internal@v6@fmt@@YAXV?$basic_string_view@D@12@AAU?$format_handler@V?$arg_formatter@V?$buffer_range@D@v6@fmt@@@v6@fmt@@DV?$basic_format_context@V?$back_insert_iterator@V?$buffer@D@internal@v6@fmt@@@std@@D@23@@12@@Z 100056a0 f i FarEditor.cpp.obj
 0001:00004b60       ??Rpfs_writer@?1???$parse_format_string@$0A@DAAU?$format_handler@V?$arg_formatter@V?$buffer_range@D@v6@fmt@@@v6@fmt@@DV?$basic_format_context@V?$back_insert_iterator@V?$buffer@D@internal@v6@fmt@@@std@@D@23@@v6@fmt@@@internal@v6@fmt@@YAXV?$basic_string_view@D@23@AAU?$format_handler@V?$arg_formatter@V?$buffer_range@D@v6@fmt@@@v6@fmt@@DV?$basic_format_context@V?$back_insert_iterator@V?$buffer@D@internal@v6@fmt@@@std@@D@23@@23@@Z@QAEXPBD2@Z 10005b60 f i FarEditor.cpp.obj
 0001:00004ca0       ??$format_to@V?$basic_string_view@D@v6@fmt@@ABQBD$0PK@D@v6@fmt@@YA?AV?$back_insert_iterator@V?$buffer@D@internal@v6@fmt@@@std@@AAV?$basic_memory_buffer@D$0PK@V?$allocator@D@std@@@01@ABV?$basic_string_view@D@01@ABQBD@Z 10005ca0 f i FarEditor.cpp.obj
 0001:00004d40       ??$parse_arg_id@DU?$id_adapter@AAU?$format_handler@V?$arg_formatter@V?$buffer_range@D@v6@fmt@@@v6@fmt@@DV?$basic_format_context@V?$back_insert_iterator@V?$buffer@D@internal@v6@fmt@@@std@@D@23@@v6@fmt@@D@internal@v6@fmt@@@internal@v6@fmt@@YAPBDPBD0$$QAU?$id_adapter@AAU?$format_handler@V?$arg_formatter@V?$buffer_range@D@v6@fmt@@@v6@fmt@@DV?$basic_format_context@V?$back_insert_iterator@V?$buffer@D@internal@v6@fmt@@@std@@D@23@@v6@fmt@@D@012@@Z 10005d40 f i FarEditor.cpp.obj
 0001:00004f20       ??$parse_format_specs@DAAV?$specs_checker@V?$specs_handler@V?$basic_format_parse_context@DUerror_handler@internal@v6@fmt@@@v6@fmt@@V?$basic_format_context@V?$back_insert_iterator@V?$buffer@D@internal@v6@fmt@@@std@@D@23@@internal@v6@fmt@@@internal@v6@fmt@@@internal@v6@fmt@@YAPBDPBD0AAV?$specs_checker@V?$specs_handler@V?$basic_format_parse_context@DUerror_handler@internal@v6@fmt@@@v6@fmt@@V?$basic_format_context@V?$back_insert_iterator@V?$buffer@D@internal@v6@fmt@@@std@@D@23@@internal@v6@fmt@@@012@@Z 10005f20 f i FarEditor.cpp.obj
 0001:00005300       ??$visit_format_arg@V?$arg_formatter@V?$buffer_range@D@v6@fmt@@@v6@fmt@@V?$basic_format_context@V?$back_insert_iterator@V?$buffer@D@internal@v6@fmt@@@std@@D@23@@v6@fmt@@YA?AV?$back_insert_iterator@V?$buffer@D@internal@v6@fmt@@@std@@$$QAV?$arg_formatter@V?$buffer_range@D@v6@fmt@@@01@ABV?$basic_format_arg@V?$basic_format_context@V?$back_insert_iterator@V?$buffer@D@internal@v6@fmt@@@std@@D@v6@fmt@@@01@@Z 10006300 f i FarEditor.cpp.obj
 0001:00005c20       ??$get_arg@V?$basic_format_context@V?$back_insert_iterator@V?$buffer@D@internal@v6@fmt@@@std@@D@v6@fmt@@@internal@v6@fmt@@YA?AV?$basic_format_arg@V?$basic_format_context@V?$back_insert_iterator@V?$buffer@D@internal@v6@fmt@@@std@@D@v6@fmt@@@12@AAV?$basic_format_context@V?$back_insert_iterator@V?$buffer@D@internal@v6@fmt@@@std@@D@12@H@Z 10006c20 f i FarEditor.cpp.obj
 0001:00005cf0       ?resize@?$buffer@D@internal@v6@fmt@@QAEXI@Z 10006cf0 f i FarEditor.cpp.obj
 0001:00005d10       ?write@?$basic_writer@V?$buffer_range@D@v6@fmt@@@internal@v6@fmt@@QAEXV?$basic_string_view@D@34@@Z 10006d10 f i FarEditor.cpp.obj
 0001:00005d70       ?reserve@?$basic_writer@V?$buffer_range@D@v6@fmt@@@internal@v6@fmt@@AAE?AV?$checked_array_iterator@PAD@stdext@@I@Z 10006d70 f i FarEditor.cpp.obj
 0001:00005db0       ?arg@?$basic_format_context@V?$back_insert_iterator@V?$buffer@D@internal@v6@fmt@@@std@@D@v6@fmt@@QAE?AV?$basic_format_arg@V?$basic_format_context@V?$back_insert_iterator@V?$buffer@D@internal@v6@fmt@@@std@@D@v6@fmt@@@23@V?$basic_string_view@D@23@@Z 10006db0 f i FarEditor.cpp.obj
 0001:00006090       ??$?RH$0A@@?$arg_formatter_base@V?$buffer_range@D@v6@fmt@@Uerror_handler@internal@23@@internal@v6@fmt@@QAE?AV?$back_insert_iterator@V?$buffer@D@internal@v6@fmt@@@std@@H@Z 10007090 f i FarEditor.cpp.obj
 0001:000061f0       ??$write@D@?$basic_writer@V?$buffer_range@D@v6@fmt@@@internal@v6@fmt@@QAEXV?$basic_string_view@D@23@ABU?$basic_format_specs@D@23@@Z 100071f0 f i FarEditor.cpp.obj
 0001:00006230       ??$write_pointer@I@?$basic_writer@V?$buffer_range@D@v6@fmt@@@internal@v6@fmt@@QAEXIPBU?$basic_format_specs@D@23@@Z 10007230 f i FarEditor.cpp.obj
 0001:00006480       ??$copy_str@DPBDV?$checked_array_iterator@PAD@stdext@@$0A@@internal@v6@fmt@@YA?AV?$checked_array_iterator@PAD@stdext@@PBD0V34@@Z 10007480 f i FarEditor.cpp.obj
 0001:000064e0       ??0format_error@v6@fmt@@QAE@ABV012@@Z 100074e0 f i FarEditor.cpp.obj
 0001:00006510       ?on_char@char_spec_handler@?$arg_formatter_base@V?$buffer_range@D@v6@fmt@@Uerror_handler@internal@23@@internal@v6@fmt@@QAEXXZ 10007510 f i FarEditor.cpp.obj
 0001:00006570       ?write@?$basic_writer@V?$buffer_range@D@v6@fmt@@@internal@v6@fmt@@QAEXH@Z 10007570 f i FarEditor.cpp.obj
 0001:00006640       ??E?$checked_array_iterator@PAD@stdext@@QAE?AV01@H@Z 10007640 f i FarEditor.cpp.obj
 0001:00006680       ??D?$checked_array_iterator@PAD@stdext@@QBEAADXZ 10007680 f i FarEditor.cpp.obj
 0001:000066a0       ??$parse_nonnegative_int@DAAV?$specs_checker@V?$specs_handler@V?$basic_format_parse_context@DUerror_handler@internal@v6@fmt@@@v6@fmt@@V?$basic_format_context@V?$back_insert_iterator@V?$buffer@D@internal@v6@fmt@@@std@@D@23@@internal@v6@fmt@@@internal@v6@fmt@@@internal@v6@fmt@@YAHAAPBDPBDAAV?$specs_checker@V?$specs_handler@V?$basic_format_parse_context@DUerror_handler@internal@v6@fmt@@@v6@fmt@@V?$basic_format_context@V?$back_insert_iterator@V?$buffer@D@internal@v6@fmt@@@std@@D@23@@internal@v6@fmt@@@012@@Z 100076a0 f i FarEditor.cpp.obj
 0001:00006710       ??$parse_arg_id@DU?$width_adapter@AAV?$specs_checker@V?$specs_handler@V?$basic_format_parse_context@DUerror_handler@internal@v6@fmt@@@v6@fmt@@V?$basic_format_context@V?$back_insert_iterator@V?$buffer@D@internal@v6@fmt@@@std@@D@23@@internal@v6@fmt@@@internal@v6@fmt@@D@internal@v6@fmt@@@internal@v6@fmt@@YAPBDPBD0$$QAU?$width_adapter@AAV?$specs_checker@V?$specs_handler@V?$basic_format_parse_context@DUerror_handler@internal@v6@fmt@@@v6@fmt@@V?$basic_format_context@V?$back_insert_iterator@V?$buffer@D@internal@v6@fmt@@@std@@D@23@@internal@v6@fmt@@@internal@v6@fmt@@D@012@@Z 10007710 f i FarEditor.cpp.obj
 0001:00006940       ??$parse_arg_id@DU?$precision_adapter@AAV?$specs_checker@V?$specs_handler@V?$basic_format_parse_context@DUerror_handler@internal@v6@fmt@@@v6@fmt@@V?$basic_format_context@V?$back_insert_iterator@V?$buffer@D@internal@v6@fmt@@@std@@D@23@@internal@v6@fmt@@@internal@v6@fmt@@D@internal@v6@fmt@@@internal@v6@fmt@@YAPBDPBD0$$QAU?$precision_adapter@AAV?$specs_checker@V?$specs_handler@V?$basic_format_parse_context@DUerror_handler@internal@v6@fmt@@@v6@fmt@@V?$basic_format_context@V?$back_insert_iterator@V?$buffer@D@internal@v6@fmt@@@std@@D@23@@internal@v6@fmt@@@internal@v6@fmt@@D@012@@Z 10007940 f i FarEditor.cpp.obj
 0001:00006b70       ??$write@M$0A@@?$basic_writer@V?$buffer_range@D@v6@fmt@@@internal@v6@fmt@@QAEXMU?$basic_format_specs@D@23@@Z 10007b70 f i FarEditor.cpp.obj
 0001:00006f20       ??$write@N$0A@@?$basic_writer@V?$buffer_range@D@v6@fmt@@@internal@v6@fmt@@QAEXNU?$basic_format_specs@D@23@@Z 10007f20 f i FarEditor.cpp.obj
 0001:000072d0       ??$write@O$0A@@?$basic_writer@V?$buffer_range@D@v6@fmt@@@internal@v6@fmt@@QAEXOU?$basic_format_specs@D@23@@Z 100082d0 f i FarEditor.cpp.obj
 0001:00007680       ??$?RAAV?$checked_array_iterator@PAD@stdext@@@?$pointer_writer@I@?$basic_writer@V?$buffer_range@D@v6@fmt@@@internal@v6@fmt@@QBEXAAV?$checked_array_iterator@PAD@stdext@@@Z 10008680 f i FarEditor.cpp.obj
 0001:00007680       ??$?RV?$checked_array_iterator@PAD@stdext@@@?$pointer_writer@I@?$basic_writer@V?$buffer_range@D@v6@fmt@@@internal@v6@fmt@@QBEX$$QAV?$checked_array_iterator@PAD@stdext@@@Z 10008680 f i FarEditor.cpp.obj
 0001:00007720       ??$write_padded@Uchar_writer@?$arg_formatter_base@V?$buffer_range@D@v6@fmt@@Uerror_handler@internal@23@@internal@v6@fmt@@@?$basic_writer@V?$buffer_range@D@v6@fmt@@@internal@v6@fmt@@QAEXABU?$basic_format_specs@D@23@$$QAUchar_writer@?$arg_formatter_base@V?$buffer_range@D@v6@fmt@@Uerror_handler@internal@23@@123@@Z 10008720 f i FarEditor.cpp.obj
 0001:000078c0       ??0?$float_writer@D@internal@v6@fmt@@QAE@PBDHHUfloat_specs@123@D@Z 100088c0 f i FarEditor.cpp.obj
 0001:00007940       ??1?$basic_memory_buffer@D$0BPE@V?$allocator@D@std@@@v6@fmt@@UAE@XZ 10008940 f i FarEditor.cpp.obj
 0001:00007980       ??_E?$basic_memory_buffer@D$0BPE@V?$allocator@D@std@@@v6@fmt@@UAEPAXI@Z 10008980 f i * CIL library *:* CIL module *
 0001:00007980       ??_G?$basic_memory_buffer@D$0BPE@V?$allocator@D@std@@@v6@fmt@@UAEPAXI@Z 10008980 f i FarEditor.cpp.obj
 0001:000079e0       ??$handle_int_type_spec@U?$int_writer@HU?$basic_format_specs@D@v6@fmt@@@?$basic_writer@V?$buffer_range@D@v6@fmt@@@internal@v6@fmt@@@internal@v6@fmt@@YAXD$$QAU?$int_writer@HU?$basic_format_specs@D@v6@fmt@@@?$basic_writer@V?$buffer_range@D@v6@fmt@@@012@@Z 100089e0 f i FarEditor.cpp.obj
 0001:000079e0       ??$handle_int_type_spec@U?$int_writer@IU?$basic_format_specs@D@v6@fmt@@@?$basic_writer@V?$buffer_range@D@v6@fmt@@@internal@v6@fmt@@@internal@v6@fmt@@YAXD$$QAU?$int_writer@IU?$basic_format_specs@D@v6@fmt@@@?$basic_writer@V?$buffer_range@D@v6@fmt@@@012@@Z 100089e0 f i FarEditor.cpp.obj
 0001:000079e0       ??$handle_int_type_spec@U?$int_writer@DU?$basic_format_specs@D@v6@fmt@@@?$basic_writer@V?$buffer_range@D@v6@fmt@@@internal@v6@fmt@@@internal@v6@fmt@@YAXD$$QAU?$int_writer@DU?$basic_format_specs@D@v6@fmt@@@?$basic_writer@V?$buffer_range@D@v6@fmt@@@012@@Z 100089e0 f i FarEditor.cpp.obj
 0001:00007e70       ??$handle_int_type_spec@U?$int_writer@_JU?$basic_format_specs@D@v6@fmt@@@?$basic_writer@V?$buffer_range@D@v6@fmt@@@internal@v6@fmt@@@internal@v6@fmt@@YAXD$$QAU?$int_writer@_JU?$basic_format_specs@D@v6@fmt@@@?$basic_writer@V?$buffer_range@D@v6@fmt@@@012@@Z 10008e70 f i FarEditor.cpp.obj
 0001:00007e70       ??$handle_int_type_spec@U?$int_writer@_KU?$basic_format_specs@D@v6@fmt@@@?$basic_writer@V?$buffer_range@D@v6@fmt@@@internal@v6@fmt@@@internal@v6@fmt@@YAXD$$QAU?$int_writer@_KU?$basic_format_specs@D@v6@fmt@@@?$basic_writer@V?$buffer_range@D@v6@fmt@@@012@@Z 10008e70 f i FarEditor.cpp.obj
 0001:00008360       ??$parse_float_type_spec@Uerror_handler@internal@v6@fmt@@D@internal@v6@fmt@@YA?AUfloat_specs@012@ABU?$basic_format_specs@D@12@$$QAUerror_handler@012@@Z 10009360 f i FarEditor.cpp.obj
 0001:000084d0       ??$write_padded@U?$nonfinite_writer@D@internal@v6@fmt@@@?$basic_writer@V?$buffer_range@D@v6@fmt@@@internal@v6@fmt@@QAEXABU?$basic_format_specs@D@23@$$QAU?$nonfinite_writer@D@123@@Z 100094d0 f i FarEditor.cpp.obj
 0001:000086b0       ??$write_padded@U?$str_writer@D@?$basic_writer@V?$buffer_range@D@v6@fmt@@@internal@v6@fmt@@@?$basic_writer@V?$buffer_range@D@v6@fmt@@@internal@v6@fmt@@QAEXABU?$basic_format_specs@D@23@$$QAU?$str_writer@D@0123@@Z 100096b0 f i FarEditor.cpp.obj
 0001:00008870       ??$write_padded@V?$float_writer@D@internal@v6@fmt@@@?$basic_writer@V?$buffer_range@D@v6@fmt@@@internal@v6@fmt@@QAEXABU?$basic_format_specs@D@23@$$QAV?$float_writer@D@123@@Z 10009870 f i FarEditor.cpp.obj
 0001:00008a50       ??$isfinite@N@@YA_NN@Z     10009a50 f i FarEditor.cpp.obj
 0001:00008a80       ??$isinf@N@@YA_NN@Z        10009a80 f i FarEditor.cpp.obj
 0001:00008ab0       ??$isfinite@O@@YA_NO@Z     10009ab0 f i FarEditor.cpp.obj
 0001:00008ae0       ??$isinf@O@@YA_NO@Z        10009ae0 f i FarEditor.cpp.obj
 0001:00008b10       ??$format_uint@$03DV?$checked_array_iterator@PAD@stdext@@I@internal@v6@fmt@@YA?AV?$checked_array_iterator@PAD@stdext@@V34@IH_N@Z 10009b10 f i FarEditor.cpp.obj
 0001:00008bb0       ??$fill_n@V?$checked_array_iterator@PAD@stdext@@ID@std@@YA?AV?$checked_array_iterator@PAD@stdext@@V12@IABD@Z 10009bb0 f i FarEditor.cpp.obj
 0001:00008c30       ??$prettify@Vcounting_iterator@internal@v6@fmt@@@?$float_writer@D@internal@v6@fmt@@ABE?AVcounting_iterator@123@V4123@@Z 10009c30 f i FarEditor.cpp.obj
 0001:00008df0       ?on_num@?$int_writer@DU?$basic_format_specs@D@v6@fmt@@@?$basic_writer@V?$buffer_range@D@v6@fmt@@@internal@v6@fmt@@QAEXXZ 10009df0 f i FarEditor.cpp.obj
 0001:00008df0       ?on_num@?$int_writer@HU?$basic_format_specs@D@v6@fmt@@@?$basic_writer@V?$buffer_range@D@v6@fmt@@@internal@v6@fmt@@QAEXXZ 10009df0 f i FarEditor.cpp.obj
 0001:00008df0       ?on_num@?$int_writer@IU?$basic_format_specs@D@v6@fmt@@@?$basic_writer@V?$buffer_range@D@v6@fmt@@@internal@v6@fmt@@QAEXXZ 10009df0 f i FarEditor.cpp.obj
 0001:00009060       ?on_dec@?$int_writer@HU?$basic_format_specs@D@v6@fmt@@@?$basic_writer@V?$buffer_range@D@v6@fmt@@@internal@v6@fmt@@QAEXXZ 1000a060 f i FarEditor.cpp.obj
 0001:00009060       ?on_dec@?$int_writer@IU?$basic_format_specs@D@v6@fmt@@@?$basic_writer@V?$buffer_range@D@v6@fmt@@@internal@v6@fmt@@QAEXXZ 1000a060 f i FarEditor.cpp.obj
 0001:00009060       ?on_dec@?$int_writer@DU?$basic_format_specs@D@v6@fmt@@@?$basic_writer@V?$buffer_range@D@v6@fmt@@@internal@v6@fmt@@QAEXXZ 1000a060 f i FarEditor.cpp.obj
 0001:00009190       ?on_num@?$int_writer@_KU?$basic_format_specs@D@v6@fmt@@@?$basic_writer@V?$buffer_range@D@v6@fmt@@@internal@v6@fmt@@QAEXXZ 1000a190 f i FarEditor.cpp.obj
 0001:00009190       ?on_num@?$int_writer@_JU?$basic_format_specs@D@v6@fmt@@@?$basic_writer@V?$buffer_range@D@v6@fmt@@@internal@v6@fmt@@QAEXXZ 1000a190 f i FarEditor.cpp.obj
 0001:00009360       ?on_dec@?$int_writer@_KU?$basic_format_specs@D@v6@fmt@@@?$basic_writer@V?$buffer_range@D@v6@fmt@@@internal@v6@fmt@@QAEXXZ 1000a360 f i FarEditor.cpp.obj
 0001:00009360       ?on_dec@?$int_writer@_JU?$basic_format_specs@D@v6@fmt@@@?$basic_writer@V?$buffer_range@D@v6@fmt@@@internal@v6@fmt@@QAEXXZ 1000a360 f i FarEditor.cpp.obj
 0001:00009490       ??$?RAAV?$checked_array_iterator@PAD@stdext@@@?$nonfinite_writer@D@internal@v6@fmt@@QBEXAAV?$checked_array_iterator@PAD@stdext@@@Z 1000a490 f i FarEditor.cpp.obj
 0001:00009510       ??$?RAAV?$checked_array_iterator@PAD@stdext@@@?$str_writer@D@?$basic_writer@V?$buffer_range@D@v6@fmt@@@internal@v6@fmt@@QBEXAAV?$checked_array_iterator@PAD@stdext@@@Z 1000a510 f i FarEditor.cpp.obj
 0001:00009580       ??$?RAAV?$checked_array_iterator@PAD@stdext@@@?$float_writer@D@internal@v6@fmt@@QAEXAAV?$checked_array_iterator@PAD@stdext@@@Z 1000a580 f i FarEditor.cpp.obj
 0001:00009600       ??$format_decimal@D_KV?$checked_array_iterator@PAD@stdext@@V<lambda_c93a450196b7dc8911532c3b128ffa23>@@@internal@v6@fmt@@YA?AV?$checked_array_iterator@PAD@stdext@@V34@_KHV<lambda_c93a450196b7dc8911532c3b128ffa23>@@@Z 1000a600 f i FarEditor.cpp.obj
 0001:00009780       ??$format_decimal@DIV?$checked_array_iterator@PAD@stdext@@V<lambda_70de2bd2941dba0b52b879374217a30d>@@@internal@v6@fmt@@YA?AV?$checked_array_iterator@PAD@stdext@@V34@IHV<lambda_70de2bd2941dba0b52b879374217a30d>@@@Z 1000a780 f i FarEditor.cpp.obj
 0001:00009850       ??$get_dynamic_spec@Vprecision_checker@internal@v6@fmt@@V?$basic_format_arg@V?$basic_format_context@V?$back_insert_iterator@V?$buffer@D@internal@v6@fmt@@@std@@D@v6@fmt@@@34@Uerror_handler@234@@internal@v6@fmt@@YAHV?$basic_format_arg@V?$basic_format_context@V?$back_insert_iterator@V?$buffer@D@internal@v6@fmt@@@std@@D@v6@fmt@@@12@Uerror_handler@012@@Z 1000a850 f i FarEditor.cpp.obj
 0001:00009930       ??$get_dynamic_spec@Vwidth_checker@internal@v6@fmt@@V?$basic_format_arg@V?$basic_format_context@V?$back_insert_iterator@V?$buffer@D@internal@v6@fmt@@@std@@D@v6@fmt@@@34@Uerror_handler@234@@internal@v6@fmt@@YAHV?$basic_format_arg@V?$basic_format_context@V?$back_insert_iterator@V?$buffer@D@internal@v6@fmt@@@std@@D@v6@fmt@@@12@Uerror_handler@012@@Z 1000a930 f i FarEditor.cpp.obj
 0001:00009a10       ??$write_int@Unum_writer@?$int_writer@_KU?$basic_format_specs@D@v6@fmt@@@?$basic_writer@V?$buffer_range@D@v6@fmt@@@internal@v6@fmt@@@?$basic_writer@V?$buffer_range@D@v6@fmt@@@internal@v6@fmt@@AAEXHV?$basic_string_view@D@23@U?$basic_format_specs@D@23@Unum_writer@?$int_writer@_KU?$basic_format_specs@D@v6@fmt@@@0123@@Z 1000aa10 f i FarEditor.cpp.obj
 0001:00009a10       ??$write_int@Unum_writer@?$int_writer@_JU?$basic_format_specs@D@v6@fmt@@@?$basic_writer@V?$buffer_range@D@v6@fmt@@@internal@v6@fmt@@@?$basic_writer@V?$buffer_range@D@v6@fmt@@@internal@v6@fmt@@AAEXHV?$basic_string_view@D@23@U?$basic_format_specs@D@23@Unum_writer@?$int_writer@_JU?$basic_format_specs@D@v6@fmt@@@0123@@Z 1000aa10 f i FarEditor.cpp.obj
 0001:00009af0       ??$prettify@V?$checked_array_iterator@PAD@stdext@@@?$float_writer@D@internal@v6@fmt@@ABE?AV?$checked_array_iterator@PAD@stdext@@V45@@Z 1000aaf0 f i FarEditor.cpp.obj
 0001:0000a1b0       ??$write_padded@U?$padded_int_writer@Unum_writer@?$int_writer@DU?$basic_format_specs@D@v6@fmt@@@?$basic_writer@V?$buffer_range@D@v6@fmt@@@internal@v6@fmt@@@?$basic_writer@V?$buffer_range@D@v6@fmt@@@internal@v6@fmt@@@?$basic_writer@V?$buffer_range@D@v6@fmt@@@internal@v6@fmt@@QAEXABU?$basic_format_specs@D@23@$$QAU?$padded_int_writer@Unum_writer@?$int_writer@DU?$basic_format_specs@D@v6@fmt@@@?$basic_writer@V?$buffer_range@D@v6@fmt@@@internal@v6@fmt@@@0123@@Z 1000b1b0 f i FarEditor.cpp.obj
 0001:0000a1b0       ??$write_padded@U?$padded_int_writer@Unum_writer@?$int_writer@IU?$basic_format_specs@D@v6@fmt@@@?$basic_writer@V?$buffer_range@D@v6@fmt@@@internal@v6@fmt@@@?$basic_writer@V?$buffer_range@D@v6@fmt@@@internal@v6@fmt@@@?$basic_writer@V?$buffer_range@D@v6@fmt@@@internal@v6@fmt@@QAEXABU?$basic_format_specs@D@23@$$QAU?$padded_int_writer@Unum_writer@?$int_writer@IU?$basic_format_specs@D@v6@fmt@@@?$basic_writer@V?$buffer_range@D@v6@fmt@@@internal@v6@fmt@@@0123@@Z 1000b1b0 f i FarEditor.cpp.obj
 0001:0000a1b0       ??$write_padded@U?$padded_int_writer@Unum_writer@?$int_writer@HU?$basic_format_specs@D@v6@fmt@@@?$basic_writer@V?$buffer_range@D@v6@fmt@@@internal@v6@fmt@@@?$basic_writer@V?$buffer_range@D@v6@fmt@@@internal@v6@fmt@@@?$basic_writer@V?$buffer_range@D@v6@fmt@@@internal@v6@fmt@@QAEXABU?$basic_format_specs@D@23@$$QAU?$padded_int_writer@Unum_writer@?$int_writer@HU?$basic_format_specs@D@v6@fmt@@@?$basic_writer@V?$buffer_range@D@v6@fmt@@@internal@v6@fmt@@@0123@@Z 1000b1b0 f i FarEditor.cpp.obj
 0001:0000a3c0       ??$write_padded@U?$padded_int_writer@U?$bin_writer@$02@?$int_writer@DU?$basic_format_specs@D@v6@fmt@@@?$basic_writer@V?$buffer_range@D@v6@fmt@@@internal@v6@fmt@@@?$basic_writer@V?$buffer_range@D@v6@fmt@@@internal@v6@fmt@@@?$basic_writer@V?$buffer_range@D@v6@fmt@@@internal@v6@fmt@@QAEXABU?$basic_format_specs@D@23@$$QAU?$padded_int_writer@U?$bin_writer@$02@?$int_writer@DU?$basic_format_specs@D@v6@fmt@@@?$basic_writer@V?$buffer_range@D@v6@fmt@@@internal@v6@fmt@@@0123@@Z 1000b3c0 f i FarEditor.cpp.obj
 0001:0000a3c0       ??$write_padded@U?$padded_int_writer@U?$bin_writer@$02@?$int_writer@HU?$basic_format_specs@D@v6@fmt@@@?$basic_writer@V?$buffer_range@D@v6@fmt@@@internal@v6@fmt@@@?$basic_writer@V?$buffer_range@D@v6@fmt@@@internal@v6@fmt@@@?$basic_writer@V?$buffer_range@D@v6@fmt@@@internal@v6@fmt@@QAEXABU?$basic_format_specs@D@23@$$QAU?$padded_int_writer@U?$bin_writer@$02@?$int_writer@HU?$basic_format_specs@D@v6@fmt@@@?$basic_writer@V?$buffer_range@D@v6@fmt@@@internal@v6@fmt@@@0123@@Z 1000b3c0 f i FarEditor.cpp.obj
 0001:0000a3c0       ??$write_padded@U?$padded_int_writer@U?$bin_writer@$02@?$int_writer@IU?$basic_format_specs@D@v6@fmt@@@?$basic_writer@V?$buffer_range@D@v6@fmt@@@internal@v6@fmt@@@?$basic_writer@V?$buffer_range@D@v6@fmt@@@internal@v6@fmt@@@?$basic_writer@V?$buffer_range@D@v6@fmt@@@internal@v6@fmt@@QAEXABU?$basic_format_specs@D@23@$$QAU?$padded_int_writer@U?$bin_writer@$02@?$int_writer@IU?$basic_format_specs@D@v6@fmt@@@?$basic_writer@V?$buffer_range@D@v6@fmt@@@internal@v6@fmt@@@0123@@Z 1000b3c0 f i FarEditor.cpp.obj
 0001:0000a5d0       ??$write_padded@U?$padded_int_writer@U?$bin_writer@$00@?$int_writer@IU?$basic_format_specs@D@v6@fmt@@@?$basic_writer@V?$buffer_range@D@v6@fmt@@@internal@v6@fmt@@@?$basic_writer@V?$buffer_range@D@v6@fmt@@@internal@v6@fmt@@@?$basic_writer@V?$buffer_range@D@v6@fmt@@@internal@v6@fmt@@QAEXABU?$basic_format_specs@D@23@$$QAU?$padded_int_writer@U?$bin_writer@$00@?$int_writer@IU?$basic_format_specs@D@v6@fmt@@@?$basic_writer@V?$buffer_range@D@v6@fmt@@@internal@v6@fmt@@@0123@@Z 1000b5d0 f i FarEditor.cpp.obj
 0001:0000a5d0       ??$write_padded@U?$padded_int_writer@U?$bin_writer@$00@?$int_writer@HU?$basic_format_specs@D@v6@fmt@@@?$basic_writer@V?$buffer_range@D@v6@fmt@@@internal@v6@fmt@@@?$basic_writer@V?$buffer_range@D@v6@fmt@@@internal@v6@fmt@@@?$basic_writer@V?$buffer_range@D@v6@fmt@@@internal@v6@fmt@@QAEXABU?$basic_format_specs@D@23@$$QAU?$padded_int_writer@U?$bin_writer@$00@?$int_writer@HU?$basic_format_specs@D@v6@fmt@@@?$basic_writer@V?$buffer_range@D@v6@fmt@@@internal@v6@fmt@@@0123@@Z 1000b5d0 f i FarEditor.cpp.obj
 0001:0000a5d0       ??$write_padded@U?$padded_int_writer@U?$bin_writer@$00@?$int_writer@DU?$basic_format_specs@D@v6@fmt@@@?$basic_writer@V?$buffer_range@D@v6@fmt@@@internal@v6@fmt@@@?$basic_writer@V?$buffer_range@D@v6@fmt@@@internal@v6@fmt@@@?$basic_writer@V?$buffer_range@D@v6@fmt@@@internal@v6@fmt@@QAEXABU?$basic_format_specs@D@23@$$QAU?$padded_int_writer@U?$bin_writer@$00@?$int_writer@DU?$basic_format_specs@D@v6@fmt@@@?$basic_writer@V?$buffer_range@D@v6@fmt@@@internal@v6@fmt@@@0123@@Z 1000b5d0 f i FarEditor.cpp.obj
 0001:0000a7e0       ??$write_padded@U?$padded_int_writer@Uhex_writer@?$int_writer@IU?$basic_format_specs@D@v6@fmt@@@?$basic_writer@V?$buffer_range@D@v6@fmt@@@internal@v6@fmt@@@?$basic_writer@V?$buffer_range@D@v6@fmt@@@internal@v6@fmt@@@?$basic_writer@V?$buffer_range@D@v6@fmt@@@internal@v6@fmt@@QAEXABU?$basic_format_specs@D@23@$$QAU?$padded_int_writer@Uhex_writer@?$int_writer@IU?$basic_format_specs@D@v6@fmt@@@?$basic_writer@V?$buffer_range@D@v6@fmt@@@internal@v6@fmt@@@0123@@Z 1000b7e0 f i FarEditor.cpp.obj
 0001:0000a7e0       ??$write_padded@U?$padded_int_writer@Uhex_writer@?$int_writer@HU?$basic_format_specs@D@v6@fmt@@@?$basic_writer@V?$buffer_range@D@v6@fmt@@@internal@v6@fmt@@@?$basic_writer@V?$buffer_range@D@v6@fmt@@@internal@v6@fmt@@@?$basic_writer@V?$buffer_range@D@v6@fmt@@@internal@v6@fmt@@QAEXABU?$basic_format_specs@D@23@$$QAU?$padded_int_writer@Uhex_writer@?$int_writer@HU?$basic_format_specs@D@v6@fmt@@@?$basic_writer@V?$buffer_range@D@v6@fmt@@@internal@v6@fmt@@@0123@@Z 1000b7e0 f i FarEditor.cpp.obj
 0001:0000a7e0       ??$write_padded@U?$padded_int_writer@Uhex_writer@?$int_writer@DU?$basic_format_specs@D@v6@fmt@@@?$basic_writer@V?$buffer_range@D@v6@fmt@@@internal@v6@fmt@@@?$basic_writer@V?$buffer_range@D@v6@fmt@@@internal@v6@fmt@@@?$basic_writer@V?$buffer_range@D@v6@fmt@@@internal@v6@fmt@@QAEXABU?$basic_format_specs@D@23@$$QAU?$padded_int_writer@Uhex_writer@?$int_writer@DU?$basic_format_specs@D@v6@fmt@@@?$basic_writer@V?$buffer_range@D@v6@fmt@@@internal@v6@fmt@@@0123@@Z 1000b7e0 f i FarEditor.cpp.obj
 0001:0000aa00       ??$write_padded@U?$padded_int_writer@Udec_writer@?$int_writer@DU?$basic_format_specs@D@v6@fmt@@@?$basic_writer@V?$buffer_range@D@v6@fmt@@@internal@v6@fmt@@@?$basic_writer@V?$buffer_range@D@v6@fmt@@@internal@v6@fmt@@@?$basic_writer@V?$buffer_range@D@v6@fmt@@@internal@v6@fmt@@QAEXABU?$basic_format_specs@D@23@$$QAU?$padded_int_writer@Udec_writer@?$int_writer@DU?$basic_format_specs@D@v6@fmt@@@?$basic_writer@V?$buffer_range@D@v6@fmt@@@internal@v6@fmt@@@0123@@Z 1000ba00 f i FarEditor.cpp.obj
 0001:0000aa00       ??$write_padded@U?$padded_int_writer@Udec_writer@?$int_writer@HU?$basic_format_specs@D@v6@fmt@@@?$basic_writer@V?$buffer_range@D@v6@fmt@@@internal@v6@fmt@@@?$basic_writer@V?$buffer_range@D@v6@fmt@@@internal@v6@fmt@@@?$basic_writer@V?$buffer_range@D@v6@fmt@@@internal@v6@fmt@@QAEXABU?$basic_format_specs@D@23@$$QAU?$padded_int_writer@Udec_writer@?$int_writer@HU?$basic_format_specs@D@v6@fmt@@@?$basic_writer@V?$buffer_range@D@v6@fmt@@@internal@v6@fmt@@@0123@@Z 1000ba00 f i FarEditor.cpp.obj
 0001:0000aa00       ??$write_padded@U?$padded_int_writer@Udec_writer@?$int_writer@IU?$basic_format_specs@D@v6@fmt@@@?$basic_writer@V?$buffer_range@D@v6@fmt@@@internal@v6@fmt@@@?$basic_writer@V?$buffer_range@D@v6@fmt@@@internal@v6@fmt@@@?$basic_writer@V?$buffer_range@D@v6@fmt@@@internal@v6@fmt@@QAEXABU?$basic_format_specs@D@23@$$QAU?$padded_int_writer@Udec_writer@?$int_writer@IU?$basic_format_specs@D@v6@fmt@@@?$basic_writer@V?$buffer_range@D@v6@fmt@@@internal@v6@fmt@@@0123@@Z 1000ba00 f i FarEditor.cpp.obj
 0001:0000ac20       ??$write_padded@U?$padded_int_writer@Unum_writer@?$int_writer@_JU?$basic_format_specs@D@v6@fmt@@@?$basic_writer@V?$buffer_range@D@v6@fmt@@@internal@v6@fmt@@@?$basic_writer@V?$buffer_range@D@v6@fmt@@@internal@v6@fmt@@@?$basic_writer@V?$buffer_range@D@v6@fmt@@@internal@v6@fmt@@QAEXABU?$basic_format_specs@D@23@$$QAU?$padded_int_writer@Unum_writer@?$int_writer@_JU?$basic_format_specs@D@v6@fmt@@@?$basic_writer@V?$buffer_range@D@v6@fmt@@@internal@v6@fmt@@@0123@@Z 1000bc20 f i FarEditor.cpp.obj
 0001:0000ac20       ??$write_padded@U?$padded_int_writer@Unum_writer@?$int_writer@_KU?$basic_format_specs@D@v6@fmt@@@?$basic_writer@V?$buffer_range@D@v6@fmt@@@internal@v6@fmt@@@?$basic_writer@V?$buffer_range@D@v6@fmt@@@internal@v6@fmt@@@?$basic_writer@V?$buffer_range@D@v6@fmt@@@internal@v6@fmt@@QAEXABU?$basic_format_specs@D@23@$$QAU?$padded_int_writer@Unum_writer@?$int_writer@_KU?$basic_format_specs@D@v6@fmt@@@?$basic_writer@V?$buffer_range@D@v6@fmt@@@internal@v6@fmt@@@0123@@Z 1000bc20 f i FarEditor.cpp.obj
 0001:0000ae30       ??$write_padded@U?$padded_int_writer@U?$bin_writer@$02@?$int_writer@_JU?$basic_format_specs@D@v6@fmt@@@?$basic_writer@V?$buffer_range@D@v6@fmt@@@internal@v6@fmt@@@?$basic_writer@V?$buffer_range@D@v6@fmt@@@internal@v6@fmt@@@?$basic_writer@V?$buffer_range@D@v6@fmt@@@internal@v6@fmt@@QAEXABU?$basic_format_specs@D@23@$$QAU?$padded_int_writer@U?$bin_writer@$02@?$int_writer@_JU?$basic_format_specs@D@v6@fmt@@@?$basic_writer@V?$buffer_range@D@v6@fmt@@@internal@v6@fmt@@@0123@@Z 1000be30 f i FarEditor.cpp.obj
 0001:0000ae30       ??$write_padded@U?$padded_int_writer@U?$bin_writer@$02@?$int_writer@_KU?$basic_format_specs@D@v6@fmt@@@?$basic_writer@V?$buffer_range@D@v6@fmt@@@internal@v6@fmt@@@?$basic_writer@V?$buffer_range@D@v6@fmt@@@internal@v6@fmt@@@?$basic_writer@V?$buffer_range@D@v6@fmt@@@internal@v6@fmt@@QAEXABU?$basic_format_specs@D@23@$$QAU?$padded_int_writer@U?$bin_writer@$02@?$int_writer@_KU?$basic_format_specs@D@v6@fmt@@@?$basic_writer@V?$buffer_range@D@v6@fmt@@@internal@v6@fmt@@@0123@@Z 1000be30 f i FarEditor.cpp.obj
 0001:0000b060       ??$write_padded@U?$padded_int_writer@U?$bin_writer@$00@?$int_writer@_KU?$basic_format_specs@D@v6@fmt@@@?$basic_writer@V?$buffer_range@D@v6@fmt@@@internal@v6@fmt@@@?$basic_writer@V?$buffer_range@D@v6@fmt@@@internal@v6@fmt@@@?$basic_writer@V?$buffer_range@D@v6@fmt@@@internal@v6@fmt@@QAEXABU?$basic_format_specs@D@23@$$QAU?$padded_int_writer@U?$bin_writer@$00@?$int_writer@_KU?$basic_format_specs@D@v6@fmt@@@?$basic_writer@V?$buffer_range@D@v6@fmt@@@internal@v6@fmt@@@0123@@Z 1000c060 f i FarEditor.cpp.obj
 0001:0000b060       ??$write_padded@U?$padded_int_writer@U?$bin_writer@$00@?$int_writer@_JU?$basic_format_specs@D@v6@fmt@@@?$basic_writer@V?$buffer_range@D@v6@fmt@@@internal@v6@fmt@@@?$basic_writer@V?$buffer_range@D@v6@fmt@@@internal@v6@fmt@@@?$basic_writer@V?$buffer_range@D@v6@fmt@@@internal@v6@fmt@@QAEXABU?$basic_format_specs@D@23@$$QAU?$padded_int_writer@U?$bin_writer@$00@?$int_writer@_JU?$basic_format_specs@D@v6@fmt@@@?$basic_writer@V?$buffer_range@D@v6@fmt@@@internal@v6@fmt@@@0123@@Z 1000c060 f i FarEditor.cpp.obj
 0001:0000b290       ??$write_padded@U?$padded_int_writer@Uhex_writer@?$int_writer@_JU?$basic_format_specs@D@v6@fmt@@@?$basic_writer@V?$buffer_range@D@v6@fmt@@@internal@v6@fmt@@@?$basic_writer@V?$buffer_range@D@v6@fmt@@@internal@v6@fmt@@@?$basic_writer@V?$buffer_range@D@v6@fmt@@@internal@v6@fmt@@QAEXABU?$basic_format_specs@D@23@$$QAU?$padded_int_writer@Uhex_writer@?$int_writer@_JU?$basic_format_specs@D@v6@fmt@@@?$basic_writer@V?$buffer_range@D@v6@fmt@@@internal@v6@fmt@@@0123@@Z 1000c290 f i FarEditor.cpp.obj
 0001:0000b290       ??$write_padded@U?$padded_int_writer@Uhex_writer@?$int_writer@_KU?$basic_format_specs@D@v6@fmt@@@?$basic_writer@V?$buffer_range@D@v6@fmt@@@internal@v6@fmt@@@?$basic_writer@V?$buffer_range@D@v6@fmt@@@internal@v6@fmt@@@?$basic_writer@V?$buffer_range@D@v6@fmt@@@internal@v6@fmt@@QAEXABU?$basic_format_specs@D@23@$$QAU?$padded_int_writer@Uhex_writer@?$int_writer@_KU?$basic_format_specs@D@v6@fmt@@@?$basic_writer@V?$buffer_range@D@v6@fmt@@@internal@v6@fmt@@@0123@@Z 1000c290 f i FarEditor.cpp.obj
 0001:0000b4d0       ??$write_padded@U?$padded_int_writer@Udec_writer@?$int_writer@_JU?$basic_format_specs@D@v6@fmt@@@?$basic_writer@V?$buffer_range@D@v6@fmt@@@internal@v6@fmt@@@?$basic_writer@V?$buffer_range@D@v6@fmt@@@internal@v6@fmt@@@?$basic_writer@V?$buffer_range@D@v6@fmt@@@internal@v6@fmt@@QAEXABU?$basic_format_specs@D@23@$$QAU?$padded_int_writer@Udec_writer@?$int_writer@_JU?$basic_format_specs@D@v6@fmt@@@?$basic_writer@V?$buffer_range@D@v6@fmt@@@internal@v6@fmt@@@0123@@Z 1000c4d0 f i FarEditor.cpp.obj
 0001:0000b4d0       ??$write_padded@U?$padded_int_writer@Udec_writer@?$int_writer@_KU?$basic_format_specs@D@v6@fmt@@@?$basic_writer@V?$buffer_range@D@v6@fmt@@@internal@v6@fmt@@@?$basic_writer@V?$buffer_range@D@v6@fmt@@@internal@v6@fmt@@@?$basic_writer@V?$buffer_range@D@v6@fmt@@@internal@v6@fmt@@QAEXABU?$basic_format_specs@D@23@$$QAU?$padded_int_writer@Udec_writer@?$int_writer@_KU?$basic_format_specs@D@v6@fmt@@@?$basic_writer@V?$buffer_range@D@v6@fmt@@@internal@v6@fmt@@@0123@@Z 1000c4d0 f i FarEditor.cpp.obj
 0001:0000b710       ??$fill_n@V?$checked_array_iterator@PAD@stdext@@HD@std@@YA?AV?$checked_array_iterator@PAD@stdext@@V12@HABD@Z 1000c710 f i FarEditor.cpp.obj
 0001:0000b780       ??$?RAAV?$checked_array_iterator@PAD@stdext@@@?$padded_int_writer@Unum_writer@?$int_writer@DU?$basic_format_specs@D@v6@fmt@@@?$basic_writer@V?$buffer_range@D@v6@fmt@@@internal@v6@fmt@@@?$basic_writer@V?$buffer_range@D@v6@fmt@@@internal@v6@fmt@@QBEXAAV?$checked_array_iterator@PAD@stdext@@@Z 1000c780 f i FarEditor.cpp.obj
 0001:0000b780       ??$?RAAV?$checked_array_iterator@PAD@stdext@@@?$padded_int_writer@Unum_writer@?$int_writer@HU?$basic_format_specs@D@v6@fmt@@@?$basic_writer@V?$buffer_range@D@v6@fmt@@@internal@v6@fmt@@@?$basic_writer@V?$buffer_range@D@v6@fmt@@@internal@v6@fmt@@QBEXAAV?$checked_array_iterator@PAD@stdext@@@Z 1000c780 f i FarEditor.cpp.obj
 0001:0000b780       ??$?RAAV?$checked_array_iterator@PAD@stdext@@@?$padded_int_writer@Unum_writer@?$int_writer@IU?$basic_format_specs@D@v6@fmt@@@?$basic_writer@V?$buffer_range@D@v6@fmt@@@internal@v6@fmt@@@?$basic_writer@V?$buffer_range@D@v6@fmt@@@internal@v6@fmt@@QBEXAAV?$checked_array_iterator@PAD@stdext@@@Z 1000c780 f i FarEditor.cpp.obj
 0001:0000b840       ??$?RAAV?$checked_array_iterator@PAD@stdext@@@?$padded_int_writer@U?$bin_writer@$02@?$int_writer@HU?$basic_format_specs@D@v6@fmt@@@?$basic_writer@V?$buffer_range@D@v6@fmt@@@internal@v6@fmt@@@?$basic_writer@V?$buffer_range@D@v6@fmt@@@internal@v6@fmt@@QBEXAAV?$checked_array_iterator@PAD@stdext@@@Z 1000c840 f i FarEditor.cpp.obj
 0001:0000b840       ??$?RAAV?$checked_array_iterator@PAD@stdext@@@?$padded_int_writer@U?$bin_writer@$02@?$int_writer@DU?$basic_format_specs@D@v6@fmt@@@?$basic_writer@V?$buffer_range@D@v6@fmt@@@internal@v6@fmt@@@?$basic_writer@V?$buffer_range@D@v6@fmt@@@internal@v6@fmt@@QBEXAAV?$checked_array_iterator@PAD@stdext@@@Z 1000c840 f i FarEditor.cpp.obj
 0001:0000b840       ??$?RAAV?$checked_array_iterator@PAD@stdext@@@?$padded_int_writer@U?$bin_writer@$02@?$int_writer@IU?$basic_format_specs@D@v6@fmt@@@?$basic_writer@V?$buffer_range@D@v6@fmt@@@internal@v6@fmt@@@?$basic_writer@V?$buffer_range@D@v6@fmt@@@internal@v6@fmt@@QBEXAAV?$checked_array_iterator@PAD@stdext@@@Z 1000c840 f i FarEditor.cpp.obj
 0001:0000b930       ??$?RAAV?$checked_array_iterator@PAD@stdext@@@?$padded_int_writer@U?$bin_writer@$00@?$int_writer@HU?$basic_format_specs@D@v6@fmt@@@?$basic_writer@V?$buffer_range@D@v6@fmt@@@internal@v6@fmt@@@?$basic_writer@V?$buffer_range@D@v6@fmt@@@internal@v6@fmt@@QBEXAAV?$checked_array_iterator@PAD@stdext@@@Z 1000c930 f i FarEditor.cpp.obj
 0001:0000b930       ??$?RAAV?$checked_array_iterator@PAD@stdext@@@?$padded_int_writer@U?$bin_writer@$00@?$int_writer@IU?$basic_format_specs@D@v6@fmt@@@?$basic_writer@V?$buffer_range@D@v6@fmt@@@internal@v6@fmt@@@?$basic_writer@V?$buffer_range@D@v6@fmt@@@internal@v6@fmt@@QBEXAAV?$checked_array_iterator@PAD@stdext@@@Z 1000c930 f i FarEditor.cpp.obj
 0001:0000b930       ??$?RAAV?$checked_array_iterator@PAD@stdext@@@?$padded_int_writer@U?$bin_writer@$00@?$int_writer@DU?$basic_format_specs@D@v6@fmt@@@?$basic_writer@V?$buffer_range@D@v6@fmt@@@internal@v6@fmt@@@?$basic_writer@V?$buffer_range@D@v6@fmt@@@internal@v6@fmt@@QBEXAAV?$checked_array_iterator@PAD@stdext@@@Z 1000c930 f i FarEditor.cpp.obj
 0001:0000ba20       ??$?RAAV?$checked_array_iterator@PAD@stdext@@@?$padded_int_writer@Uhex_writer@?$int_writer@IU?$basic_format_specs@D@v6@fmt@@@?$basic_writer@V?$buffer_range@D@v6@fmt@@@internal@v6@fmt@@@?$basic_writer@V?$buffer_range@D@v6@fmt@@@internal@v6@fmt@@QBEXAAV?$checked_array_iterator@PAD@stdext@@@Z 1000ca20 f i FarEditor.cpp.obj
 0001:0000ba20       ??$?RAAV?$checked_array_iterator@PAD@stdext@@@?$padded_int_writer@Uhex_writer@?$int_writer@DU?$basic_format_specs@D@v6@fmt@@@?$basic_writer@V?$buffer_range@D@v6@fmt@@@internal@v6@fmt@@@?$basic_writer@V?$buffer_range@D@v6@fmt@@@internal@v6@fmt@@QBEXAAV?$checked_array_iterator@PAD@stdext@@@Z 1000ca20 f i FarEditor.cpp.obj
 0001:0000ba20       ??$?RAAV?$checked_array_iterator@PAD@stdext@@@?$padded_int_writer@Uhex_writer@?$int_writer@HU?$basic_format_specs@D@v6@fmt@@@?$basic_writer@V?$buffer_range@D@v6@fmt@@@internal@v6@fmt@@@?$basic_writer@V?$buffer_range@D@v6@fmt@@@internal@v6@fmt@@QBEXAAV?$checked_array_iterator@PAD@stdext@@@Z 1000ca20 f i FarEditor.cpp.obj
 0001:0000bb20       ??$?RAAV?$checked_array_iterator@PAD@stdext@@@?$padded_int_writer@Udec_writer@?$int_writer@DU?$basic_format_specs@D@v6@fmt@@@?$basic_writer@V?$buffer_range@D@v6@fmt@@@internal@v6@fmt@@@?$basic_writer@V?$buffer_range@D@v6@fmt@@@internal@v6@fmt@@QBEXAAV?$checked_array_iterator@PAD@stdext@@@Z 1000cb20 f i FarEditor.cpp.obj
 0001:0000bb20       ??$?RAAV?$checked_array_iterator@PAD@stdext@@@?$padded_int_writer@Udec_writer@?$int_writer@HU?$basic_format_specs@D@v6@fmt@@@?$basic_writer@V?$buffer_range@D@v6@fmt@@@internal@v6@fmt@@@?$basic_writer@V?$buffer_range@D@v6@fmt@@@internal@v6@fmt@@QBEXAAV?$checked_array_iterator@PAD@stdext@@@Z 1000cb20 f i FarEditor.cpp.obj
 0001:0000bb20       ??$?RAAV?$checked_array_iterator@PAD@stdext@@@?$padded_int_writer@Udec_writer@?$int_writer@IU?$basic_format_specs@D@v6@fmt@@@?$basic_writer@V?$buffer_range@D@v6@fmt@@@internal@v6@fmt@@@?$basic_writer@V?$buffer_range@D@v6@fmt@@@internal@v6@fmt@@QBEXAAV?$checked_array_iterator@PAD@stdext@@@Z 1000cb20 f i FarEditor.cpp.obj
 0001:0000bc20       ??$?RAAV?$checked_array_iterator@PAD@stdext@@@?$padded_int_writer@Unum_writer@?$int_writer@_KU?$basic_format_specs@D@v6@fmt@@@?$basic_writer@V?$buffer_range@D@v6@fmt@@@internal@v6@fmt@@@?$basic_writer@V?$buffer_range@D@v6@fmt@@@internal@v6@fmt@@QBEXAAV?$checked_array_iterator@PAD@stdext@@@Z 1000cc20 f i FarEditor.cpp.obj
 0001:0000bc20       ??$?RAAV?$checked_array_iterator@PAD@stdext@@@?$padded_int_writer@Unum_writer@?$int_writer@_JU?$basic_format_specs@D@v6@fmt@@@?$basic_writer@V?$buffer_range@D@v6@fmt@@@internal@v6@fmt@@@?$basic_writer@V?$buffer_range@D@v6@fmt@@@internal@v6@fmt@@QBEXAAV?$checked_array_iterator@PAD@stdext@@@Z 1000cc20 f i FarEditor.cpp.obj
 0001:0000bce0       ??$?RAAV?$checked_array_iterator@PAD@stdext@@@?$padded_int_writer@U?$bin_writer@$02@?$int_writer@_KU?$basic_format_specs@D@v6@fmt@@@?$basic_writer@V?$buffer_range@D@v6@fmt@@@internal@v6@fmt@@@?$basic_writer@V?$buffer_range@D@v6@fmt@@@internal@v6@fmt@@QBEXAAV?$checked_array_iterator@PAD@stdext@@@Z 1000cce0 f i FarEditor.cpp.obj
 0001:0000bce0       ??$?RAAV?$checked_array_iterator@PAD@stdext@@@?$padded_int_writer@U?$bin_writer@$02@?$int_writer@_JU?$basic_format_specs@D@v6@fmt@@@?$basic_writer@V?$buffer_range@D@v6@fmt@@@internal@v6@fmt@@@?$basic_writer@V?$buffer_range@D@v6@fmt@@@internal@v6@fmt@@QBEXAAV?$checked_array_iterator@PAD@stdext@@@Z 1000cce0 f i FarEditor.cpp.obj
 0001:0000bdf0       ??$?RAAV?$checked_array_iterator@PAD@stdext@@@?$padded_int_writer@U?$bin_writer@$00@?$int_writer@_JU?$basic_format_specs@D@v6@fmt@@@?$basic_writer@V?$buffer_range@D@v6@fmt@@@internal@v6@fmt@@@?$basic_writer@V?$buffer_range@D@v6@fmt@@@internal@v6@fmt@@QBEXAAV?$checked_array_iterator@PAD@stdext@@@Z 1000cdf0 f i FarEditor.cpp.obj
 0001:0000bdf0       ??$?RAAV?$checked_array_iterator@PAD@stdext@@@?$padded_int_writer@U?$bin_writer@$00@?$int_writer@_KU?$basic_format_specs@D@v6@fmt@@@?$basic_writer@V?$buffer_range@D@v6@fmt@@@internal@v6@fmt@@@?$basic_writer@V?$buffer_range@D@v6@fmt@@@internal@v6@fmt@@QBEXAAV?$checked_array_iterator@PAD@stdext@@@Z 1000cdf0 f i FarEditor.cpp.obj
 0001:0000bf00       ??$?RAAV?$checked_array_iterator@PAD@stdext@@@?$padded_int_writer@Uhex_writer@?$int_writer@_JU?$basic_format_specs@D@v6@fmt@@@?$basic_writer@V?$buffer_range@D@v6@fmt@@@internal@v6@fmt@@@?$basic_writer@V?$buffer_range@D@v6@fmt@@@internal@v6@fmt@@QBEXAAV?$checked_array_iterator@PAD@stdext@@@Z 1000cf00 f i FarEditor.cpp.obj
 0001:0000bf00       ??$?RAAV?$checked_array_iterator@PAD@stdext@@@?$padded_int_writer@Uhex_writer@?$int_writer@_KU?$basic_format_specs@D@v6@fmt@@@?$basic_writer@V?$buffer_range@D@v6@fmt@@@internal@v6@fmt@@@?$basic_writer@V?$buffer_range@D@v6@fmt@@@internal@v6@fmt@@QBEXAAV?$checked_array_iterator@PAD@stdext@@@Z 1000cf00 f i FarEditor.cpp.obj
 0001:0000c020       ??$?RAAV?$checked_array_iterator@PAD@stdext@@@?$padded_int_writer@Udec_writer@?$int_writer@_JU?$basic_format_specs@D@v6@fmt@@@?$basic_writer@V?$buffer_range@D@v6@fmt@@@internal@v6@fmt@@@?$basic_writer@V?$buffer_range@D@v6@fmt@@@internal@v6@fmt@@QBEXAAV?$checked_array_iterator@PAD@stdext@@@Z 1000d020 f i FarEditor.cpp.obj
 0001:0000c020       ??$?RAAV?$checked_array_iterator@PAD@stdext@@@?$padded_int_writer@Udec_writer@?$int_writer@_KU?$basic_format_specs@D@v6@fmt@@@?$basic_writer@V?$buffer_range@D@v6@fmt@@@internal@v6@fmt@@@?$basic_writer@V?$buffer_range@D@v6@fmt@@@internal@v6@fmt@@QBEXAAV?$checked_array_iterator@PAD@stdext@@@Z 1000d020 f i FarEditor.cpp.obj
 0001:0000c130       ??$?RAAV?$checked_array_iterator@PAD@stdext@@@num_writer@?$int_writer@DU?$basic_format_specs@D@v6@fmt@@@?$basic_writer@V?$buffer_range@D@v6@fmt@@@internal@v6@fmt@@QBEXAAV?$checked_array_iterator@PAD@stdext@@@Z 1000d130 f i FarEditor.cpp.obj
 0001:0000c130       ??$?RAAV?$checked_array_iterator@PAD@stdext@@@num_writer@?$int_writer@IU?$basic_format_specs@D@v6@fmt@@@?$basic_writer@V?$buffer_range@D@v6@fmt@@@internal@v6@fmt@@QBEXAAV?$checked_array_iterator@PAD@stdext@@@Z 1000d130 f i FarEditor.cpp.obj
 0001:0000c130       ??$?RAAV?$checked_array_iterator@PAD@stdext@@@num_writer@?$int_writer@HU?$basic_format_specs@D@v6@fmt@@@?$basic_writer@V?$buffer_range@D@v6@fmt@@@internal@v6@fmt@@QBEXAAV?$checked_array_iterator@PAD@stdext@@@Z 1000d130 f i FarEditor.cpp.obj
 0001:0000c1c0       ??R<lambda_056bd735c353f7176471ac35591a3674>@@QBEXAAPAD@Z 1000d1c0 f i FarEditor.cpp.obj
 0001:0000c1c0       ??R<lambda_930077044f1cc97ddf78891b1263c854>@@QBEXAAPAD@Z 1000d1c0 f i FarEditor.cpp.obj
 0001:0000c1c0       ??R<lambda_5158686a749662190b724551ca5bda33>@@QBEXAAPAD@Z 1000d1c0 f i FarEditor.cpp.obj
 0001:0000c260       ??$?RAAV?$checked_array_iterator@PAD@stdext@@@num_writer@?$int_writer@_KU?$basic_format_specs@D@v6@fmt@@@?$basic_writer@V?$buffer_range@D@v6@fmt@@@internal@v6@fmt@@QBEXAAV?$checked_array_iterator@PAD@stdext@@@Z 1000d260 f i FarEditor.cpp.obj
 0001:0000c260       ??$?RAAV?$checked_array_iterator@PAD@stdext@@@num_writer@?$int_writer@_JU?$basic_format_specs@D@v6@fmt@@@?$basic_writer@V?$buffer_range@D@v6@fmt@@@internal@v6@fmt@@QBEXAAV?$checked_array_iterator@PAD@stdext@@@Z 1000d260 f i FarEditor.cpp.obj
 0001:0000c2f0       ??R<lambda_9aa69cfa967aec8237c67bc6241cf746>@@QBEXAAPAD@Z 1000d2f0 f i FarEditor.cpp.obj
 0001:0000c2f0       ??R<lambda_2a9d270fd0b13fec3cef3fc5b06dfcf3>@@QBEXAAPAD@Z 1000d2f0 f i FarEditor.cpp.obj
 0001:0000c390       ??$format_decimal@DIV?$checked_array_iterator@PAD@stdext@@V<lambda_930077044f1cc97ddf78891b1263c854>@@@internal@v6@fmt@@YA?AV?$checked_array_iterator@PAD@stdext@@V34@IHV<lambda_930077044f1cc97ddf78891b1263c854>@@@Z 1000d390 f i FarEditor.cpp.obj
 0001:0000c390       ??$format_decimal@DIV?$checked_array_iterator@PAD@stdext@@V<lambda_5158686a749662190b724551ca5bda33>@@@internal@v6@fmt@@YA?AV?$checked_array_iterator@PAD@stdext@@V34@IHV<lambda_5158686a749662190b724551ca5bda33>@@@Z 1000d390 f i FarEditor.cpp.obj
 0001:0000c390       ??$format_decimal@DIV?$checked_array_iterator@PAD@stdext@@V<lambda_056bd735c353f7176471ac35591a3674>@@@internal@v6@fmt@@YA?AV?$checked_array_iterator@PAD@stdext@@V34@IHV<lambda_056bd735c353f7176471ac35591a3674>@@@Z 1000d390 f i FarEditor.cpp.obj
 0001:0000c430       ??$format_uint@$02DV?$checked_array_iterator@PAD@stdext@@I@internal@v6@fmt@@YA?AV?$checked_array_iterator@PAD@stdext@@V34@IH_N@Z 1000d430 f i FarEditor.cpp.obj
 0001:0000c4b0       ??$format_uint@$00DV?$checked_array_iterator@PAD@stdext@@I@internal@v6@fmt@@YA?AV?$checked_array_iterator@PAD@stdext@@V34@IH_N@Z 1000d4b0 f i FarEditor.cpp.obj
 0001:0000c530       ??$format_decimal@D_KV?$checked_array_iterator@PAD@stdext@@V<lambda_2a9d270fd0b13fec3cef3fc5b06dfcf3>@@@internal@v6@fmt@@YA?AV?$checked_array_iterator@PAD@stdext@@V34@_KHV<lambda_2a9d270fd0b13fec3cef3fc5b06dfcf3>@@@Z 1000d530 f i FarEditor.cpp.obj
 0001:0000c530       ??$format_decimal@D_KV?$checked_array_iterator@PAD@stdext@@V<lambda_9aa69cfa967aec8237c67bc6241cf746>@@@internal@v6@fmt@@YA?AV?$checked_array_iterator@PAD@stdext@@V34@_KHV<lambda_9aa69cfa967aec8237c67bc6241cf746>@@@Z 1000d530 f i FarEditor.cpp.obj
 0001:0000c5e0       ??$format_uint@$02DV?$checked_array_iterator@PAD@stdext@@_K@internal@v6@fmt@@YA?AV?$checked_array_iterator@PAD@stdext@@V34@_KH_N@Z 1000d5e0 f i FarEditor.cpp.obj
 0001:0000c680       ??$format_uint@$00DV?$checked_array_iterator@PAD@stdext@@_K@internal@v6@fmt@@YA?AV?$checked_array_iterator@PAD@stdext@@V34@_KH_N@Z 1000d680 f i FarEditor.cpp.obj
 0001:0000c710       ??$format_uint@$03DV?$checked_array_iterator@PAD@stdext@@_K@internal@v6@fmt@@YA?AV?$checked_array_iterator@PAD@stdext@@V34@_KH_N@Z 1000d710 f i FarEditor.cpp.obj
 0001:0000c7b0       ??$format_decimal@IDV<lambda_056bd735c353f7176471ac35591a3674>@@@internal@v6@fmt@@YAPADPADIHV<lambda_056bd735c353f7176471ac35591a3674>@@@Z 1000d7b0 f i FarEditor.cpp.obj
 0001:0000c7b0       ??$format_decimal@IDV<lambda_930077044f1cc97ddf78891b1263c854>@@@internal@v6@fmt@@YAPADPADIHV<lambda_930077044f1cc97ddf78891b1263c854>@@@Z 1000d7b0 f i FarEditor.cpp.obj
 0001:0000c7b0       ??$format_decimal@IDV<lambda_5158686a749662190b724551ca5bda33>@@@internal@v6@fmt@@YAPADPADIHV<lambda_5158686a749662190b724551ca5bda33>@@@Z 1000d7b0 f i FarEditor.cpp.obj
 0001:0000c970       ??$format_decimal@_KDV<lambda_9aa69cfa967aec8237c67bc6241cf746>@@@internal@v6@fmt@@YAPADPAD_KHV<lambda_9aa69cfa967aec8237c67bc6241cf746>@@@Z 1000d970 f i FarEditor.cpp.obj
 0001:0000c970       ??$format_decimal@_KDV<lambda_2a9d270fd0b13fec3cef3fc5b06dfcf3>@@@internal@v6@fmt@@YAPADPAD_KHV<lambda_2a9d270fd0b13fec3cef3fc5b06dfcf3>@@@Z 1000d970 f i FarEditor.cpp.obj
 0001:0000cbe0       _ceilf                     1000dbe0 f i FarEditorSet.cpp.obj
 0001:0000cc10       ?_Decref@_Ref_count_base@std@@QAEXXZ 1000dc10 f i FarEditorSet.cpp.obj
 0001:0000cc40       ?getURIForPrefix@ValidationContext@xercesc_3_2@@UAEPB_WPA_W@Z 1000dc40 f i xerces-c_3:ValidationContextImpl.cpp.obj
 0001:0000cc40       ?getChild@Token@xercesc_3_2@@UBEPAV12@I@Z 1000dc40 f i xerces-c_3:RangeToken.cpp.obj
 0001:0000cc40       ?_Get_deleter@_Ref_count_base@std@@UBEPAXABVtype_info@@@Z 1000dc40 f i FarEditorSet.cpp.obj
 0001:0000cc40       ?createRelative@InputSource@colorer@@UAEPAV12@PBVString@@@Z 1000dc40 f i colorer:FileInputSource.cpp.obj
 0001:0000cc40       ?CreateRadioButtonBinding@?$DialogBuilderBase@UFarDialogItem@@@@MAEPAU?$DialogItemBinding@UFarDialogItem@@@@PAH@Z 1000dc40 f i FarEditorSet.cpp.obj
 0001:0000cc40       ?GetLangString@?$DialogBuilderBase@UFarDialogItem@@@@MAEPB_WH@Z 1000dc40 f i FarEditorSet.cpp.obj
 0001:0000cc50       ??1mutex@std@@QAE@XZ       1000dc50 f i FarEditorSet.cpp.obj
 0001:0000cc50       ??1recursive_mutex@std@@QAE@XZ 1000dc50 f i xerces-c_3:StdMutexMgr.cpp.obj
 0001:0000cc60       ??0logger@spdlog@@QAE@V?$basic_string@DU?$char_traits@D@std@@V?$allocator@D@2@@std@@V?$shared_ptr@Vsink@sinks@spdlog@@@3@@Z 1000dc60 f i FarEditorSet.cpp.obj
 0001:0000cdd0       ??0logger@spdlog@@QAE@V?$basic_string@DU?$char_traits@D@std@@V?$allocator@D@2@@std@@V?$initializer_list@V?$shared_ptr@Vsink@sinks@spdlog@@@std@@@3@@Z 1000ddd0 f i FarEditorSet.cpp.obj
 0001:0000cea0       ??_Elogger@spdlog@@UAEPAXI@Z 1000dea0 f i * CIL library *:* CIL module *
 0001:0000cea0       ??_Glogger@spdlog@@UAEPAXI@Z 1000dea0 f i FarEditorSet.cpp.obj
 0001:0000ced0       ??1logger@spdlog@@UAE@XZ   1000ded0 f i FarEditorSet.cpp.obj
 0001:0000cf60       ??1?$_Func_class@XABV?$basic_string@DU?$char_traits@D@std@@V?$allocator@D@2@@std@@@std@@QAE@XZ 1000df60 f i FarEditorSet.cpp.obj
 0001:0000cf60       ??1?$function@$$A6AXABV?$basic_string@DU?$char_traits@D@std@@V?$allocator@D@2@@std@@@Z@std@@QAE@XZ 1000df60 f i FarEditorSet.cpp.obj
 0001:0000cf90       ??1?$circular_q@Vlog_msg_buffer@details@spdlog@@@details@spdlog@@QAE@XZ 1000df90 f i FarEditorSet.cpp.obj
 0001:0000cfa0       ??4CString@@QAEAAV0@$$QAV0@@Z 1000dfa0 f i FarEditorSet.cpp.obj
 0001:0000cff0       ??0FarMacroValue@@QAE@XZ   1000dff0 f i FarEditorSet.cpp.obj
 0001:0000d000       ??0ParserFactoryException@@QAE@ABVString@@@Z 1000e000 f i FarEditorSet.cpp.obj
 0001:0000d050       ??_GSettingsControlException@@UAEPAXI@Z 1000e050 f i SettingsControl.cpp.obj
 0001:0000d050       ??_GUnsupportedEncodingException@@UAEPAXI@Z 1000e050 f i colorer:CString.cpp.obj
 0001:0000d050       ??_EStringIndexOutOfBoundsException@@UAEPAXI@Z 1000e050 f i colorer:CString.cpp.obj
 0001:0000d050       ??_ESettingsControlException@@UAEPAXI@Z 1000e050 f i * CIL library *:* CIL module *
 0001:0000d050       ??_EParserFactoryException@@UAEPAXI@Z 1000e050 f i * CIL library *:* CIL module *
 0001:0000d050       ??_GFarHrcSettingsException@@UAEPAXI@Z 1000e050 f i FarHrcSettings.cpp.obj
 0001:0000d050       ??_GCatalogParserException@@UAEPAXI@Z 1000e050 f i colorer:CatalogParser.cpp.obj
 0001:0000d050       ??_EUnsupportedEncodingException@@UAEPAXI@Z 1000e050 f i colorer:CString.cpp.obj
 0001:0000d050       ??_GStringIndexOutOfBoundsException@@UAEPAXI@Z 1000e050 f i colorer:CString.cpp.obj
 0001:0000d050       ??_GParserFactoryException@@UAEPAXI@Z 1000e050 f i FarEditorSet.cpp.obj
 0001:0000d050       ??_EFarHrcSettingsException@@UAEPAXI@Z 1000e050 f i * CIL library *:* CIL module *
 0001:0000d050       ??_GHRCParserException@@UAEPAXI@Z 1000e050 f i colorer:HRCParserImpl.cpp.obj
 0001:0000d050       ??_EHRCParserException@@UAEPAXI@Z 1000e050 f i colorer:HRCParserImpl.cpp.obj
 0001:0000d050       ??_ECatalogParserException@@UAEPAXI@Z 1000e050 f i colorer:CatalogParser.cpp.obj
 0001:0000d070       ??1StringIndexOutOfBoundsException@@UAE@XZ 1000e070 f i colorer:CString.cpp.obj
 0001:0000d070       ??1SettingsControlException@@UAE@XZ 1000e070 f i SettingsControl.cpp.obj
 0001:0000d070       ??1FarHrcSettingsException@@UAE@XZ 1000e070 f i FarHrcSettings.cpp.obj
 0001:0000d070       ??1ParserFactoryException@@UAE@XZ 1000e070 f i FarEditorSet.cpp.obj
 0001:0000d070       ??1HRCParserException@@UAE@XZ 1000e070 f i colorer:HRCParserImpl.cpp.obj
 0001:0000d070       ??1UnsupportedEncodingException@@UAE@XZ 1000e070 f i colorer:CString.cpp.obj
 0001:0000d070       ??1CatalogParserException@@UAE@XZ 1000e070 f i colorer:CatalogParser.cpp.obj
 0001:0000d080       ??_EErrorHandler@xercesc_3_2@@UAEPAXI@Z 1000e080 f i * CIL library *:* CIL module *
 0001:0000d080       ??_GErrorHandler@xercesc_3_2@@UAEPAXI@Z 1000e080 f i FarEditorSet.cpp.obj
 0001:0000d0b0       ??1XmlParserErrorHandler@@UAE@XZ 1000e0b0 f i FarEditorSet.cpp.obj
 0001:0000d0b0       ??1XMLInternalErrorHandler@xercesc_3_2@@UAE@XZ 1000e0b0 f i xerces-c_3:XIncludeUtils.cpp.obj
 0001:0000d0c0       ??_GXmlParserErrorHandler@@UAEPAXI@Z 1000e0c0 f i FarEditorSet.cpp.obj
 0001:0000d0c0       ??_EXmlParserErrorHandler@@UAEPAXI@Z 1000e0c0 f i * CIL library *:* CIL module *
 0001:0000d0f0       ?resetErrors@XmlParserErrorHandler@@UAEXXZ 1000e0f0 f i FarEditorSet.cpp.obj
 0001:0000d100       ??1DialogAPIBinding@@UAE@XZ 1000e100 f i FarEditorSet.cpp.obj
 0001:0000d110       ?SaveValue@PluginCheckBoxBinding@@UAEXPAUFarDialogItem@@H@Z 1000e110 f i FarEditorSet.cpp.obj
 0001:0000d150       ??_GPluginCheckBoxBinding@@UAEPAXI@Z 1000e150 f i FarEditorSet.cpp.obj
 0001:0000d150       ??_GPluginEditFieldBinding@@UAEPAXI@Z 1000e150 f i FarEditorSet.cpp.obj
 0001:0000d150       ??_EPluginEditFieldBinding@@UAEPAXI@Z 1000e150 f i * CIL library *:* CIL module *
 0001:0000d150       ??_EPluginCheckBoxBinding@@UAEPAXI@Z 1000e150 f i * CIL library *:* CIL module *
 0001:0000d180       ?SaveValue@PluginRadioButtonBinding@@UAEXPAUFarDialogItem@@H@Z 1000e180 f i FarEditorSet.cpp.obj
 0001:0000d1b0       ??_GPluginRadioButtonBinding@@UAEPAXI@Z 1000e1b0 f i FarEditorSet.cpp.obj
 0001:0000d1b0       ??_EPluginRadioButtonBinding@@UAEPAXI@Z 1000e1b0 f i * CIL library *:* CIL module *
 0001:0000d1e0       ?SaveValue@PluginEditFieldBinding@@UAEXPAUFarDialogItem@@H@Z 1000e1e0 f i FarEditorSet.cpp.obj
 0001:0000d210       ?SaveValue@PluginIntEditFieldBinding@@UAEXPAUFarDialogItem@@H@Z 1000e210 f i FarEditorSet.cpp.obj
 0001:0000d240       ??_GPluginIntEditFieldBinding@@UAEPAXI@Z 1000e240 f i FarEditorSet.cpp.obj
 0001:0000d240       ??_EPluginIntEditFieldBinding@@UAEPAXI@Z 1000e240 f i * CIL library *:* CIL module *
 0001:0000d240       ??_GPluginUIntEditFieldBinding@@UAEPAXI@Z 1000e240 f i FarEditorSet.cpp.obj
 0001:0000d240       ??_EPluginUIntEditFieldBinding@@UAEPAXI@Z 1000e240 f i * CIL library *:* CIL module *
 0001:0000d270       ?SaveValue@PluginUIntEditFieldBinding@@UAEXPAUFarDialogItem@@H@Z 1000e270 f i FarEditorSet.cpp.obj
 0001:0000d2a0       ?SaveValue@PluginListControlBinding@@UAEXPAUFarDialogItem@@H@Z 1000e2a0 f i FarEditorSet.cpp.obj
 0001:0000d300       ??_EPluginListControlBinding@@UAEPAXI@Z 1000e300 f i * CIL library *:* CIL module *
 0001:0000d300       ??_GPluginListControlBinding@@UAEPAXI@Z 1000e300 f i FarEditorSet.cpp.obj
 0001:0000d350       ?InitDialogItem@PluginDialogBuilder@@MAEXPAUFarDialogItem@@PB_W@Z 1000e350 f i FarEditorSet.cpp.obj
 0001:0000d370       ?TextWidth@PluginDialogBuilder@@MAEHABUFarDialogItem@@@Z 1000e370 f i FarEditorSet.cpp.obj
 0001:0000d380       ?GetLangString@PluginDialogBuilder@@MAEPB_WH@Z 1000e380 f i FarEditorSet.cpp.obj
 0001:0000d3a0       ?DoShowDialog@PluginDialogBuilder@@MAEHXZ 1000e3a0 f i FarEditorSet.cpp.obj
 0001:0000d3f0       ?CreateCheckBoxBinding@PluginDialogBuilder@@MAEPAU?$DialogItemBinding@UFarDialogItem@@@@PAHH@Z 1000e3f0 f i FarEditorSet.cpp.obj
 0001:0000d450       ?CreateRadioButtonBinding@PluginDialogBuilder@@MAEPAU?$DialogItemBinding@UFarDialogItem@@@@PAH@Z 1000e450 f i FarEditorSet.cpp.obj
 0001:0000d4a0       ??0PluginDialogBuilder@@QAE@ABUPluginStartupInfo@@ABU_GUID@@1HPB_WP6GHPAXHH3@Z3_K@Z 1000e4a0 f i FarEditorSet.cpp.obj
 0001:0000d5d0       ??1PluginDialogBuilder@@UAE@XZ 1000e5d0 f i FarEditorSet.cpp.obj
 0001:0000d650       ?AddIntEditField@PluginDialogBuilder@@UAEPAUFarDialogItem@@PAHH@Z 1000e650 f i FarEditorSet.cpp.obj
 0001:0000d790       ?AddUIntEditField@PluginDialogBuilder@@UAEPAUFarDialogItem@@PAIH@Z 1000e790 f i FarEditorSet.cpp.obj
 0001:0000d8d0       ?AddEditField@PluginDialogBuilder@@QAEPAUFarDialogItem@@PA_WHHPB_W_N@Z 1000e8d0 f i FarEditorSet.cpp.obj
 0001:0000d970       ?AddComboBox@PluginDialogBuilder@@QAEPAUFarDialogItem@@PAHPA_WHPBQB_WI_K@Z 1000e970 f i FarEditorSet.cpp.obj
 0001:0000dab0       ??_GPluginDialogBuilder@@UAEPAXI@Z 1000eab0 f i FarEditorSet.cpp.obj
 0001:0000dab0       ??_EPluginDialogBuilder@@UAEPAXI@Z 1000eab0 f i * CIL library *:* CIL module *
 0001:0000dad0       ??0FarEditorSet@@QAE@XZ    1000ead0 f   FarEditorSet.cpp.obj
 0001:0000dd20       ??1?$unordered_map@W4level_enum@level@spdlog@@GU?$hash@H@std@@U?$equal_to@W4level_enum@level@spdlog@@@5@V?$allocator@U?$pair@$$CBW4level_enum@level@spdlog@@G@std@@@5@@std@@QAE@XZ 1000ed20 f i spdlog:color_sinks.cpp.obj
 0001:0000dd20       ??1?$unordered_map@HPAVFarEditor@@U?$hash@H@std@@U?$equal_to@H@3@V?$allocator@U?$pair@$$CBHPAVFarEditor@@@std@@@3@@std@@QAE@XZ 1000ed20 f i FarEditorSet.cpp.obj
 0001:0000dd30       ??1?$_Hash@V?$_Umap_traits@HPAVFarEditor@@V?$_Uhash_compare@HU?$hash@H@std@@U?$equal_to@H@2@@std@@V?$allocator@U?$pair@$$CBHPAVFarEditor@@@std@@@3@$0A@@std@@@std@@QAE@XZ 1000ed30 f i FarEditorSet.cpp.obj
 0001:0000dd30       ??1?$_Hash@V?$_Umap_traits@W4level_enum@level@spdlog@@GV?$_Uhash_compare@W4level_enum@level@spdlog@@U?$hash@H@std@@U?$equal_to@W4level_enum@level@spdlog@@@5@@std@@V?$allocator@U?$pair@$$CBW4level_enum@level@spdlog@@G@std@@@5@$0A@@std@@@std@@QAE@XZ 1000ed30 f i spdlog:color_sinks.cpp.obj
 0001:0000ddc0       ??1FarEditorSet@@QAE@XZ    1000edc0 f   FarEditorSet.cpp.obj
 0001:0000df00       ?ColorThread@@YGXPAXE@Z    1000ef00 f   FarEditorSet.cpp.obj
 0001:0000df20       ?menuConfigure@FarEditorSet@@QAEXXZ 1000ef20 f   FarEditorSet.cpp.obj
 0001:0000e110       ?openMenu@FarEditorSet@@QAEXH@Z 1000f110 f   FarEditorSet.cpp.obj
 0001:0000e510       ?viewFile@FarEditorSet@@QAEXABVString@@@Z 1000f510 f   FarEditorSet.cpp.obj
 0001:0000e7e0       ?FillTypeMenu@FarEditorSet@@ABEXPAVChooseTypeMenu@@PAVFileType@@@Z 1000f7e0 f   FarEditorSet.cpp.obj
 0001:0000e930       ?KeyDialogProc@@YGHPAXHH0@Z 1000f930 f   FarEditorSet.cpp.obj
 0001:0000ea30       ?chooseType@FarEditorSet@@AAE_NXZ 1000fa30 f   FarEditorSet.cpp.obj
 0001:0000f250       ?SettingDialogProc@@YGHPAXHH0@Z 10010250 f   FarEditorSet.cpp.obj
 0001:0000f300       ?configure@FarEditorSet@@QAE_NXZ 10010300 f   FarEditorSet.cpp.obj
 0001:00010140       ?editorInput@FarEditorSet@@QAEHABU_INPUT_RECORD@@@Z 10011140 f   FarEditorSet.cpp.obj
 0001:00010240       ?editorEvent@FarEditorSet@@QAEHPBUProcessEditorEventInfo@@@Z 10011240 f   FarEditorSet.cpp.obj
 0001:00010470       ?TestLoadBase@FarEditorSet@@QAE_NPB_W00HW4HRC_MODE@1@@Z 10011470 f   FarEditorSet.cpp.obj
 0001:000109c0       ?ReloadBase@FarEditorSet@@AAEXXZ 100119c0 f   FarEditorSet.cpp.obj
 0001:00010ef0       ?addCurrentEditor@FarEditorSet@@AAEPAVFarEditor@@XZ 10011ef0 f   FarEditorSet.cpp.obj
 0001:000110a0       ?getCurrentFileName@FarEditorSet@@AAEPAVString@@XZ 100120a0 f   FarEditorSet.cpp.obj
 0001:00011180       ?getCurrentEditor@FarEditorSet@@AAEPAVFarEditor@@XZ 10012180 f   FarEditorSet.cpp.obj
 0001:000112a0       ?disableColorer@FarEditorSet@@QAEXXZ 100122a0 f   FarEditorSet.cpp.obj
 0001:000113a0       ?dropCurrentEditor@FarEditorSet@@AAEX_N@Z 100123a0 f   FarEditorSet.cpp.obj
 0001:00011500       ?ReadSettings@FarEditorSet@@QAEXXZ 10012500 f   FarEditorSet.cpp.obj
 0001:00011be0       ?applyLogSetting@FarEditorSet@@QAEXXZ 10012be0 f   FarEditorSet.cpp.obj
 0001:00012070       ?SaveSettings@FarEditorSet@@ABEXXZ 10013070 f   FarEditorSet.cpp.obj
 0001:000123c0       ?SaveLogSettings@FarEditorSet@@ABEXXZ 100133c0 f   FarEditorSet.cpp.obj
 0001:000124c0       ?LoadUserHrd@FarEditorSet@@QAEXPBVString@@PAVParserFactory@@@Z 100134c0 f   FarEditorSet.cpp.obj
 0001:000127d0       ??0ParserFactoryException@@QAE@ABV0@@Z 100137d0 f i FarEditorSet.cpp.obj
 0001:000127f0       ?LoadUserHrc@FarEditorSet@@QAEXPBVString@@PAVParserFactory@@@Z 100137f0 f   FarEditorSet.cpp.obj
 0001:000128a0       ?configureHrc@FarEditorSet@@QAE_N_N@Z 100138a0 f   FarEditorSet.cpp.obj
 0001:00012910       ?showExceptionMessage@FarEditorSet@@QAEXPB_W@Z 10013910 f   FarEditorSet.cpp.obj
 0001:00012970       ?configureLogging@FarEditorSet@@QAE_NXZ 10013970 f   FarEditorSet.cpp.obj
 0001:00012c30       ?setEmptyLogger@FarEditorSet@@AAEXXZ 10013c30 f   FarEditorSet.cpp.obj
 0001:00012db0       ?getHrdArrayWithCurrent@FarEditorSet@@AAEHPB_WPAV?$vector@PBVHRDNode@@V?$allocator@PBVHRDNode@@@std@@@std@@PAV?$vector@PB_WV?$allocator@PB_W@std@@@3@@Z 10013db0 f   FarEditorSet.cpp.obj
 0001:00012ef0       ?oldMacro@FarEditorSet@@QAEPAXW4FARMACROAREA@@PAUOpenMacroInfo@@@Z 10013ef0 f   FarEditorSet.cpp.obj
 0001:00013060       ?macroSettings@FarEditorSet@@AAEPAXW4FARMACROAREA@@PAUOpenMacroInfo@@@Z 10014060 f   FarEditorSet.cpp.obj
 0001:000132e0       ?macroTypes@FarEditorSet@@AAEPAXW4FARMACROAREA@@PAUOpenMacroInfo@@@Z 100142e0 f   FarEditorSet.cpp.obj
 0001:00013720       ?macroBrackets@FarEditorSet@@AAEPAXW4FARMACROAREA@@PAUOpenMacroInfo@@@Z 10014720 f   FarEditorSet.cpp.obj
 0001:00013900       ?macroRegion@FarEditorSet@@AAEPAXW4FARMACROAREA@@PAUOpenMacroInfo@@@Z 10014900 f   FarEditorSet.cpp.obj
 0001:00013b90       ?macroFunctions@FarEditorSet@@AAEPAXW4FARMACROAREA@@PAUOpenMacroInfo@@@Z 10014b90 f   FarEditorSet.cpp.obj
 0001:00013ed0       ?macroErrors@FarEditorSet@@AAEPAXW4FARMACROAREA@@PAUOpenMacroInfo@@@Z 10014ed0 f   FarEditorSet.cpp.obj
 0001:000141c0       ?macroEditor@FarEditorSet@@AAEPAXW4FARMACROAREA@@PAUOpenMacroInfo@@@Z 100151c0 f   FarEditorSet.cpp.obj
 0001:00014880       ?macroParams@FarEditorSet@@AAEPAXW4FARMACROAREA@@PAUOpenMacroInfo@@@Z 10015880 f   FarEditorSet.cpp.obj
 0001:00014fa0       ?execMacro@FarEditorSet@@QAEPAXW4FARMACROAREA@@PAUOpenMacroInfo@@@Z 10015fa0 f   FarEditorSet.cpp.obj
 0001:00015330       ??1?$unique_ptr@VHRDNode@@U?$default_delete@VHRDNode@@@std@@@std@@QAE@XZ 10016330 f i FarEditorSet.cpp.obj
 0001:00015390       ?ShowDialog@?$DialogBuilderBase@UFarDialogItem@@@@QAE_NXZ 10016390 f i FarEditorSet.cpp.obj
 0001:00015480       ?AddTextBefore@?$DialogBuilderBase@UFarDialogItem@@@@QAEPAUFarDialogItem@@PAU2@H@Z 10016480 f i FarEditorSet.cpp.obj
 0001:00015510       ?resolveSystemId@XMLScanner@xercesc_3_2@@MAEPAVInputSource@2@QB_W0@Z 10016510 f i xerces-c_3:XMLScanner.cpp.obj
 0001:00015510       ?resolveSystemId@WFXMLScanner@xercesc_3_2@@EAEPAVInputSource@2@QB_W0@Z 10016510 f i xerces-c_3:WFXMLScanner.cpp.obj
 0001:00015510       ?getFeature@DOMNodeImpl@xercesc_3_2@@QBEPAXPB_W0@Z 10016510 f i xerces-c_3:DOMNodeImpl.cpp.obj
 0001:00015510       ?AddIntEditField@?$DialogBuilderBase@UFarDialogItem@@@@UAEPAUFarDialogItem@@PAHH@Z 10016510 f i FarEditorSet.cpp.obj
 0001:00015510       ?AddUIntEditField@?$DialogBuilderBase@UFarDialogItem@@@@UAEPAUFarDialogItem@@PAIH@Z 10016510 f i FarEditorSet.cpp.obj
 0001:00015510       ?CreateCheckBoxBinding@?$DialogBuilderBase@UFarDialogItem@@@@MAEPAU?$DialogItemBinding@UFarDialogItem@@@@PAHH@Z 10016510 f i FarEditorSet.cpp.obj
 0001:00015510       ?getFeature@DOMImplementationImpl@xercesc_3_2@@UBEPAXPB_W0@Z 10016510 f i xerces-c_3:DOMImplementationImpl.cpp.obj
 0001:00015520       ??1?$DialogBuilderBase@UFarDialogItem@@@@MAE@XZ 10016520 f i FarEditorSet.cpp.obj
 0001:00015560       ?getMin@Token@xercesc_3_2@@UBEHXZ 10016560 f i xerces-c_3:RangeToken.cpp.obj
 0001:00015560       ?DoShowDialog@?$DialogBuilderBase@UFarDialogItem@@@@MAEHXZ 10016560 f i FarEditorSet.cpp.obj
 0001:00015560       ?getMax@Token@xercesc_3_2@@UBEHXZ 10016560 f i xerces-c_3:RangeToken.cpp.obj
 0001:00015560       ?getChar@Token@xercesc_3_2@@UBEHXZ 10016560 f i xerces-c_3:RangeToken.cpp.obj
 0001:00015560       ?GetVirtualProcessorId@ExternalContextBase@details@Concurrency@@UBEIXZ 10016560 f i libconcrt:ExternalContextBase.obj
 0001:00015570       ?TextWidth@?$DialogBuilderBase@UFarDialogItem@@@@MAEHABUFarDialogItem@@@Z 10016570 f i FarEditorSet.cpp.obj
 0001:00015580       ?normalizeContent@AbstractStringValidator@xercesc_3_2@@MBEXQA_WQAVMemoryManager@2@@Z 10016580 f i xerces-c_3:AbstractStringValidator.cpp.obj
 0001:00015580       ?NotifyResourcesExternallyIdle@ThreadScheduler@details@Concurrency@@UAEXPAPAUIVirtualProcessorRoot@3@I@Z 10016580 f i libconcrt:ThreadScheduler.obj
 0001:00015580       ?checkValueSpace@ListDatatypeValidator@xercesc_3_2@@MAEXQB_WQAVMemoryManager@2@@Z 10016580 f i xerces-c_3:ListDatatypeValidator.cpp.obj
 0001:00015580       ?checkValueSpace@StringDatatypeValidator@xercesc_3_2@@MAEXQB_WQAVMemoryManager@2@@Z 10016580 f i xerces-c_3:StringDatatypeValidator.cpp.obj
 0001:00015580       ?clearLine@RegionHandler@@UAEXIPAVString@@@Z 10016580 f i colorer:Outliner.cpp.obj
 0001:00015580       ?checkAdditionalFacet@AbstractStringValidator@xercesc_3_2@@MBEXQB_WQAVMemoryManager@2@@Z 10016580 f i xerces-c_3:AbstractStringValidator.cpp.obj
 0001:00015580       ?SaveValue@?$DialogItemBinding@UFarDialogItem@@@@UAEXPAUFarDialogItem@@H@Z 10016580 f i FarEditorSet.cpp.obj
 0001:00015580       ?VirtualProcessorActiveNotification@SchedulerBase@details@Concurrency@@MAEX_NJ@Z 10016580 f i libconcrt:SchedulerBase.obj
 0001:00015580       ?NotifyResourcesExternallyBusy@ThreadScheduler@details@Concurrency@@UAEXPAPAUIVirtualProcessorRoot@3@I@Z 10016580 f i libconcrt:ThreadScheduler.obj
 0001:00015580       ?InitDialogItem@?$DialogBuilderBase@UFarDialogItem@@@@MAEXPAUFarDialogItem@@PB_W@Z 10016580 f i FarEditorSet.cpp.obj
 0001:00015590       ?AddDialogItem@?$DialogBuilderBase@UFarDialogItem@@@@IAEPAUFarDialogItem@@W4FARDIALOGITEMTYPES@@PB_W@Z 10016590 f i FarEditorSet.cpp.obj
 0001:000156b0       ??1?$unique_ptr@VColorer@@U?$default_delete@VColorer@@@std@@@std@@QAE@XZ 100166b0 f i FarEditorSet.cpp.obj
 0001:000156d0       ??1?$unique_ptr@VRegionMapper@@U?$default_delete@VRegionMapper@@@std@@@std@@QAE@XZ 100166d0 f i FarEditorSet.cpp.obj
 0001:000156e0       ??1?$_Hash_vec@V?$allocator@V?$_List_unchecked_iterator@V?$_List_val@U?$_List_simple_types@U?$pair@$$CBHPAVFarEditor@@@std@@@std@@@std@@@std@@@std@@@std@@QAE@XZ 100166e0 f i FarEditorSet.cpp.obj
 0001:000156e0       ??1?$_Hash_vec@V?$allocator@V?$_List_unchecked_iterator@V?$_List_val@U?$_List_simple_types@U?$pair@$$CBV?$basic_string@DU?$char_traits@D@std@@V?$allocator@D@2@@std@@V?$shared_ptr@Vlogger@spdlog@@@2@@std@@@std@@@std@@@std@@@std@@@std@@QAE@XZ 100166e0 f i spdlog:spdlog.cpp.obj
 0001:000156e0       ??1?$_Hash_vec@V?$allocator@V?$_List_unchecked_iterator@V?$_List_val@U?$_List_simple_types@U?$pair@$$CBVSString@@H@std@@@std@@@std@@@std@@@std@@@std@@QAE@XZ 100166e0 f i colorer:HRCParserImpl.cpp.obj
 0001:000156e0       ??1?$_Hash_vec@V?$allocator@V?$_List_unchecked_iterator@V?$_List_val@U?$_List_simple_types@U?$pair@$$CBVSString@@PAVFileTypeImpl@@@std@@@std@@@std@@@std@@@std@@@std@@QAE@XZ 100166e0 f i colorer:HRCParserImpl.cpp.obj
 0001:000156e0       ??1?$_Hash_vec@V?$allocator@V?$_List_unchecked_iterator@V?$_List_val@U?$_List_simple_types@U?$pair@$$CBVSString@@PAVString@@@std@@@std@@@std@@@std@@@std@@@std@@QAE@XZ 100166e0 f i colorer:HRCParserImpl.cpp.obj
 0001:000156e0       ??1?$_Hash_vec@V?$allocator@V?$_List_unchecked_iterator@V?$_List_val@U?$_List_simple_types@U?$pair@$$CBVSString@@PAVSchemeImpl@@@std@@@std@@@std@@@std@@@std@@@std@@QAE@XZ 100166e0 f i colorer:HRCParserImpl.cpp.obj
 0001:000156e0       ??1?$_Hash_vec@V?$allocator@V?$_List_unchecked_iterator@V?$_List_val@U?$_List_simple_types@U?$pair@$$CBVSString@@PAVSharedXmlInputSource@@@std@@@std@@@std@@@std@@@std@@@std@@QAE@XZ 100166e0 f i colorer:SharedXmlInputSource.cpp.obj
 0001:000156e0       ??1?$_Hash_vec@V?$allocator@V?$_List_unchecked_iterator@V?$_List_val@U?$_List_simple_types@U?$pair@$$CBVSString@@PAVSharedInputSource@@@std@@@std@@@std@@@std@@@std@@@std@@QAE@XZ 100166e0 f i colorer:SharedInputSource.cpp.obj
 0001:000156e0       ??1?$_Hash_vec@V?$allocator@V?$_List_unchecked_iterator@V?$_List_val@U?$_List_simple_types@U?$pair@$$CBVSString@@PAVRegionDefine@@@std@@@std@@@std@@@std@@@std@@@std@@QAE@XZ 100166e0 f i colorer:StyledHRDMapper.cpp.obj
 0001:000156e0       ??1?$_Hash_vec@V?$allocator@V?$_List_unchecked_iterator@V?$_List_val@U?$_List_simple_types@U?$pair@$$CBVSString@@PAVTypeParameter@@@std@@@std@@@std@@@std@@@std@@@std@@QAE@XZ 100166e0 f i colorer:FileTypeImpl.cpp.obj
 0001:000156e0       ??1?$_Hash_vec@V?$allocator@V?$_List_unchecked_iterator@V?$_List_val@U?$_List_simple_types@U?$pair@$$CBVSString@@V?$unique_ptr@V?$vector@V?$unique_ptr@VHRDNode@@U?$default_delete@VHRDNode@@@std@@@std@@V?$allocator@V?$unique_ptr@VHRDNode@@U?$default_delete@VHRDNode@@@std@@@std@@@2@@std@@U?$default_delete@V?$vector@V?$unique_ptr@VHRDNode@@U?$default_delete@VHRDNode@@@std@@@std@@V?$allocator@V?$unique_ptr@VHRDNode@@U?$default_delete@VHRDNode@@@std@@@std@@@2@@std@@@2@@std@@@std@@@std@@@std@@@std@@@std@@@std@@QAE@XZ 100166e0 f i colorer:ParserFactory.cpp.obj
 0001:000156e0       ??1?$_Hash_vec@V?$allocator@V?$_List_unchecked_iterator@V?$_List_val@U?$_List_simple_types@U?$pair@$$CBVSString@@PBVRegion@@@std@@@std@@@std@@@std@@@std@@@std@@QAE@XZ 100166e0 f i colorer:HRCParserImpl.cpp.obj
 0001:000156e0       ??1?$_Hash_vec@V?$allocator@V?$_List_unchecked_iterator@V?$_List_val@U?$_List_simple_types@U?$pair@$$CBW4level_enum@level@spdlog@@G@std@@@std@@@std@@@std@@@std@@@std@@QAE@XZ 100166e0 f i spdlog:color_sinks.cpp.obj
 0001:00015730       ?clear@?$_Hash@V?$_Umap_traits@HPAVFarEditor@@V?$_Uhash_compare@HU?$hash@H@std@@U?$equal_to@H@2@@std@@V?$allocator@U?$pair@$$CBHPAVFarEditor@@@std@@@3@$0A@@std@@@std@@QAEXXZ 10016730 f i FarEditorSet.cpp.obj
 0001:000157b0       ?erase@?$_Hash@V?$_Umap_traits@HPAVFarEditor@@V?$_Uhash_compare@HU?$hash@H@std@@U?$equal_to@H@2@@std@@V?$allocator@U?$pair@$$CBHPAVFarEditor@@@std@@@3@$0A@@std@@@std@@QAEIABH@Z 100167b0 f i FarEditorSet.cpp.obj
 0001:00015870       ??1?$list@U?$pair@$$CBHPAVFarEditor@@@std@@V?$allocator@U?$pair@$$CBHPAVFarEditor@@@std@@@2@@std@@QAE@XZ 10016870 f i FarEditorSet.cpp.obj
 0001:00015870       ??1?$list@U?$pair@$$CBW4level_enum@level@spdlog@@G@std@@V?$allocator@U?$pair@$$CBW4level_enum@level@spdlog@@G@std@@@2@@std@@QAE@XZ 10016870 f i spdlog:color_sinks.cpp.obj
 0001:000158b0       ??1?$vector@VSString@@V?$allocator@VSString@@@std@@@std@@QAE@XZ 100168b0 f i FarEditorSet.cpp.obj
 0001:00015930       ??1?$shared_ptr@V?$wincolor_stdout_sink@Uconsole_mutex@details@spdlog@@@sinks@spdlog@@@std@@QAE@XZ 10016930 f i spdlog:spdlog.cpp.obj
 0001:00015930       ??1?$shared_ptr@Vthread_pool@details@spdlog@@@std@@QAE@XZ 10016930 f i spdlog:spdlog.cpp.obj
 0001:00015930       ??1?$shared_ptr@V?$null_sink@Unull_mutex@details@spdlog@@@sinks@spdlog@@@std@@QAE@XZ 10016930 f i FarEditorSet.cpp.obj
 0001:00015930       ??1?$shared_ptr@V?$basic_file_sink@Vmutex@std@@@sinks@spdlog@@@std@@QAE@XZ 10016930 f i FarEditorSet.cpp.obj
 0001:00015930       ??1?$shared_ptr@Vsink@sinks@spdlog@@@std@@QAE@XZ 10016930 f i FarEditorSet.cpp.obj
 0001:00015930       ??1?$shared_ptr@Vlogger@spdlog@@@std@@QAE@XZ 10016930 f i FarEditorSet.cpp.obj
 0001:00015960       ??1?$vector@V?$shared_ptr@Vsink@sinks@spdlog@@@std@@V?$allocator@V?$shared_ptr@Vsink@sinks@spdlog@@@std@@@2@@std@@QAE@XZ 10016960 f i FarEditorSet.cpp.obj
 0001:00015970       ??1?$vector@Vlog_msg_buffer@details@spdlog@@V?$allocator@Vlog_msg_buffer@details@spdlog@@@std@@@std@@QAE@XZ 10016970 f i FarEditorSet.cpp.obj
 0001:00015970       ?_Tidy@?$vector@Vlog_msg_buffer@details@spdlog@@V?$allocator@Vlog_msg_buffer@details@spdlog@@@std@@@std@@AAEXXZ 10016970 f i FarEditorSet.cpp.obj
 0001:00015a30       ??0?$basic_string@DU?$char_traits@D@std@@V?$allocator@D@2@@std@@QAE@ABV01@@Z 10016a30 f i FarEditorSet.cpp.obj
 0001:00015b00       ??_G?$DialogBuilderBase@UFarDialogItem@@@@MAEPAXI@Z 10016b00 f i FarEditorSet.cpp.obj
 0001:00015b00       ??_E?$DialogBuilderBase@UFarDialogItem@@@@MAEPAXI@Z 10016b00 f i * CIL library *:* CIL module *
 0001:00015b60       ??_E?$DialogItemBinding@UFarDialogItem@@@@UAEPAXI@Z 10016b60 f i * CIL library *:* CIL module *
 0001:00015b60       ??_G?$DialogItemBinding@UFarDialogItem@@@@UAEPAXI@Z 10016b60 f i FarEditorSet.cpp.obj
 0001:00015b90       ?_Xrange@?$vector@PAVLineRegion@@V?$allocator@PAVLineRegion@@@std@@@std@@CAXXZ 10016b90 f i colorer:LineRegionsSupport.cpp.obj
 0001:00015b90       ?_Xrange@?$vector@PAVSchemeNode@@V?$allocator@PAVSchemeNode@@@std@@@std@@CAXXZ 10016b90 f i colorer:HRCParserImpl.cpp.obj
 0001:00015b90       ?_Xrange@?$vector@V?$unique_ptr@VString@@U?$default_delete@VString@@@std@@@std@@V?$allocator@V?$unique_ptr@VString@@U?$default_delete@VString@@@std@@@std@@@2@@std@@CAXXZ 10016b90 f i colorer:HRCParserImpl.cpp.obj
 0001:00015b90       ?_Xrange@?$vector@PBVHRDNode@@V?$allocator@PBVHRDNode@@@std@@@std@@CAXXZ 10016b90 f i FarEditorSet.cpp.obj
 0001:00015b90       ?_Xrange@?$vector@PAVOutlineItem@@V?$allocator@PAVOutlineItem@@@std@@@std@@CAXXZ 10016b90 f i colorer:Outliner.cpp.obj
 0001:00015b90       ?_Xrange@?$vector@PAVSString@@V?$allocator@PAVSString@@@std@@@std@@CAXXZ 10016b90 f i colorer:TextLinesStore.cpp.obj
 0001:00015b90       ?_Xrange@?$vector@PBVRegionDefine@@V?$allocator@PBVRegionDefine@@@std@@@std@@CAXXZ 10016b90 f i colorer:RegionMapperImpl.cpp.obj
 0001:00015ba0       ?AddButtons@?$DialogBuilderBase@UFarDialogItem@@@@QAEXHPBHHH@Z 10016ba0 f i FarEditorSet.cpp.obj
 0001:00015df0       ?ItemWidth@?$DialogBuilderBase@UFarDialogItem@@@@IAEHABUFarDialogItem@@@Z 10016df0 f i FarEditorSet.cpp.obj
 0001:00015e90       ?_Unchecked_erase@?$_Hash@V?$_Umap_traits@HPAVFarEditor@@V?$_Uhash_compare@HU?$hash@H@std@@U?$equal_to@H@2@@std@@V?$allocator@U?$pair@$$CBHPAVFarEditor@@@std@@@3@$0A@@std@@@std@@AAEPAU?$_List_node@U?$pair@$$CBHPAVFarEditor@@@std@@PAX@2@PAU32@QAU32@@Z 10016e90 f i FarEditorSet.cpp.obj
 0001:00016040       ?_Destroy@?$vector@VSString@@V?$allocator@VSString@@@std@@@std@@AAEXPAVSString@@0@Z 10017040 f i FarEditorSet.cpp.obj
 0001:00016070       ?_Tidy@?$vector@V?$shared_ptr@Vsink@sinks@spdlog@@@std@@V?$allocator@V?$shared_ptr@Vsink@sinks@spdlog@@@std@@@2@@std@@AAEXXZ 10017070 f i FarEditorSet.cpp.obj
 0001:000160d0       ?append@?$basic_string@DU?$char_traits@D@std@@V?$allocator@D@2@@std@@QAEAAV12@QBDI@Z 100170d0 f i FarEditorSet.cpp.obj
 0001:00016130       ?UpdateBorderSize@?$DialogBuilderBase@UFarDialogItem@@@@IAEXXZ 10017130 f i FarEditorSet.cpp.obj
 0001:000162c0       ?_Assign_grow@?$_Hash_vec@V?$allocator@V?$_List_unchecked_iterator@V?$_List_val@U?$_List_simple_types@U?$pair@$$CBHPAVFarEditor@@@std@@@std@@@std@@@std@@@std@@@std@@QAEXIV?$_List_unchecked_iterator@V?$_List_val@U?$_List_simple_types@U?$pair@$$CBHPAVFarEditor@@@std@@@std@@@std@@@2@@Z 100172c0 f i FarEditorSet.cpp.obj
 0001:000163b0       ?getExceptionMemoryManager@MemoryManagerImpl@xercesc_3_2@@UAEPAVMemoryManager@2@XZ 100173b0 f i xerces-c_3:MemoryManagerImpl.cpp.obj
 0001:000163b0       ?_Getal@?$vector@VSString@@V?$allocator@VSString@@@std@@@std@@AAEAAV?$allocator@VSString@@@2@XZ 100173b0 f i FarEditorSet.cpp.obj
 0001:000163b0       ?getInputSource@ZipXmlInputSource@@UAEPAVInputSource@xercesc_3_2@@XZ 100173b0 f i colorer:ZipXmlInputSource.cpp.obj
 0001:000163c0       ?deallocate@?$allocator@VSString@@@std@@QAEXQAVSString@@I@Z 100173c0 f i FarEditorSet.cpp.obj
 0001:00016400       ??$?0PBV?$shared_ptr@Vsink@sinks@spdlog@@@std@@@logger@spdlog@@QAE@V?$basic_string@DU?$char_traits@D@std@@V?$allocator@D@2@@std@@PBV?$shared_ptr@Vsink@sinks@spdlog@@@3@1@Z 10017400 f i FarEditorSet.cpp.obj
 0001:000165f0       ??$error@PBD@spdlog@@YAXV?$basic_string_view@D@v6@fmt@@ABQBD@Z 100175f0 f i FarEditorSet.cpp.obj
 0001:00016630       ??$find@X@?$_Hash@V?$_Umap_traits@HPAVFarEditor@@V?$_Uhash_compare@HU?$hash@H@std@@U?$equal_to@H@2@@std@@V?$allocator@U?$pair@$$CBHPAVFarEditor@@@std@@@3@$0A@@std@@@std@@QAE?AV?$_List_iterator@V?$_List_val@U?$_List_simple_types@U?$pair@$$CBHPAVFarEditor@@@std@@@std@@@std@@@1@ABH@Z 10017630 f i FarEditorSet.cpp.obj
 0001:000166a0       ??$erase@V?$_List_iterator@V?$_List_val@U?$_List_simple_types@U?$pair@$$CBHPAVFarEditor@@@std@@@std@@@std@@@std@@X@?$_Hash@V?$_Umap_traits@HPAVFarEditor@@V?$_Uhash_compare@HU?$hash@H@std@@U?$equal_to@H@2@@std@@V?$allocator@U?$pair@$$CBHPAVFarEditor@@@std@@@3@$0A@@std@@@std@@QAE?AV?$_List_iterator@V?$_List_val@U?$_List_simple_types@U?$pair@$$CBHPAVFarEditor@@@std@@@std@@@std@@@1@V21@@Z 100176a0 f i FarEditorSet.cpp.obj
 0001:00016740       ??$emplace@AAU?$pair@HPAVFarEditor@@@std@@@?$_Hash@V?$_Umap_traits@HPAVFarEditor@@V?$_Uhash_compare@HU?$hash@H@std@@U?$equal_to@H@2@@std@@V?$allocator@U?$pair@$$CBHPAVFarEditor@@@std@@@3@$0A@@std@@@std@@QAE?AU?$pair@V?$_List_iterator@V?$_List_val@U?$_List_simple_types@U?$pair@$$CBHPAVFarEditor@@@std@@@std@@@std@@@std@@_N@1@AAU?$pair@HPAVFarEditor@@@1@@Z 10017740 f i FarEditorSet.cpp.obj
 0001:00016930       ??$_Emplace_reallocate@PB_W@?$vector@PB_WV?$allocator@PB_W@std@@@std@@QAEPAPB_WQAPB_W$$QAPB_W@Z 10017930 f i FarEditorSet.cpp.obj
 0001:00016930       ??$_Emplace_reallocate@ABQB_W@?$vector@PB_WV?$allocator@PB_W@std@@@std@@QAEPAPB_WQAPB_WABQB_W@Z 10017930 f i FarEditorSet.cpp.obj
 0001:00016a00       ??$_Find_last@H@?$_Hash@V?$_Umap_traits@HPAVFarEditor@@V?$_Uhash_compare@HU?$hash@H@std@@U?$equal_to@H@2@@std@@V?$allocator@U?$pair@$$CBHPAVFarEditor@@@std@@@3@$0A@@std@@@std@@IBE?AU?$_Hash_find_last_result@PAU?$_List_node@U?$pair@$$CBHPAVFarEditor@@@std@@PAX@std@@@1@ABHI@Z 10017a00 f i FarEditorSet.cpp.obj
 0001:00016a00       ??$_Find_last@W4level_enum@level@spdlog@@@?$_Hash@V?$_Umap_traits@W4level_enum@level@spdlog@@GV?$_Uhash_compare@W4level_enum@level@spdlog@@U?$hash@H@std@@U?$equal_to@W4level_enum@level@spdlog@@@5@@std@@V?$allocator@U?$pair@$$CBW4level_enum@level@spdlog@@G@std@@@5@$0A@@std@@@std@@IBE?AU?$_Hash_find_last_result@PAU?$_List_node@U?$pair@$$CBW4level_enum@level@spdlog@@G@std@@PAX@std@@@1@ABW4level_enum@level@spdlog@@I@Z 10017a00 f i spdlog:color_sinks.cpp.obj
 0001:00016a70       ??$_Reallocate_grow_by@V<lambda_ab246b20b9526e2ef7792587e4298a77>@@PBDI@?$basic_string@DU?$char_traits@D@std@@V?$allocator@D@2@@std@@AAEAAV01@IV<lambda_ab246b20b9526e2ef7792587e4298a77>@@PBDI@Z 10017a70 f i FarEditorSet.cpp.obj
 0001:00016bc0       ??$_Destroy_range@V?$allocator@V?$shared_ptr@Vsink@sinks@spdlog@@@std@@@std@@@std@@YAXPAV?$shared_ptr@Vsink@sinks@spdlog@@@0@QAV10@AAV?$allocator@V?$shared_ptr@Vsink@sinks@spdlog@@@std@@@0@@Z 10017bc0 f i FarEditorSet.cpp.obj
 0001:00016c10       ??$_Destroy_range@V?$allocator@Vlog_msg_buffer@details@spdlog@@@std@@@std@@YAXPAVlog_msg_buffer@details@spdlog@@QAV123@AAV?$allocator@Vlog_msg_buffer@details@spdlog@@@0@@Z 10017c10 f i FarEditorSet.cpp.obj
 0001:00016c70       ??1?$_Alloc_construct_ptr@V?$allocator@U?$_List_node@U?$pair@$$CBHPAVFarEditor@@@std@@PAX@std@@@std@@@std@@QAE@XZ 10017c70 f i FarEditorSet.cpp.obj
 0001:00016c70       ??1?$_List_node_emplace_op2@V?$allocator@U?$_List_node@U?$pair@$$CBW4level_enum@level@spdlog@@G@std@@PAX@std@@@std@@@std@@QAE@XZ 10017c70 f i spdlog:color_sinks.cpp.obj
 0001:00016c70       ??1?$_List_node_emplace_op2@V?$allocator@U?$_List_node@U?$pair@$$CBHPAVFarEditor@@@std@@PAX@std@@@std@@@std@@QAE@XZ 10017c70 f i FarEditorSet.cpp.obj
 0001:00016c70       ??1?$_Alloc_construct_ptr@V?$allocator@U?$_List_node@U?$pair@$$CBW4level_enum@level@spdlog@@G@std@@PAX@std@@@std@@@std@@QAE@XZ 10017c70 f i spdlog:color_sinks.cpp.obj
 0001:00016c90       ?_Xlength@?$vector@V?$unique_ptr@VHRDNode@@U?$default_delete@VHRDNode@@@std@@@std@@V?$allocator@V?$unique_ptr@VHRDNode@@U?$default_delete@VHRDNode@@@std@@@std@@@2@@std@@CAXXZ 10017c90 f i colorer:ParserFactory.cpp.obj
 0001:00016c90       ?_Xlength@?$vector@PAVSString@@V?$allocator@PAVSString@@@std@@@std@@CAXXZ 10017c90 f i colorer:TextLinesStore.cpp.obj
 0001:00016c90       ?_Xlength@?$vector@PAVLineRegion@@V?$allocator@PAVLineRegion@@@std@@@std@@CAXXZ 10017c90 f i colorer:LineRegionsSupport.cpp.obj
 0001:00016c90       ?_Xlength@?$vector@PBVRegionDefine@@V?$allocator@PBVRegionDefine@@@std@@@std@@CAXXZ 10017c90 f i colorer:RegionMapperImpl.cpp.obj
 0001:00016c90       ?_Xlength@?$vector@PAVEditorListener@@V?$allocator@PAVEditorListener@@@std@@@std@@CAXXZ 10017c90 f i colorer:BaseEditor.cpp.obj
 0001:00016c90       ?_Xlength@?$vector@PBVHRDNode@@V?$allocator@PBVHRDNode@@@std@@@std@@CAXXZ 10017c90 f i colorer:ParserFactory.cpp.obj
 0001:00016c90       ?_Xlength@?$vector@PAVSchemeNode@@V?$allocator@PAVSchemeNode@@@std@@@std@@CAXXZ 10017c90 f i colorer:HRCParserImpl.cpp.obj
 0001:00016c90       ?_Xlength@?$vector@V?$unique_ptr@VString@@U?$default_delete@VString@@@std@@@std@@V?$allocator@V?$unique_ptr@VString@@U?$default_delete@VString@@@std@@@std@@@2@@std@@CAXXZ 10017c90 f i colorer:HRCParserImpl.cpp.obj
 0001:00016c90       ?_Xlength@?$vector@PAVFileTypeChooser@@V?$allocator@PAVFileTypeChooser@@@std@@@std@@CAXXZ 10017c90 f i colorer:HRCParserImpl.cpp.obj
 0001:00016c90       ?_Xlength@?$vector@PAVOutlineItem@@V?$allocator@PAVOutlineItem@@@std@@@std@@CAXXZ 10017c90 f i colorer:Outliner.cpp.obj
 0001:00016c90       ?_Xlength@?$vector@Vlog_msg_buffer@details@spdlog@@V?$allocator@Vlog_msg_buffer@details@spdlog@@@std@@@std@@CAXXZ 10017c90 f i spdlog:spdlog.cpp.obj
 0001:00016c90       ?_Xlength@?$vector@PAVFileTypeImpl@@V?$allocator@PAVFileTypeImpl@@@std@@@std@@CAXXZ 10017c90 f i colorer:HRCParserImpl.cpp.obj
 0001:00016c90       ?_Xlength@?$vector@V?$unique_ptr@Vflag_formatter@details@spdlog@@U?$default_delete@Vflag_formatter@details@spdlog@@@std@@@std@@V?$allocator@V?$unique_ptr@Vflag_formatter@details@spdlog@@U?$default_delete@Vflag_formatter@details@spdlog@@@std@@@std@@@2@@std@@CAXXZ 10017c90 f i spdlog:spdlog.cpp.obj
 0001:00016c90       ?_Xlength@?$vector@HV?$allocator@H@std@@@std@@CAXXZ 10017c90 f i colorer:Outliner.cpp.obj
 0001:00016c90       ?_Xlength@?$vector@PAVRegionHandler@@V?$allocator@PAVRegionHandler@@@std@@@std@@CAXXZ 10017c90 f i colorer:BaseEditor.cpp.obj
 0001:00016c90       ?_Xlength@?$vector@PB_WV?$allocator@PB_W@std@@@std@@CAXXZ 10017c90 f i FarEditorSet.cpp.obj
 0001:00016c90       ?_Xlength@?$vector@VSString@@V?$allocator@VSString@@@std@@@std@@CAXXZ 10017c90 f i colorer:FileTypeImpl.cpp.obj
 0001:00016c90       ?_Xlength@?$vector@PBVRegion@@V?$allocator@PBVRegion@@@std@@@std@@CAXXZ 10017c90 f i colorer:HRCParserImpl.cpp.obj
 0001:00016c90       ?_Xlength@?$vector@V?$shared_ptr@Vsink@sinks@spdlog@@@std@@V?$allocator@V?$shared_ptr@Vsink@sinks@spdlog@@@std@@@2@@std@@CAXXZ 10017c90 f i FarEditorSet.cpp.obj
 0001:00016c90       ?_Xlength@?$vector@PAVVirtualEntry@@V?$allocator@PAVVirtualEntry@@@std@@@std@@CAXXZ 10017c90 f i colorer:HRCParserImpl.cpp.obj
 0001:00016ca0       ?_Change_array@?$vector@PAVSString@@V?$allocator@PAVSString@@@std@@@std@@AAEXQAPAVSString@@II@Z 10017ca0 f i colorer:TextLinesStore.cpp.obj
 0001:00016ca0       ?_Change_array@?$vector@PAVFileTypeImpl@@V?$allocator@PAVFileTypeImpl@@@std@@@std@@AAEXQAPAVFileTypeImpl@@II@Z 10017ca0 f i colorer:HRCParserImpl.cpp.obj
 0001:00016ca0       ?_Change_array@?$vector@PAVOutlineItem@@V?$allocator@PAVOutlineItem@@@std@@@std@@AAEXQAPAVOutlineItem@@II@Z 10017ca0 f i colorer:Outliner.cpp.obj
 0001:00016ca0       ?_Change_array@?$vector@PB_WV?$allocator@PB_W@std@@@std@@AAEXQAPB_WII@Z 10017ca0 f i FarEditorSet.cpp.obj
 0001:00016ca0       ?_Change_array@?$vector@PBVRegionDefine@@V?$allocator@PBVRegionDefine@@@std@@@std@@AAEXQAPBVRegionDefine@@II@Z 10017ca0 f i colorer:RegionMapperImpl.cpp.obj
 0001:00016ca0       ?_Change_array@?$vector@PBVRegion@@V?$allocator@PBVRegion@@@std@@@std@@AAEXQAPBVRegion@@II@Z 10017ca0 f i colorer:HRCParserImpl.cpp.obj
 0001:00016ca0       ?_Change_array@?$vector@PBVHRDNode@@V?$allocator@PBVHRDNode@@@std@@@std@@AAEXQAPBVHRDNode@@II@Z 10017ca0 f i colorer:ParserFactory.cpp.obj
 0001:00016ca0       ?_Change_array@?$vector@PAVLineRegion@@V?$allocator@PAVLineRegion@@@std@@@std@@AAEXQAPAVLineRegion@@II@Z 10017ca0 f i colorer:LineRegionsSupport.cpp.obj
 0001:00016d00       ?allocate@?$allocator@PBVRegionDefine@@@std@@QAEPAPBVRegionDefine@@I@Z 10017d00 f i colorer:RegionMapperImpl.cpp.obj
 0001:00016d00       ?allocate@?$allocator@PAVLineRegion@@@std@@QAEPAPAVLineRegion@@I@Z 10017d00 f i colorer:LineRegionsSupport.cpp.obj
 0001:00016d00       ?allocate@?$allocator@PAVOutlineItem@@@std@@QAEPAPAVOutlineItem@@I@Z 10017d00 f i colorer:Outliner.cpp.obj
 0001:00016d00       ?allocate@?$allocator@PBVRegion@@@std@@QAEPAPBVRegion@@I@Z 10017d00 f i colorer:HRCParserImpl.cpp.obj
 0001:00016d00       ?allocate@?$allocator@PB_W@std@@QAEPAPB_WI@Z 10017d00 f i FarEditorSet.cpp.obj
 0001:00016d00       ?allocate@?$allocator@PBVHRDNode@@@std@@QAEPAPBVHRDNode@@I@Z 10017d00 f i colorer:ParserFactory.cpp.obj
 0001:00016d00       ?allocate@?$allocator@PAVFileTypeImpl@@@std@@QAEPAPAVFileTypeImpl@@I@Z 10017d00 f i colorer:HRCParserImpl.cpp.obj
 0001:00016d00       ?allocate@?$allocator@PAVSString@@@std@@QAEPAPAVSString@@I@Z 10017d00 f i colorer:TextLinesStore.cpp.obj
 0001:00016d60       ?_Forced_rehash@?$_Hash@V?$_Umap_traits@HPAVFarEditor@@V?$_Uhash_compare@HU?$hash@H@std@@U?$equal_to@H@2@@std@@V?$allocator@U?$pair@$$CBHPAVFarEditor@@@std@@@3@$0A@@std@@@std@@IAEXI@Z 10017d60 f i FarEditorSet.cpp.obj
 0001:00016ec0       ??$create@V?$basic_file_sink@Vmutex@std@@@sinks@spdlog@@ABV?$basic_string@DU?$char_traits@D@std@@V?$allocator@D@2@@std@@AA_N@synchronous_factory@spdlog@@SA?AV?$shared_ptr@Vlogger@spdlog@@@std@@V?$basic_string@DU?$char_traits@D@std@@V?$allocator@D@2@@3@ABV43@AA_N@Z 10017ec0 f i FarEditorSet.cpp.obj
 0001:00017070       ??$create@V?$null_sink@Unull_mutex@details@spdlog@@@sinks@spdlog@@$$V@synchronous_factory@spdlog@@SA?AV?$shared_ptr@Vlogger@spdlog@@@std@@V?$basic_string@DU?$char_traits@D@std@@V?$allocator@D@2@@3@@Z 10018070 f i FarEditorSet.cpp.obj
 0001:00017860       ?_Delete_this@?$_Ref_count_obj2@V?$null_sink@Unull_mutex@details@spdlog@@@sinks@spdlog@@@std@@EAEXXZ 10018860 f i FarEditorSet.cpp.obj
 0001:00017860       ?_Delete_this@?$_Ref_count_obj2@V?$wincolor_stdout_sink@Uconsole_mutex@details@spdlog@@@sinks@spdlog@@@std@@EAEXXZ 10018860 f i spdlog:spdlog.cpp.obj
 0001:00017860       ?_Delete_this@?$_Ref_count_obj2@V?$basic_file_sink@Vmutex@std@@@sinks@spdlog@@@std@@EAEXXZ 10018860 f i FarEditorSet.cpp.obj
 0001:00017860       ?_Delete_this@?$_Ref_count_obj2@Vlogger@spdlog@@@std@@EAEXXZ 10018860 f i FarEditorSet.cpp.obj
 0001:00017870       ?_Destroy@?$_Ref_count_obj2@V?$wincolor_stdout_sink@Uconsole_mutex@details@spdlog@@@sinks@spdlog@@@std@@EAEXXZ 10018870 f i spdlog:spdlog.cpp.obj
 0001:00017870       ?_Destroy@?$_Ref_count_obj2@V?$null_sink@Unull_mutex@details@spdlog@@@sinks@spdlog@@@std@@EAEXXZ 10018870 f i FarEditorSet.cpp.obj
 0001:00017880       ?_Destroy@?$_Ref_count_obj2@Vlogger@spdlog@@@std@@EAEXXZ 10018880 f i FarEditorSet.cpp.obj
 0001:00017890       ?_Destroy@?$_Ref_count_obj2@V?$basic_file_sink@Vmutex@std@@@sinks@spdlog@@@std@@EAEXXZ 10018890 f i FarEditorSet.cpp.obj
 0001:000178c0       ??_G?$_Ref_count_obj2@V?$null_sink@Unull_mutex@details@spdlog@@@sinks@spdlog@@@std@@UAEPAXI@Z 100188c0 f i FarEditorSet.cpp.obj
 0001:000178c0       ??_E?$_Ref_count_obj2@V?$null_sink@Unull_mutex@details@spdlog@@@sinks@spdlog@@@std@@UAEPAXI@Z 100188c0 f i * CIL library *:* CIL module *
 0001:000178f0       ??_E?$_Ref_count_obj2@Vlogger@spdlog@@@std@@UAEPAXI@Z 100188f0 f i * CIL library *:* CIL module *
 0001:000178f0       ??_G?$_Ref_count_obj2@Vlogger@spdlog@@@std@@UAEPAXI@Z 100188f0 f i FarEditorSet.cpp.obj
 0001:00017920       ??_G?$_Ref_count_obj2@V?$basic_file_sink@Vmutex@std@@@sinks@spdlog@@@std@@UAEPAXI@Z 10018920 f i FarEditorSet.cpp.obj
 0001:00017920       ??_E?$_Ref_count_obj2@V?$basic_file_sink@Vmutex@std@@@sinks@spdlog@@@std@@UAEPAXI@Z 10018920 f i * CIL library *:* CIL module *
 0001:00017950       ?_Buy_raw@?$vector@V?$shared_ptr@Vsink@sinks@spdlog@@@std@@V?$allocator@V?$shared_ptr@Vsink@sinks@spdlog@@@std@@@2@@std@@AAEXI@Z 10018950 f i FarEditorSet.cpp.obj
 0001:00017ae0       ??_G?$basic_file_sink@Vmutex@std@@@sinks@spdlog@@UAEPAXI@Z 10018ae0 f i FarEditorSet.cpp.obj
 0001:00017ae0       ??_E?$basic_file_sink@Vmutex@std@@@sinks@spdlog@@UAEPAXI@Z 10018ae0 f i * CIL library *:* CIL module *
 0001:00017b20       ??1?$base_sink@Vmutex@std@@@sinks@spdlog@@UAE@XZ 10018b20 f i FarEditorSet.cpp.obj
 0001:00017c10       ??_G?$base_sink@Unull_mutex@details@spdlog@@@sinks@spdlog@@UAEPAXI@Z 10018c10 f i spdlog:spdlog.cpp.obj
 0001:00017c10       ??_E?$null_sink@Unull_mutex@details@spdlog@@@sinks@spdlog@@UAEPAXI@Z 10018c10 f i * CIL library *:* CIL module *
 0001:00017c10       ??_E?$base_sink@Unull_mutex@details@spdlog@@@sinks@spdlog@@UAEPAXI@Z 10018c10 f i spdlog:spdlog.cpp.obj
 0001:00017c10       ??_G?$null_sink@Unull_mutex@details@spdlog@@@sinks@spdlog@@UAEPAXI@Z 10018c10 f i FarEditorSet.cpp.obj
 0001:00017c40       ??0FarHrcSettingsException@@QAE@ABVString@@@Z 10018c40 f i FarHrcSettings.cpp.obj
 0001:00017c90       ?readProfile@FarHrcSettings@@QAEXPAVSString@@@Z 10018c90 f   FarHrcSettings.cpp.obj
 0001:00017d30       ?readXML@FarHrcSettings@@QAEXPAVString@@_N@Z 10018d30 f   FarHrcSettings.cpp.obj
 0001:00017f70       ??0FarHrcSettingsException@@QAE@ABV0@@Z 10018f70 f i FarHrcSettings.cpp.obj
 0001:00017f90       ?UpdatePrototype@FarHrcSettings@@AAEXPAVDOMElement@xercesc_3_2@@_N@Z 10018f90 f   FarHrcSettings.cpp.obj
 0001:000181d0       ?readProfileFromRegistry@FarHrcSettings@@AAEXXZ 100191d0 f   FarHrcSettings.cpp.obj
 0001:00018480       ?writeProfileToRegistry@FarHrcSettings@@AAEXXZ 10019480 f   FarHrcSettings.cpp.obj
 0001:00018740       ?SettingHrcDialogProc@@YGHPAXHH0@Z 10019740 f   HrcSettingsForm.cpp.obj
 0001:00018820       ?showForm@HrcSettingsForm@@QAE_NXZ 10019820 f   HrcSettingsForm.cpp.obj
 0001:00018d70       ?buildHrcList@HrcSettingsForm@@QBEPAUFarList@@XZ 10019d70 f   HrcSettingsForm.cpp.obj
 0001:00018f10       ?OnChangeParam@HrcSettingsForm@@QAEXH@Z 10019f10 f   HrcSettingsForm.cpp.obj
 0001:000191c0       ?SaveChangedValueParam@HrcSettingsForm@@QBEXXZ 1001a1c0 f   HrcSettingsForm.cpp.obj
 0001:00019340       ?OnChangeHrc@HrcSettingsForm@@QAEXXZ 1001a340 f   HrcSettingsForm.cpp.obj
 0001:00019570       ?setYNListValueToCombobox@HrcSettingsForm@@QBEXABVCString@@@Z 1001a570 f   HrcSettingsForm.cpp.obj
 0001:00019780       ?setTFListValueToCombobox@HrcSettingsForm@@QBEXABVCString@@@Z 1001a780 f   HrcSettingsForm.cpp.obj
 0001:00019990       ?setCustomListValueToCombobox@HrcSettingsForm@@QBEXABVCString@@@Z 1001a990 f   HrcSettingsForm.cpp.obj
 0001:00019b40       ?setCrossValueListToCombobox@HrcSettingsForm@@QBEXXZ 1001ab40 f   HrcSettingsForm.cpp.obj
 0001:00019da0       ?setCrossPosValueListToCombobox@HrcSettingsForm@@QBEXXZ 1001ada0 f   HrcSettingsForm.cpp.obj
 0001:00019fa0       ?getParamDefValue@HrcSettingsForm@@QBEPBVString@@PAVFileTypeImpl@@ABVSString@@@Z 1001afa0 f   HrcSettingsForm.cpp.obj
 0001:0001a0b0       ?removeFarList@HrcSettingsForm@@SAXPAUFarList@@@Z 1001b0b0 f   HrcSettingsForm.cpp.obj
 0001:0001a0f0       ??0SettingsControlException@@QAE@ABVString@@@Z 1001b0f0 f i SettingsControl.cpp.obj
 0001:0001a140       ??0SettingsControl@@QAE@XZ 1001b140 f   SettingsControl.cpp.obj
 0001:0001a1f0       ??0SettingsControlException@@QAE@ABV0@@Z 1001b1f0 f i SettingsControl.cpp.obj
 0001:0001a210       ??1SettingsControl@@QAE@XZ 1001b210 f   SettingsControl.cpp.obj
 0001:0001a250       _GetGlobalInfoW@4          1001b250 f   pcolorer.cpp.obj
 0001:0001a2e0       _SetStartupInfoW@4         1001b2e0 f   pcolorer.cpp.obj
 0001:0001a320       _GetPluginInfoW@4          1001b320 f   pcolorer.cpp.obj
 0001:0001a3d0       _ExitFARW@4                1001b3d0 f   pcolorer.cpp.obj
 0001:0001a400       _OpenW@4                   1001b400 f   pcolorer.cpp.obj
 0001:0001a4f0       _ConfigureW@4              1001b4f0 f   pcolorer.cpp.obj
 0001:0001a530       _ProcessEditorEventW@4     1001b530 f   pcolorer.cpp.obj
 0001:0001a590       _ProcessEditorInputW@4     1001b590 f   pcolorer.cpp.obj
 0001:0001a5c0       _ProcessSynchroEventW@4    1001b5c0 f   pcolorer.cpp.obj
 0001:0001a650       ?trim@@YAPA_WPA_W@Z        1001b650 f   tools.cpp.obj
 0001:0001a6c0       ?PathToFull@@YAPA_WPB_W_N@Z 1001b6c0 f   tools.cpp.obj
 0001:0001a810       ?PathToFullS@@YAPAVSString@@PB_W_N@Z 1001b810 f   tools.cpp.obj
 0001:0001a870       ?macroGetValue@@YAHPAUFarMacroValue@@H@Z 1001b870 f   tools.cpp.obj
 0001:0001a890       ?MacroCallback@@YGXPAXPAUFarMacroValue@@I@Z 1001b890 f   tools.cpp.obj
 0001:0001a910       ?macroReturnInt@@YAPAUFarMacroCall@@_J@Z 1001b910 f   tools.cpp.obj
 0001:0001a970       ?macroReturnValues@@YAPAUFarMacroCall@@PAUFarMacroValue@@H@Z 1001b970 f   tools.cpp.obj
 0001:0001aa10       _EncodePointerWrapper@4    1001ba10 f   vc_crt_fix_impl.cpp.obj
 0001:0001aa70       _DecodePointerWrapper@4    1001ba70 f   vc_crt_fix_impl.cpp.obj
 0001:0001aac0       _GetModuleHandleExWWrapper@12 1001bac0 f   vc_crt_fix_impl.cpp.obj
 0001:0001ae20       _InitializeSListHeadWrapper@4 1001be20 f   vc_crt_fix_impl.cpp.obj
 0001:0001ae70       _InterlockedFlushSListWrapper@4 1001be70 f   vc_crt_fix_impl.cpp.obj
 0001:0001aec0       _InterlockedPopEntrySListWrapper@4 1001bec0 f   vc_crt_fix_impl.cpp.obj
 0001:0001af10       _InterlockedPushEntrySListWrapper@8 1001bf10 f   vc_crt_fix_impl.cpp.obj
 0001:0001af60       _InterlockedPushListSListExWrapper@16 1001bf60 f   vc_crt_fix_impl.cpp.obj
 0001:0001afb0       _RtlFirstEntrySListWrapper@4 1001bfb0 f   vc_crt_fix_impl.cpp.obj
 0001:0001b000       _QueryDepthSListWrapper@4  1001c000 f   vc_crt_fix_impl.cpp.obj
 0001:0001b050       _GetNumaHighestNodeNumberWrapper@4 1001c050 f   vc_crt_fix_impl.cpp.obj
 0001:0001b0c0       _GetLogicalProcessorInformationWrapper@8 1001c0c0 f   vc_crt_fix_impl.cpp.obj
 0001:0001b120       _SetThreadStackGuaranteeWrapper@4 1001c120 f   vc_crt_fix_impl.cpp.obj
 0001:0001b180       ??0CString@@QAE@PBVString@@II@Z 1001c180 f   colorer:CString.cpp.obj
 0001:0001b180       ??0CString@@QAE@ABVString@@II@Z 1001c180 f   colorer:CString.cpp.obj
 0001:0001b260       ??0CString@@QAE@PBDIIH@Z   1001c260 f   colorer:CString.cpp.obj
 0001:0001b310       ??0CString@@QAE@PBEIH@Z    1001c310 f   colorer:CString.cpp.obj
 0001:0001b750       ??0CString@@QAE@PB_WII@Z   1001c750 f   colorer:CString.cpp.obj
 0001:0001b7c0       ??0CString@@QAE@XZ         1001c7c0 f   colorer:CString.cpp.obj
 0001:0001b800       ??0StringIndexOutOfBoundsException@@QAE@ABV0@@Z 1001c800 f i colorer:CString.cpp.obj
 0001:0001b820       ??0StringIndexOutOfBoundsException@@QAE@ABVString@@@Z 1001c820 f   colorer:CString.cpp.obj
 0001:0001b880       ??0UnsupportedEncodingException@@QAE@ABV0@@Z 1001c880 f i colorer:CString.cpp.obj
 0001:0001b8a0       ??1CString@@UAE@XZ         1001c8a0 f   colorer:CString.cpp.obj
 0001:0001b8d0       ??4CString@@QAEAAV0@ABV0@@Z 1001c8d0 f   colorer:CString.cpp.obj
 0001:0001b950       ??ACString@@UBE_WI@Z       1001c950 f   colorer:CString.cpp.obj
 0001:0001baf0       ??_ECString@@UAEPAXI@Z     1001caf0 f i colorer:CString.cpp.obj
 0001:0001baf0       ??_GCString@@UAEPAXI@Z     1001caf0 f i colorer:CString.cpp.obj
 0001:0001bb30       ?getSystemId@XMLEntityDecl@xercesc_3_2@@QBEPB_WXZ 1001cb30 f   xerces-c_3:AbstractDOMParser.cpp.obj
 0001:0001bb30       ?Id@ScheduleGroupBase@details@Concurrency@@UBEIXZ 1001cb30 f   libconcrt:SchedulerBase.obj
 0001:0001bb30       ?getAttributes@XMLSchemaDescriptionImpl@xercesc_3_2@@UBEPBVXMLAttDef@2@XZ 1001cb30 f   xerces-c_3:XMLSchemaDescriptionImpl.cpp.obj
 0001:0001bb30       ?getSystemId@DOMNotationImpl@xercesc_3_2@@UBEPB_WXZ 1001cb30 f   xerces-c_3:DOMNotationImpl.cpp.obj
 0001:0001bb30       ?getRawData@XMLAbstractDoubleFloat@xercesc_3_2@@UBEPA_WXZ 1001cb30 f   xerces-c_3:XMLAbstractDoubleFloat.cpp.obj
 0001:0001bb30       ?GetScheduler@ContextBase@details@Concurrency@@QBEPAVSchedulerBase@23@XZ 1001cb30 f   libconcrt:ContextBase.obj
 0001:0001bb30       ?getNext@XSAnnotation@xercesc_3_2@@QAEPAV12@XZ 1001cb30 f   xerces-c_3:XSAnnotation.cpp.obj
 0001:0001bb30       ?length@CString@@UBEIXZ    1001cb30 f   colorer:CString.cpp.obj
 0001:0001bb30       ?getBaseType@XSComplexTypeDefinition@xercesc_3_2@@UAEPAVXSTypeDefinition@2@XZ 1001cb30 f   xerces-c_3:XSComplexTypeDefinition.cpp.obj
 0001:0001bb30       ?getPublicId@XSDLocator@xercesc_3_2@@UBEPB_WXZ 1001cb30 f   xerces-c_3:XSDLocator.cpp.obj
 0001:0001bb30       ?getBaseType@XSSimpleTypeDefinition@xercesc_3_2@@UAEPAVXSTypeDefinition@2@XZ 1001cb30 f   xerces-c_3:XSSimpleTypeDefinition.cpp.obj
 0001:0001bb40       ??0SString@@QAE@ABV0@@Z    1001cb40 f   colorer:SString.cpp.obj
 0001:0001bbb0       ??0SString@@QAE@ABVString@@II@Z 1001cbb0 f   colorer:SString.cpp.obj
 0001:0001bbb0       ??0SString@@QAE@PBVString@@II@Z 1001cbb0 f   colorer:SString.cpp.obj
 0001:0001bc20       ??0SString@@QAE@H@Z        1001cc20 f   colorer:SString.cpp.obj
 0001:0001bcd0       ??0SString@@QAE@I@Z        1001ccd0 f   colorer:SString.cpp.obj
 0001:0001bd80       ??0SString@@QAE@PADH@Z     1001cd80 f   colorer:SString.cpp.obj
 0001:0001be10       ??0SString@@QAE@PA_W@Z     1001ce10 f   colorer:SString.cpp.obj
 0001:0001bea0       ??0SString@@QAE@PBDII@Z    1001cea0 f   colorer:SString.cpp.obj
 0001:0001bf40       ??0SString@@QAE@PB_WII@Z   1001cf40 f   colorer:SString.cpp.obj
 0001:0001bfd0       ??0SString@@QAE@XZ         1001cfd0 f   colorer:SString.cpp.obj
 0001:0001c000       ??1?$unique_ptr@$$BY0A@_WU?$default_delete@$$BY0A@_W@std@@@std@@QAE@XZ 1001d000 f i colorer:SString.cpp.obj
 0001:0001c000       ??1?$unique_ptr@$$BY0A@EU?$default_delete@$$BY0A@E@std@@@std@@QAE@XZ 1001d000 f i colorer:ZipXmlInputSource.cpp.obj
 0001:0001c010       ??1SString@@UAE@XZ         1001d010 f   colorer:SString.cpp.obj
 0001:0001c040       ??ASString@@UBE_WI@Z       1001d040 f i colorer:SString.cpp.obj
 0001:0001c050       ??HSString@@QAEAAV0@ABVString@@@Z 1001d050 f   colorer:SString.cpp.obj
 0001:0001c060       ??HSString@@QAEAAV0@PBD@Z  1001d060 f   colorer:SString.cpp.obj
 0001:0001c0d0       ??HSString@@QAEAAV0@PBVString@@@Z 1001d0d0 f   colorer:SString.cpp.obj
 0001:0001c0d0       ?append@SString@@QAEAAV1@PBVString@@@Z 1001d0d0 f   colorer:SString.cpp.obj
 0001:0001c160       ??_GSString@@UAEPAXI@Z     1001d160 f i colorer:SString.cpp.obj
 0001:0001c160       ??_ESString@@UAEPAXI@Z     1001d160 f i colorer:SString.cpp.obj
 0001:0001c1a0       ?append@SString@@QAEAAV1@ABVString@@@Z 1001d1a0 f   colorer:SString.cpp.obj
 0001:0001c2b0       ?compareTo@SString@@QBEHABV1@@Z 1001d2b0 f   colorer:SString.cpp.obj
 0001:0001c330       ?compareTo@SString@@QBEHABVDString@@@Z 1001d330 f   colorer:SString.cpp.obj
 0001:0001c3a0       ?construct@SString@@IAEXPBVString@@II@Z 1001d3a0 f   colorer:SString.cpp.obj
 0001:0001c4a0       ?replace@SString@@QBEPAV1@ABVString@@0@Z 1001d4a0 f   colorer:SString.cpp.obj
 0001:0001c5e0       _sprintf                   1001d5e0 f i colorer:SString.cpp.obj
 0001:0001c610       ??0Exception@@QAE@ABV0@@Z  1001d610 f   colorer:Exception.cpp.obj
 0001:0001c670       ??0Exception@@QAE@ABVString@@@Z 1001d670 f   colorer:Exception.cpp.obj
 0001:0001c6d0       ??0Exception@@QAE@PBD@Z    1001d6d0 f   colorer:Exception.cpp.obj
 0001:0001c730       ??0InputSourceException@@QAE@ABVString@@@Z 1001d730 f   colorer:Exception.cpp.obj
 0001:0001c7b0       ??1Exception@@UAE@XZ       1001d7b0 f   colorer:Exception.cpp.obj
 0001:0001c7b0       ??1InputSourceException@@UAE@XZ 1001d7b0 f   colorer:Exception.cpp.obj
 0001:0001c7e0       ??_GInputSourceException@@UAEPAXI@Z 1001d7e0 f i colorer:Exception.cpp.obj
 0001:0001c7e0       ??_GException@@UAEPAXI@Z   1001d7e0 f i colorer:Exception.cpp.obj
 0001:0001c7e0       ??_EException@@UAEPAXI@Z   1001d7e0 f i colorer:Exception.cpp.obj
 0001:0001c7e0       ??_EInputSourceException@@UAEPAXI@Z 1001d7e0 f i colorer:Exception.cpp.obj
 0001:0001c820       ?what@Exception@@UBEPBDXZ  1001d820 f   colorer:Exception.cpp.obj
 0001:0001c860       ??$_Emplace_reallocate@AAVSString@@@?$vector@VSString@@V?$allocator@VSString@@@std@@@std@@QAEPAVSString@@QAV2@AAV2@@Z 1001d860 f i colorer:ParserFactory.cpp.obj
 0001:0001c860       ??$_Emplace_reallocate@ABVSString@@@?$vector@VSString@@V?$allocator@VSString@@@std@@@std@@QAEPAVSString@@QAV2@ABV2@@Z 1001d860 f i colorer:FileTypeImpl.cpp.obj
 0001:0001c9d0       ??$_Find_last@VSString@@@?$_Hash@V?$_Umap_traits@VSString@@PAVString@@V?$_Uhash_compare@VSString@@U?$hash@VSString@@@std@@U?$equal_to@VSString@@@3@@std@@V?$allocator@U?$pair@$$CBVSString@@PAVString@@@std@@@4@$0A@@std@@@std@@IBE?AU?$_Hash_find_last_result@PAU?$_List_node@U?$pair@$$CBVSString@@PAVString@@@std@@PAX@std@@@1@ABVSString@@I@Z 1001d9d0 f i colorer:HRCParserImpl.cpp.obj
 0001:0001c9d0       ??$_Find_last@VSString@@@?$_Hash@V?$_Umap_traits@VSString@@PBVRegion@@V?$_Uhash_compare@VSString@@U?$hash@VSString@@@std@@U?$equal_to@VSString@@@3@@std@@V?$allocator@U?$pair@$$CBVSString@@PBVRegion@@@std@@@4@$0A@@std@@@std@@IBE?AU?$_Hash_find_last_result@PAU?$_List_node@U?$pair@$$CBVSString@@PBVRegion@@@std@@PAX@std@@@1@ABVSString@@I@Z 1001d9d0 f i colorer:HRCParserImpl.cpp.obj
 0001:0001c9d0       ??$_Find_last@VSString@@@?$_Hash@V?$_Umap_traits@VSString@@PAVFileTypeImpl@@V?$_Uhash_compare@VSString@@U?$hash@VSString@@@std@@U?$equal_to@VSString@@@3@@std@@V?$allocator@U?$pair@$$CBVSString@@PAVFileTypeImpl@@@std@@@4@$0A@@std@@@std@@IBE?AU?$_Hash_find_last_result@PAU?$_List_node@U?$pair@$$CBVSString@@PAVFileTypeImpl@@@std@@PAX@std@@@1@ABVSString@@I@Z 1001d9d0 f i colorer:HRCParserImpl.cpp.obj
 0001:0001c9d0       ??$_Find_last@VSString@@@?$_Hash@V?$_Umap_traits@VSString@@PAVSharedInputSource@@V?$_Uhash_compare@VSString@@U?$hash@VSString@@@std@@U?$equal_to@VSString@@@3@@std@@V?$allocator@U?$pair@$$CBVSString@@PAVSharedInputSource@@@std@@@4@$0A@@std@@@std@@IBE?AU?$_Hash_find_last_result@PAU?$_List_node@U?$pair@$$CBVSString@@PAVSharedInputSource@@@std@@PAX@std@@@1@ABVSString@@I@Z 1001d9d0 f i colorer:SharedInputSource.cpp.obj
 0001:0001c9d0       ??$_Find_last@VSString@@@?$_Hash@V?$_Umap_traits@VSString@@PAVSchemeImpl@@V?$_Uhash_compare@VSString@@U?$hash@VSString@@@std@@U?$equal_to@VSString@@@3@@std@@V?$allocator@U?$pair@$$CBVSString@@PAVSchemeImpl@@@std@@@4@$0A@@std@@@std@@IBE?AU?$_Hash_find_last_result@PAU?$_List_node@U?$pair@$$CBVSString@@PAVSchemeImpl@@@std@@PAX@std@@@1@ABVSString@@I@Z 1001d9d0 f i colorer:HRCParserImpl.cpp.obj
 0001:0001c9d0       ??$_Find_last@VSString@@@?$_Hash@V?$_Umap_traits@VSString@@PAVSharedXmlInputSource@@V?$_Uhash_compare@VSString@@U?$hash@VSString@@@std@@U?$equal_to@VSString@@@3@@std@@V?$allocator@U?$pair@$$CBVSString@@PAVSharedXmlInputSource@@@std@@@4@$0A@@std@@@std@@IBE?AU?$_Hash_find_last_result@PAU?$_List_node@U?$pair@$$CBVSString@@PAVSharedXmlInputSource@@@std@@PAX@std@@@1@ABVSString@@I@Z 1001d9d0 f i colorer:SharedXmlInputSource.cpp.obj
 0001:0001c9d0       ??$_Find_last@VSString@@@?$_Hash@V?$_Umap_traits@VSString@@PAVRegionDefine@@V?$_Uhash_compare@VSString@@U?$hash@VSString@@@std@@U?$equal_to@VSString@@@3@@std@@V?$allocator@U?$pair@$$CBVSString@@PAVRegionDefine@@@std@@@4@$0A@@std@@@std@@IBE?AU?$_Hash_find_last_result@PAU?$_List_node@U?$pair@$$CBVSString@@PAVRegionDefine@@@std@@PAX@std@@@1@ABVSString@@I@Z 1001d9d0 f i colorer:StyledHRDMapper.cpp.obj
 0001:0001c9d0       ??$_Find_last@VSString@@@?$_Hash@V?$_Umap_traits@VSString@@V?$unique_ptr@V?$vector@V?$unique_ptr@VHRDNode@@U?$default_delete@VHRDNode@@@std@@@std@@V?$allocator@V?$unique_ptr@VHRDNode@@U?$default_delete@VHRDNode@@@std@@@std@@@2@@std@@U?$default_delete@V?$vector@V?$unique_ptr@VHRDNode@@U?$default_delete@VHRDNode@@@std@@@std@@V?$allocator@V?$unique_ptr@VHRDNode@@U?$default_delete@VHRDNode@@@std@@@std@@@2@@std@@@2@@std@@V?$_Uhash_compare@VSString@@U?$hash@VSString@@@std@@U?$equal_to@VSString@@@3@@3@V?$allocator@U?$pair@$$CBVSString@@V?$unique_ptr@V?$vector@V?$unique_ptr@VHRDNode@@U?$default_delete@VHRDNode@@@std@@@std@@V?$allocator@V?$unique_ptr@VHRDNode@@U?$default_delete@VHRDNode@@@std@@@std@@@2@@std@@U?$default_delete@V?$vector@V?$unique_ptr@VHRDNode@@U?$default_delete@VHRDNode@@@std@@@std@@V?$allocator@V?$unique_ptr@VHRDNode@@U?$default_delete@VHRDNode@@@std@@@std@@@2@@std@@@2@@std@@@std@@@3@$0A@@std@@@std@@IBE?AU?$_Hash_find_last_result@PAU?$_List_node@U?$pair@$$CBVSString@@V?$unique_ptr@V?$vector@V?$unique_ptr@VHRDNode@@U?$default_delete@VHRDNode@@@std@@@std@@V?$allocator@V?$unique_ptr@VHRDNode@@U?$default_delete@VHRDNode@@@std@@@std@@@2@@std@@U?$default_delete@V?$vector@V?$unique_ptr@VHRDNode@@U?$default_delete@VHRDNode@@@std@@@std@@V?$allocator@V?$unique_ptr@VHRDNode@@U?$default_delete@VHRDNode@@@std@@@std@@@2@@std@@@2@@std@@@std@@PAX@std@@@1@ABVSString@@I@Z 1001d9d0 f i colorer:ParserFactory.cpp.obj
 0001:0001c9d0       ??$_Find_last@VSString@@@?$_Hash@V?$_Umap_traits@VSString@@PAVTypeParameter@@V?$_Uhash_compare@VSString@@U?$hash@VSString@@@std@@U?$equal_to@VSString@@@3@@std@@V?$allocator@U?$pair@$$CBVSString@@PAVTypeParameter@@@std@@@4@$0A@@std@@@std@@IBE?AU?$_Hash_find_last_result@PAU?$_List_node@U?$pair@$$CBVSString@@PAVTypeParameter@@@std@@PAX@std@@@1@ABVSString@@I@Z 1001d9d0 f i colorer:FileTypeImpl.cpp.obj
 0001:0001ca50       ??$construct@VSString@@V1@@?$_Default_allocator_traits@V?$allocator@VSString@@@std@@@std@@SAXAAV?$allocator@VSString@@@1@QAVSString@@$$QAV3@@Z 1001da50 f i colorer:FileTypeImpl.cpp.obj
 0001:0001cab0       ??$emplace@AAU?$pair@VSString@@PAVRegionDefine@@@std@@@?$_Hash@V?$_Umap_traits@VSString@@PAVRegionDefine@@V?$_Uhash_compare@VSString@@U?$hash@VSString@@@std@@U?$equal_to@VSString@@@3@@std@@V?$allocator@U?$pair@$$CBVSString@@PAVRegionDefine@@@std@@@4@$0A@@std@@@std@@QAE?AU?$pair@V?$_List_iterator@V?$_List_val@U?$_List_simple_types@U?$pair@$$CBVSString@@PAVRegionDefine@@@std@@@std@@@std@@@std@@_N@1@AAU?$pair@VSString@@PAVRegionDefine@@@1@@Z 1001dab0 f i colorer:StyledHRDMapper.cpp.obj
 0001:0001cab0       ??$emplace@AAU?$pair@VSString@@PAVTypeParameter@@@std@@@?$_Hash@V?$_Umap_traits@VSString@@PAVTypeParameter@@V?$_Uhash_compare@VSString@@U?$hash@VSString@@@std@@U?$equal_to@VSString@@@3@@std@@V?$allocator@U?$pair@$$CBVSString@@PAVTypeParameter@@@std@@@4@$0A@@std@@@std@@QAE?AU?$pair@V?$_List_iterator@V?$_List_val@U?$_List_simple_types@U?$pair@$$CBVSString@@PAVTypeParameter@@@std@@@std@@@std@@@std@@_N@1@AAU?$pair@VSString@@PAVTypeParameter@@@1@@Z 1001dab0 f i colorer:FileTypeImpl.cpp.obj
 0001:0001cc90       ??$make_unique@VSString@@AAPBVString@@$0A@@std@@YA?AV?$unique_ptr@VSString@@U?$default_delete@VSString@@@std@@@0@AAPBVString@@@Z 1001dc90 f i colorer:FileTypeImpl.cpp.obj
 0001:0001cd10       ??0FileTypeImpl@@IAE@PAVHRCParserImpl@@@Z 1001dd10 f   colorer:FileTypeImpl.cpp.obj
 0001:0001ce30       ??1?$_Alloc_construct_ptr@V?$allocator@U?$_List_node@U?$pair@$$CBVSString@@PAVSharedInputSource@@@std@@PAX@std@@@std@@@std@@QAE@XZ 1001de30 f i colorer:SharedInputSource.cpp.obj
 0001:0001ce30       ??1?$_Alloc_construct_ptr@V?$allocator@U?$_List_node@U?$pair@$$CBVSString@@PAVString@@@std@@PAX@std@@@std@@@std@@QAE@XZ 1001de30 f i colorer:HRCParserImpl.cpp.obj
 0001:0001ce30       ??1?$_Alloc_construct_ptr@V?$allocator@U?$_List_node@U?$pair@$$CBVSString@@PBVRegion@@@std@@PAX@std@@@std@@@std@@QAE@XZ 1001de30 f i colorer:HRCParserImpl.cpp.obj
 0001:0001ce30       ??1?$_Alloc_construct_ptr@V?$allocator@U?$_List_node@U?$pair@$$CBVSString@@PAVSharedXmlInputSource@@@std@@PAX@std@@@std@@@std@@QAE@XZ 1001de30 f i colorer:SharedXmlInputSource.cpp.obj
 0001:0001ce30       ??1?$_Alloc_construct_ptr@V?$allocator@U?$_List_node@U?$pair@$$CBVSString@@PAVSchemeImpl@@@std@@PAX@std@@@std@@@std@@QAE@XZ 1001de30 f i colorer:HRCParserImpl.cpp.obj
 0001:0001ce30       ??1?$_Alloc_construct_ptr@V?$allocator@U?$_List_node@U?$pair@$$CBVSString@@PAVFileTypeImpl@@@std@@PAX@std@@@std@@@std@@QAE@XZ 1001de30 f i colorer:HRCParserImpl.cpp.obj
 0001:0001ce30       ??1?$_Alloc_construct_ptr@V?$allocator@U?$_List_node@U?$pair@$$CBVSString@@PAVTypeParameter@@@std@@PAX@std@@@std@@@std@@QAE@XZ 1001de30 f i colorer:FileTypeImpl.cpp.obj
 0001:0001ce30       ??1?$_Alloc_construct_ptr@V?$allocator@U?$_List_node@U?$pair@$$CBVSString@@V?$unique_ptr@V?$vector@V?$unique_ptr@VHRDNode@@U?$default_delete@VHRDNode@@@std@@@std@@V?$allocator@V?$unique_ptr@VHRDNode@@U?$default_delete@VHRDNode@@@std@@@std@@@2@@std@@U?$default_delete@V?$vector@V?$unique_ptr@VHRDNode@@U?$default_delete@VHRDNode@@@std@@@std@@V?$allocator@V?$unique_ptr@VHRDNode@@U?$default_delete@VHRDNode@@@std@@@std@@@2@@std@@@2@@std@@@std@@PAX@std@@@std@@@std@@QAE@XZ 1001de30 f i colorer:ParserFactory.cpp.obj
 0001:0001ce30       ??1?$_Alloc_construct_ptr@V?$allocator@U?$_List_node@U?$pair@$$CBVSString@@PAVRegionDefine@@@std@@PAX@std@@@std@@@std@@QAE@XZ 1001de30 f i colorer:StyledHRDMapper.cpp.obj
 0001:0001ce50       ??1?$_Hash@V?$_Umap_traits@VSString@@PBVRegion@@V?$_Uhash_compare@VSString@@U?$hash@VSString@@@std@@U?$equal_to@VSString@@@3@@std@@V?$allocator@U?$pair@$$CBVSString@@PBVRegion@@@std@@@4@$0A@@std@@@std@@QAE@XZ 1001de50 f i colorer:HRCParserImpl.cpp.obj
 0001:0001ce50       ??1?$_Hash@V?$_Umap_traits@VSString@@PAVFileTypeImpl@@V?$_Uhash_compare@VSString@@U?$hash@VSString@@@std@@U?$equal_to@VSString@@@3@@std@@V?$allocator@U?$pair@$$CBVSString@@PAVFileTypeImpl@@@std@@@4@$0A@@std@@@std@@QAE@XZ 1001de50 f i colorer:HRCParserImpl.cpp.obj
 0001:0001ce50       ??1?$_Hash@V?$_Umap_traits@VSString@@PAVTypeParameter@@V?$_Uhash_compare@VSString@@U?$hash@VSString@@@std@@U?$equal_to@VSString@@@3@@std@@V?$allocator@U?$pair@$$CBVSString@@PAVTypeParameter@@@std@@@4@$0A@@std@@@std@@QAE@XZ 1001de50 f i colorer:FileTypeImpl.cpp.obj
 0001:0001ce50       ??1?$_Hash@V?$_Umap_traits@VSString@@PAVSharedXmlInputSource@@V?$_Uhash_compare@VSString@@U?$hash@VSString@@@std@@U?$equal_to@VSString@@@3@@std@@V?$allocator@U?$pair@$$CBVSString@@PAVSharedXmlInputSource@@@std@@@4@$0A@@std@@@std@@QAE@XZ 1001de50 f i colorer:SharedXmlInputSource.cpp.obj
 0001:0001ce50       ??1?$_Hash@V?$_Umap_traits@VSString@@PAVSharedInputSource@@V?$_Uhash_compare@VSString@@U?$hash@VSString@@@std@@U?$equal_to@VSString@@@3@@std@@V?$allocator@U?$pair@$$CBVSString@@PAVSharedInputSource@@@std@@@4@$0A@@std@@@std@@QAE@XZ 1001de50 f i colorer:SharedInputSource.cpp.obj
 0001:0001ce50       ??1?$_Hash@V?$_Umap_traits@VSString@@HV?$_Uhash_compare@VSString@@U?$hash@VSString@@@std@@U?$equal_to@VSString@@@3@@std@@V?$allocator@U?$pair@$$CBVSString@@H@std@@@3@$0A@@std@@@std@@QAE@XZ 1001de50 f i colorer:HRCParserImpl.cpp.obj
 0001:0001ce50       ??1?$_Hash@V?$_Umap_traits@VSString@@PAVRegionDefine@@V?$_Uhash_compare@VSString@@U?$hash@VSString@@@std@@U?$equal_to@VSString@@@3@@std@@V?$allocator@U?$pair@$$CBVSString@@PAVRegionDefine@@@std@@@4@$0A@@std@@@std@@QAE@XZ 1001de50 f i colorer:StyledHRDMapper.cpp.obj
 0001:0001ce50       ??1?$_Hash@V?$_Umap_traits@VSString@@PAVString@@V?$_Uhash_compare@VSString@@U?$hash@VSString@@@std@@U?$equal_to@VSString@@@3@@std@@V?$allocator@U?$pair@$$CBVSString@@PAVString@@@std@@@4@$0A@@std@@@std@@QAE@XZ 1001de50 f i colorer:HRCParserImpl.cpp.obj
 0001:0001ce50       ??1?$_Hash@V?$_Umap_traits@VSString@@PAVSchemeImpl@@V?$_Uhash_compare@VSString@@U?$hash@VSString@@@std@@U?$equal_to@VSString@@@3@@std@@V?$allocator@U?$pair@$$CBVSString@@PAVSchemeImpl@@@std@@@4@$0A@@std@@@std@@QAE@XZ 1001de50 f i colorer:HRCParserImpl.cpp.obj
 0001:0001ceb0       ??1?$_List_node_emplace_op2@V?$allocator@U?$_List_node@U?$pair@$$CBVSString@@PAVFileTypeImpl@@@std@@PAX@std@@@std@@@std@@QAE@XZ 1001deb0 f i colorer:HRCParserImpl.cpp.obj
 0001:0001ceb0       ??1?$_List_node_emplace_op2@V?$allocator@U?$_List_node@U?$pair@$$CBVSString@@PAVSharedInputSource@@@std@@PAX@std@@@std@@@std@@QAE@XZ 1001deb0 f i colorer:SharedInputSource.cpp.obj
 0001:0001ceb0       ??1?$_List_node_emplace_op2@V?$allocator@U?$_List_node@U?$pair@$$CBVSString@@PAVString@@@std@@PAX@std@@@std@@@std@@QAE@XZ 1001deb0 f i colorer:HRCParserImpl.cpp.obj
 0001:0001ceb0       ??1?$_List_node_emplace_op2@V?$allocator@U?$_List_node@U?$pair@$$CBVSString@@PAVSchemeImpl@@@std@@PAX@std@@@std@@@std@@QAE@XZ 1001deb0 f i colorer:HRCParserImpl.cpp.obj
 0001:0001ceb0       ??1?$_List_node_emplace_op2@V?$allocator@U?$_List_node@U?$pair@$$CBVSString@@PAVRegionDefine@@@std@@PAX@std@@@std@@@std@@QAE@XZ 1001deb0 f i colorer:StyledHRDMapper.cpp.obj
 0001:0001ceb0       ??1?$_List_node_emplace_op2@V?$allocator@U?$_List_node@U?$pair@$$CBVSString@@PBVRegion@@@std@@PAX@std@@@std@@@std@@QAE@XZ 1001deb0 f i colorer:HRCParserImpl.cpp.obj
 0001:0001ceb0       ??1?$_List_node_emplace_op2@V?$allocator@U?$_List_node@U?$pair@$$CBVSString@@PAVSharedXmlInputSource@@@std@@PAX@std@@@std@@@std@@QAE@XZ 1001deb0 f i colorer:SharedXmlInputSource.cpp.obj
 0001:0001ceb0       ??1?$_List_node_emplace_op2@V?$allocator@U?$_List_node@U?$pair@$$CBVSString@@PAVTypeParameter@@@std@@PAX@std@@@std@@@std@@QAE@XZ 1001deb0 f i colorer:FileTypeImpl.cpp.obj
 0001:0001cee0       ??1?$_Uninitialized_backout_al@V?$allocator@VSString@@@std@@@std@@QAE@XZ 1001dee0 f i colorer:FileTypeImpl.cpp.obj
 0001:0001cf10       ??1?$list@U?$pair@$$CBVSString@@H@std@@V?$allocator@U?$pair@$$CBVSString@@H@std@@@2@@std@@QAE@XZ 1001df10 f i colorer:HRCParserImpl.cpp.obj
 0001:0001cf10       ??1?$list@U?$pair@$$CBVSString@@PAVSharedXmlInputSource@@@std@@V?$allocator@U?$pair@$$CBVSString@@PAVSharedXmlInputSource@@@std@@@2@@std@@QAE@XZ 1001df10 f i colorer:SharedXmlInputSource.cpp.obj
 0001:0001cf10       ??1?$list@U?$pair@$$CBVSString@@PAVSharedInputSource@@@std@@V?$allocator@U?$pair@$$CBVSString@@PAVSharedInputSource@@@std@@@2@@std@@QAE@XZ 1001df10 f i colorer:SharedInputSource.cpp.obj
 0001:0001cf10       ??1?$list@U?$pair@$$CBVSString@@PAVFileTypeImpl@@@std@@V?$allocator@U?$pair@$$CBVSString@@PAVFileTypeImpl@@@std@@@2@@std@@QAE@XZ 1001df10 f i colorer:HRCParserImpl.cpp.obj
 0001:0001cf10       ??1?$list@U?$pair@$$CBVSString@@PBVRegion@@@std@@V?$allocator@U?$pair@$$CBVSString@@PBVRegion@@@std@@@2@@std@@QAE@XZ 1001df10 f i colorer:HRCParserImpl.cpp.obj
 0001:0001cf10       ??1?$list@U?$pair@$$CBVSString@@PAVSchemeImpl@@@std@@V?$allocator@U?$pair@$$CBVSString@@PAVSchemeImpl@@@std@@@2@@std@@QAE@XZ 1001df10 f i colorer:HRCParserImpl.cpp.obj
 0001:0001cf10       ??1?$list@U?$pair@$$CBVSString@@PAVString@@@std@@V?$allocator@U?$pair@$$CBVSString@@PAVString@@@std@@@2@@std@@QAE@XZ 1001df10 f i colorer:HRCParserImpl.cpp.obj
 0001:0001cf10       ??1?$list@U?$pair@$$CBVSString@@PAVTypeParameter@@@std@@V?$allocator@U?$pair@$$CBVSString@@PAVTypeParameter@@@std@@@2@@std@@QAE@XZ 1001df10 f i colorer:FileTypeImpl.cpp.obj
 0001:0001cf10       ??1?$list@U?$pair@$$CBVSString@@PAVRegionDefine@@@std@@V?$allocator@U?$pair@$$CBVSString@@PAVRegionDefine@@@std@@@2@@std@@QAE@XZ 1001df10 f i colorer:StyledHRDMapper.cpp.obj
 0001:0001cf60       ??1?$pair@VSString@@PAVSchemeImpl@@@std@@QAE@XZ 1001df60 f i colorer:HRCParserImpl.cpp.obj
 0001:0001cf60       ??1?$pair@VSString@@PAVTypeParameter@@@std@@QAE@XZ 1001df60 f i colorer:FileTypeImpl.cpp.obj
 0001:0001cf60       ??1?$pair@VSString@@PAVFileTypeImpl@@@std@@QAE@XZ 1001df60 f i colorer:HRCParserImpl.cpp.obj
 0001:0001cf60       ??1?$pair@VSString@@PAVSharedInputSource@@@std@@QAE@XZ 1001df60 f i colorer:SharedInputSource.cpp.obj
 0001:0001cf60       ??1?$pair@VSString@@PAVRegionDefine@@@std@@QAE@XZ 1001df60 f i colorer:StyledHRDMapper.cpp.obj
 0001:0001cf60       ??1?$pair@VSString@@PBVRegion@@@std@@QAE@XZ 1001df60 f i colorer:HRCParserImpl.cpp.obj
 0001:0001cf60       ??1?$pair@VSString@@PAVString@@@std@@QAE@XZ 1001df60 f i colorer:HRCParserImpl.cpp.obj
 0001:0001cf70       ??1?$unique_ptr@VCRegExp@@U?$default_delete@VCRegExp@@@std@@@std@@QAE@XZ 1001df70 f i colorer:FileTypeImpl.cpp.obj
 0001:0001cf90       ??1?$vector@V?$unique_ptr@Vflag_formatter@details@spdlog@@U?$default_delete@Vflag_formatter@details@spdlog@@@std@@@std@@V?$allocator@V?$unique_ptr@Vflag_formatter@details@spdlog@@U?$default_delete@Vflag_formatter@details@spdlog@@@std@@@std@@@2@@std@@QAE@XZ 1001df90 f i spdlog:spdlog.cpp.obj
 0001:0001cf90       ??1?$vector@V?$unique_ptr@VString@@U?$default_delete@VString@@@std@@@std@@V?$allocator@V?$unique_ptr@VString@@U?$default_delete@VString@@@std@@@std@@@2@@std@@QAE@XZ 1001df90 f i colorer:FileTypeImpl.cpp.obj
 0001:0001d000       ??1FileType@@MAE@XZ        1001e000 f i colorer:FileTypeImpl.cpp.obj
 0001:0001d010       ??1FileTypeImpl@@MAE@XZ    1001e010 f   colorer:FileTypeImpl.cpp.obj
 0001:0001d1a0       ??1_Clear_guard@?$_Hash@V?$_Umap_traits@VSString@@PAVTypeParameter@@V?$_Uhash_compare@VSString@@U?$hash@VSString@@@std@@U?$equal_to@VSString@@@3@@std@@V?$allocator@U?$pair@$$CBVSString@@PAVTypeParameter@@@std@@@4@$0A@@std@@@std@@QAE@XZ 1001e1a0 f i colorer:FileTypeImpl.cpp.obj
 0001:0001d1a0       ??1_Clear_guard@?$_Hash@V?$_Umap_traits@VSString@@PAVRegionDefine@@V?$_Uhash_compare@VSString@@U?$hash@VSString@@@std@@U?$equal_to@VSString@@@3@@std@@V?$allocator@U?$pair@$$CBVSString@@PAVRegionDefine@@@std@@@4@$0A@@std@@@std@@QAE@XZ 1001e1a0 f i colorer:StyledHRDMapper.cpp.obj
 0001:0001d1b0       ??_EFileType@@MAEPAXI@Z    1001e1b0 f i colorer:FileTypeImpl.cpp.obj
 0001:0001d1b0       ??_GFileType@@MAEPAXI@Z    1001e1b0 f i colorer:FileTypeImpl.cpp.obj
 0001:0001d1e0       ??_GFileTypeImpl@@MAEPAXI@Z 1001e1e0 f i colorer:FileTypeImpl.cpp.obj
 0001:0001d1e0       ??_EFileTypeImpl@@MAEPAXI@Z 1001e1e0 f i colorer:FileTypeImpl.cpp.obj
 0001:0001d200       ?_Assign_grow@?$_Hash_vec@V?$allocator@V?$_List_unchecked_iterator@V?$_List_val@U?$_List_simple_types@U?$pair@$$CBVSString@@PAVRegionDefine@@@std@@@std@@@std@@@std@@@std@@@std@@QAEXIV?$_List_unchecked_iterator@V?$_List_val@U?$_List_simple_types@U?$pair@$$CBVSString@@PAVRegionDefine@@@std@@@std@@@std@@@2@@Z 1001e200 f i colorer:StyledHRDMapper.cpp.obj
 0001:0001d200       ?_Assign_grow@?$_Hash_vec@V?$allocator@V?$_List_unchecked_iterator@V?$_List_val@U?$_List_simple_types@U?$pair@$$CBVSString@@PAVString@@@std@@@std@@@std@@@std@@@std@@@std@@QAEXIV?$_List_unchecked_iterator@V?$_List_val@U?$_List_simple_types@U?$pair@$$CBVSString@@PAVString@@@std@@@std@@@std@@@2@@Z 1001e200 f i colorer:HRCParserImpl.cpp.obj
 0001:0001d200       ?_Assign_grow@?$_Hash_vec@V?$allocator@V?$_List_unchecked_iterator@V?$_List_val@U?$_List_simple_types@U?$pair@$$CBVSString@@PAVTypeParameter@@@std@@@std@@@std@@@std@@@std@@@std@@QAEXIV?$_List_unchecked_iterator@V?$_List_val@U?$_List_simple_types@U?$pair@$$CBVSString@@PAVTypeParameter@@@std@@@std@@@std@@@2@@Z 1001e200 f i colorer:FileTypeImpl.cpp.obj
 0001:0001d200       ?_Assign_grow@?$_Hash_vec@V?$allocator@V?$_List_unchecked_iterator@V?$_List_val@U?$_List_simple_types@U?$pair@$$CBVSString@@PAVSharedXmlInputSource@@@std@@@std@@@std@@@std@@@std@@@std@@QAEXIV?$_List_unchecked_iterator@V?$_List_val@U?$_List_simple_types@U?$pair@$$CBVSString@@PAVSharedXmlInputSource@@@std@@@std@@@std@@@2@@Z 1001e200 f i colorer:SharedXmlInputSource.cpp.obj
 0001:0001d200       ?_Assign_grow@?$_Hash_vec@V?$allocator@V?$_List_unchecked_iterator@V?$_List_val@U?$_List_simple_types@U?$pair@$$CBV?$basic_string@DU?$char_traits@D@std@@V?$allocator@D@2@@std@@V?$shared_ptr@Vlogger@spdlog@@@2@@std@@@std@@@std@@@std@@@std@@@std@@QAEXIV?$_List_unchecked_iterator@V?$_List_val@U?$_List_simple_types@U?$pair@$$CBV?$basic_string@DU?$char_traits@D@std@@V?$allocator@D@2@@std@@V?$shared_ptr@Vlogger@spdlog@@@2@@std@@@std@@@std@@@2@@Z 1001e200 f i spdlog:spdlog.cpp.obj
 0001:0001d200       ?_Assign_grow@?$_Hash_vec@V?$allocator@V?$_List_unchecked_iterator@V?$_List_val@U?$_List_simple_types@U?$pair@$$CBW4level_enum@level@spdlog@@G@std@@@std@@@std@@@std@@@std@@@std@@QAEXIV?$_List_unchecked_iterator@V?$_List_val@U?$_List_simple_types@U?$pair@$$CBW4level_enum@level@spdlog@@G@std@@@std@@@std@@@2@@Z 1001e200 f i spdlog:color_sinks.cpp.obj
 0001:0001d200       ?_Assign_grow@?$_Hash_vec@V?$allocator@V?$_List_unchecked_iterator@V?$_List_val@U?$_List_simple_types@U?$pair@$$CBVSString@@PAVFileTypeImpl@@@std@@@std@@@std@@@std@@@std@@@std@@QAEXIV?$_List_unchecked_iterator@V?$_List_val@U?$_List_simple_types@U?$pair@$$CBVSString@@PAVFileTypeImpl@@@std@@@std@@@std@@@2@@Z 1001e200 f i colorer:HRCParserImpl.cpp.obj
 0001:0001d200       ?_Assign_grow@?$_Hash_vec@V?$allocator@V?$_List_unchecked_iterator@V?$_List_val@U?$_List_simple_types@U?$pair@$$CBVSString@@PBVRegion@@@std@@@std@@@std@@@std@@@std@@@std@@QAEXIV?$_List_unchecked_iterator@V?$_List_val@U?$_List_simple_types@U?$pair@$$CBVSString@@PBVRegion@@@std@@@std@@@std@@@2@@Z 1001e200 f i colorer:HRCParserImpl.cpp.obj
 0001:0001d200       ?_Assign_grow@?$_Hash_vec@V?$allocator@V?$_List_unchecked_iterator@V?$_List_val@U?$_List_simple_types@U?$pair@$$CBVSString@@V?$unique_ptr@V?$vector@V?$unique_ptr@VHRDNode@@U?$default_delete@VHRDNode@@@std@@@std@@V?$allocator@V?$unique_ptr@VHRDNode@@U?$default_delete@VHRDNode@@@std@@@std@@@2@@std@@U?$default_delete@V?$vector@V?$unique_ptr@VHRDNode@@U?$default_delete@VHRDNode@@@std@@@std@@V?$allocator@V?$unique_ptr@VHRDNode@@U?$default_delete@VHRDNode@@@std@@@std@@@2@@std@@@2@@std@@@std@@@std@@@std@@@std@@@std@@@std@@QAEXIV?$_List_unchecked_iterator@V?$_List_val@U?$_List_simple_types@U?$pair@$$CBVSString@@V?$unique_ptr@V?$vector@V?$unique_ptr@VHRDNode@@U?$default_delete@VHRDNode@@@std@@@std@@V?$allocator@V?$unique_ptr@VHRDNode@@U?$default_delete@VHRDNode@@@std@@@std@@@2@@std@@U?$default_delete@V?$vector@V?$unique_ptr@VHRDNode@@U?$default_delete@VHRDNode@@@std@@@std@@V?$allocator@V?$unique_ptr@VHRDNode@@U?$default_delete@VHRDNode@@@std@@@std@@@2@@std@@@2@@std@@@std@@@std@@@std@@@2@@Z 1001e200 f i colorer:ParserFactory.cpp.obj
 0001:0001d200       ?_Assign_grow@?$_Hash_vec@V?$allocator@V?$_List_unchecked_iterator@V?$_List_val@U?$_List_simple_types@U?$pair@$$CBVSString@@PAVSchemeImpl@@@std@@@std@@@std@@@std@@@std@@@std@@QAEXIV?$_List_unchecked_iterator@V?$_List_val@U?$_List_simple_types@U?$pair@$$CBVSString@@PAVSchemeImpl@@@std@@@std@@@std@@@2@@Z 1001e200 f i colorer:HRCParserImpl.cpp.obj
 0001:0001d200       ?_Assign_grow@?$_Hash_vec@V?$allocator@V?$_List_unchecked_iterator@V?$_List_val@U?$_List_simple_types@U?$pair@$$CBVSString@@PAVSharedInputSource@@@std@@@std@@@std@@@std@@@std@@@std@@QAEXIV?$_List_unchecked_iterator@V?$_List_val@U?$_List_simple_types@U?$pair@$$CBVSString@@PAVSharedInputSource@@@std@@@std@@@std@@@2@@Z 1001e200 f i colorer:SharedInputSource.cpp.obj
 0001:0001d2f0       ?_Change_array@?$vector@VSString@@V?$allocator@VSString@@@std@@@std@@AAEXQAVSString@@II@Z 1001e2f0 f i colorer:FileTypeImpl.cpp.obj
 0001:0001d380       ?_Forced_rehash@?$_Hash@V?$_Umap_traits@VSString@@PAVTypeParameter@@V?$_Uhash_compare@VSString@@U?$hash@VSString@@@std@@U?$equal_to@VSString@@@3@@std@@V?$allocator@U?$pair@$$CBVSString@@PAVTypeParameter@@@std@@@4@$0A@@std@@@std@@IAEXI@Z 1001e380 f i colorer:FileTypeImpl.cpp.obj
 0001:0001d380       ?_Forced_rehash@?$_Hash@V?$_Umap_traits@VSString@@PAVRegionDefine@@V?$_Uhash_compare@VSString@@U?$hash@VSString@@@std@@U?$equal_to@VSString@@@3@@std@@V?$allocator@U?$pair@$$CBVSString@@PAVRegionDefine@@@std@@@4@$0A@@std@@@std@@IAEXI@Z 1001e380 f i colorer:StyledHRDMapper.cpp.obj
 0001:0001d530       ?_Reallocate_exactly@?$vector@VSString@@V?$allocator@VSString@@@std@@@std@@AAEXI@Z 1001e530 f i colorer:FileTypeImpl.cpp.obj
 0001:0001d610       ?_Umove@?$vector@VSString@@V?$allocator@VSString@@@std@@@std@@AAEPAVSString@@PAV3@00@Z 1001e610 f i colorer:FileTypeImpl.cpp.obj
 0001:0001d6d0       ?_Umove_if_noexcept@?$vector@VSString@@V?$allocator@VSString@@@std@@@std@@AAEXPAVSString@@00@Z 1001e6d0 f i colorer:FileTypeImpl.cpp.obj
 0001:0001d740       ?addParam@FileTypeImpl@@QAEPAVTypeParameter@@PBVString@@@Z 1001e740 f   colorer:FileTypeImpl.cpp.obj
 0001:0001d820       ?allocate@?$allocator@VSString@@@std@@QAEPAVSString@@I@Z 1001e820 f i colorer:FileTypeImpl.cpp.obj
 0001:0001d880       ?clear@?$_Hash@V?$_Umap_traits@VSString@@PAVTypeParameter@@V?$_Uhash_compare@VSString@@U?$hash@VSString@@@std@@U?$equal_to@VSString@@@3@@std@@V?$allocator@U?$pair@$$CBVSString@@PAVTypeParameter@@@std@@@4@$0A@@std@@@std@@QAEXXZ 1001e880 f i colorer:FileTypeImpl.cpp.obj
 0001:0001d880       ?clear@?$_Hash@V?$_Umap_traits@VSString@@PAVRegionDefine@@V?$_Uhash_compare@VSString@@U?$hash@VSString@@@std@@U?$equal_to@VSString@@@3@@std@@V?$allocator@U?$pair@$$CBVSString@@PAVRegionDefine@@@std@@@4@$0A@@std@@@std@@QAEXXZ 1001e880 f i colorer:StyledHRDMapper.cpp.obj
 0001:0001d8f0       ?enumParams@FileTypeImpl@@UBE?AV?$vector@VSString@@V?$allocator@VSString@@@std@@@std@@XZ 1001e8f0 f   colorer:FileTypeImpl.cpp.obj
 0001:0001d9b0       ?getBaseScheme@FileTypeImpl@@UAEPAVScheme@@XZ 1001e9b0 f   colorer:FileTypeImpl.cpp.obj
 0001:0001d9d0       ?getMemoryManager@?$BaseRefVectorOf@VXMLReader@xercesc_3_2@@@xercesc_3_2@@QBEPAVMemoryManager@2@XZ 1001e9d0 f i xerces-c_3:ReaderMgr.cpp.obj
 0001:0001d9d0       ?getType@DOMErrorImpl@xercesc_3_2@@UBEPB_WXZ 1001e9d0 f i xerces-c_3:DOMErrorImpl.cpp.obj
 0001:0001d9d0       ?getFormattedString@XMLBigDecimal@xercesc_3_2@@UBEPB_WXZ 1001e9d0 f i xerces-c_3:XMLBigDecimal.cpp.obj
 0001:0001d9d0       ?getValidatingMemberType@ValidationContextImpl@xercesc_3_2@@UBEPAVDatatypeValidator@2@XZ 1001e9d0 f i xerces-c_3:ValidationContextImpl.cpp.obj
 0001:0001d9d0       ?getRawData@XMLBigDecimal@xercesc_3_2@@UBEPA_WXZ 1001e9d0 f i xerces-c_3:XMLBigDecimal.cpp.obj
 0001:0001d9d0       ?GetNumberOfVirtualProcessors@SchedulerBase@details@Concurrency@@UBEIXZ 1001e9d0 f i libconcrt:SchedulerBase.obj
 0001:0001d9d0       ?getSystemId@DOMLSInputImpl@xercesc_3_2@@UBEPB_WXZ 1001e9d0 f i xerces-c_3:DOMLSInputImpl.cpp.obj
 0001:0001d9d0       ?getFileType@SchemeImpl@@UBEPAVFileType@@XZ 1001e9d0 f i colorer:HRCParserImpl.cpp.obj
 0001:0001d9d0       ?getFilter@DOMLSParserImpl@xercesc_3_2@@UBEPBVDOMLSParserFilter@2@XZ 1001e9d0 f i xerces-c_3:DOMLSParserImpl.cpp.obj
 0001:0001d9d0       ?getGrammar@DTDValidator@xercesc_3_2@@UBEPAVGrammar@2@XZ 1001e9d0 f i xerces-c_3:DTDValidator.cpp.obj
 0001:0001d9d0       ?getMemoryManager@?$BaseRefVectorOf@VXMLEntityDecl@xercesc_3_2@@@xercesc_3_2@@QBEPAVMemoryManager@2@XZ 1001e9d0 f i xerces-c_3:ReaderMgr.cpp.obj
 0001:0001d9d0       ?getParameterNames@DOMConfigurationImpl@xercesc_3_2@@UBEPBVDOMStringList@2@XZ 1001e9d0 f i xerces-c_3:DOMConfigurationImpl.cpp.obj
 0001:0001d9d0       ?getTriggeringComponent@XMLSchemaDescriptionImpl@xercesc_3_2@@UBEPBVQName@2@XZ 1001e9d0 f i xerces-c_3:XMLSchemaDescriptionImpl.cpp.obj
 0001:0001d9d0       ?getFilter@DOMLSSerializerImpl@xercesc_3_2@@UBEPAVDOMLSSerializerFilter@2@XZ 1001e9d0 f i xerces-c_3:DOMLSSerializerImpl.cpp.obj
 0001:0001d9d0       ?getNodeName@DOMNotationImpl@xercesc_3_2@@UBEPB_WXZ 1001e9d0 f i xerces-c_3:DOMNotationImpl.cpp.obj
 0001:0001d9d0       ?getDescription@FileTypeImpl@@UBEPBVString@@XZ 1001e9d0 f i colorer:FileTypeImpl.cpp.obj
 0001:0001d9d0       ?getMemoryManager@?$BaseRefVectorOf@VDOMBuffer@xercesc_3_2@@@xercesc_3_2@@QBEPAVMemoryManager@2@XZ 1001e9d0 f i xerces-c_3:DOMDocumentImpl.cpp.obj
 0001:0001d9d0       ?getData@ModifierOp@xercesc_3_2@@UBEHXZ 1001e9d0 f i xerces-c_3:Op.cpp.obj
 0001:0001d9e0       ?getCurrentNode@DOMTreeWalkerImpl@xercesc_3_2@@UAEPAVDOMNode@2@XZ 1001e9e0 f i xerces-c_3:DOMTreeWalkerImpl.cpp.obj
 0001:0001d9e0       ?getEntityDeclPool@ValidationContextImpl@xercesc_3_2@@UBEPBV?$NameIdPool@VDTDEntityDecl@xercesc_3_2@@@2@XZ 1001e9e0 f i xerces-c_3:ValidationContextImpl.cpp.obj
 0001:0001d9e0       ?getTargetNamespace@XMLSchemaDescriptionImpl@xercesc_3_2@@UBEPB_WXZ 1001e9e0 f i xerces-c_3:XMLSchemaDescriptionImpl.cpp.obj
 0001:0001d9e0       ?getNoParen@ParenToken@xercesc_3_2@@UBEHXZ 1001e9e0 f i xerces-c_3:ParenToken.cpp.obj
 0001:0001d9e0       ?getPublicId@InputSource@xercesc_3_2@@UBEPB_WXZ 1001e9e0 f i colorer:LocalFileXmlInputSource.cpp.obj
 0001:0001d9e0       ?getParent@Region@@UBEPBV1@XZ 1001e9e0 f i colorer:HRCParserImpl.cpp.obj
 0001:0001d9e0       ?getWhatToShow@DOMNodeIteratorImpl@xercesc_3_2@@UAEKXZ 1001e9e0 f i xerces-c_3:DOMNodeIteratorImpl.cpp.obj
 0001:0001d9e0       ?getScale@XMLBigDecimal@xercesc_3_2@@QBEIXZ 1001e9e0 f i xerces-c_3:DecimalDatatypeValidator.cpp.obj
 0001:0001d9e0       ?getRootName@XMLDTDDescriptionImpl@xercesc_3_2@@UBEPB_WXZ 1001e9e0 f i xerces-c_3:XMLDTDDescriptionImpl.cpp.obj
 0001:0001d9e0       ?getKey@XMLNotationDecl@xercesc_3_2@@QBEPB_WXZ 1001e9e0 f i xerces-c_3:DTDGrammar.cpp.obj
 0001:0001d9e0       ?getNewLine@DOMLSSerializerImpl@xercesc_3_2@@UBEPB_WXZ 1001e9e0 f i xerces-c_3:DOMLSSerializerImpl.cpp.obj
 0001:0001d9e0       ?GetId@InternalContextBase@details@Concurrency@@UBEIXZ 1001e9e0 f i libconcrt:InternalContextBase.obj
 0001:0001d9e0       ?getReferenceNo@StringToken@xercesc_3_2@@UBEHXZ 1001e9e0 f i xerces-c_3:StringToken.cpp.obj
 0001:0001d9e0       ?getChar@CharToken@xercesc_3_2@@UBEHXZ 1001e9e0 f i xerces-c_3:CharToken.cpp.obj
 0001:0001d9e0       ?getMessage@DOMErrorImpl@xercesc_3_2@@UBEPB_WXZ 1001e9e0 f i xerces-c_3:DOMErrorImpl.cpp.obj
 0001:0001d9e0       ?getName@FileTypeImpl@@UBEPBVString@@XZ 1001e9e0 f i colorer:FileTypeImpl.cpp.obj
 0001:0001d9e0       ?getMin@ClosureToken@xercesc_3_2@@UBEHXZ 1001e9e0 f i xerces-c_3:ClosureToken.cpp.obj
 0001:0001d9e0       ?getFirstChild@DOMParentNode@xercesc_3_2@@QBEPAVDOMNode@2@XZ 1001e9e0 f i xerces-c_3:DOMParentNode.cpp.obj
 0001:0001d9e0       ?getLeafCount@ContentLeafNameTypeVector@xercesc_3_2@@QBEIXZ 1001e9e0 f i xerces-c_3:ContentLeafNameTypeVector.cpp.obj
 0001:0001d9e0       ?getMemoryManager@XMLTranscoder@xercesc_3_2@@QBEPAVMemoryManager@2@XZ 1001e9e0 f i xerces-c_3:Win32TransService.cpp.obj
 0001:0001d9e0       ?getEncoding@DOMLSInputImpl@xercesc_3_2@@UBEPB_WXZ 1001e9e0 f i xerces-c_3:DOMLSInputImpl.cpp.obj
 0001:0001d9e0       ?getSystemId@DOMLSOutputImpl@xercesc_3_2@@UBEPB_WXZ 1001e9e0 f i xerces-c_3:DOMLSOutputImpl.cpp.obj
 0001:0001d9f0       ?getSystemId@DOMEntityImpl@xercesc_3_2@@UBEPB_WXZ 1001e9f0 f   xerces-c_3:DOMEntityImpl.cpp.obj
 0001:0001d9f0       ?getNamespaceURI@DOMAttrNSImpl@xercesc_3_2@@UBEPB_WXZ 1001e9f0 f   xerces-c_3:DOMAttrNSImpl.cpp.obj
 0001:0001d9f0       ?getParamCount@FileTypeImpl@@QBEIXZ 1001e9f0 f   colorer:FileTypeImpl.cpp.obj
 0001:0001da00       ?getParamDefaultValue@FileTypeImpl@@UBEPBVString@@ABV2@@Z 1001ea00 f   colorer:FileTypeImpl.cpp.obj
 0001:0001daa0       ?getParamDescription@FileTypeImpl@@UBEPBVString@@ABV2@@Z 1001eaa0 f   colorer:FileTypeImpl.cpp.obj
 0001:0001db40       ?getParamUserValue@FileTypeImpl@@QBEPBVString@@ABV2@@Z 1001eb40 f   colorer:FileTypeImpl.cpp.obj
 0001:0001dbe0       ?getParamValue@FileTypeImpl@@UBEPBVString@@ABV2@@Z 1001ebe0 f   colorer:FileTypeImpl.cpp.obj
 0001:0001dca0       ?getParamValueInt@FileTypeImpl@@UBEHABVString@@H@Z 1001eca0 f   colorer:FileTypeImpl.cpp.obj
 0001:0001dcd0       ?getPriority@FileTypeImpl@@QBENPBVString@@0@Z 1001ecd0 f   colorer:FileTypeImpl.cpp.obj
 0001:0001dda0       ?setParamDefaultValue@FileTypeImpl@@QAEXABVString@@PBV2@@Z 1001eda0 f   colorer:FileTypeImpl.cpp.obj
 0001:0001de70       ?setParamDescription@FileTypeImpl@@QAEXABVString@@PBV2@@Z 1001ee70 f   colorer:FileTypeImpl.cpp.obj
 0001:0001df40       ?setParamValue@FileTypeImpl@@UAEXABVString@@PBV2@@Z 1001ef40 f   colorer:FileTypeImpl.cpp.obj
 0001:0001e020       ??0String@@QAE@XZ          1001f020 f   colorer:String.cpp.obj
 0001:0001e040       ??1String@@UAE@XZ          1001f040 f   colorer:String.cpp.obj
 0001:0001e060       ??8String@@QBE_NABV0@@Z    1001f060 f   colorer:String.cpp.obj
 0001:0001e0e0       ??9String@@QBE_NABV0@@Z    1001f0e0 f   colorer:String.cpp.obj
 0001:0001e160       ??_EString@@UAEPAXI@Z      1001f160 f i colorer:String.cpp.obj
 0001:0001e160       ??_GString@@UAEPAXI@Z      1001f160 f i colorer:String.cpp.obj
 0001:0001e1a0       ?compareTo@String@@QBEHABV1@@Z 1001f1a0 f   colorer:String.cpp.obj
 0001:0001e240       ?compareToIgnoreCase@String@@QBEHABV1@@Z 1001f240 f   colorer:String.cpp.obj
 0001:0001e2f0       ?equals@String@@QBE_NPBV1@@Z 1001f2f0 f   colorer:String.cpp.obj
 0001:0001e380       ?equalsIgnoreCase@String@@QBE_NPBV1@@Z 1001f380 f   colorer:String.cpp.obj
 0001:0001e450       ?getBytes@String@@UBEIPAPAEH@Z 1001f450 f   colorer:String.cpp.obj
 0001:0001e5b0       ?getChars@String@@UBEPBDH@Z 1001f5b0 f   colorer:String.cpp.obj
 0001:0001e5e0       ?getWChars@String@@UBEIPAPA_W@Z 1001f5e0 f   colorer:String.cpp.obj
 0001:0001e650       ?getWChars@String@@UBEPB_WXZ 1001f650 f   colorer:String.cpp.obj
 0001:0001e670       ?hashCode@String@@QBEIXZ   1001f670 f   colorer:String.cpp.obj
 0001:0001e6b0       ?indexOf@String@@UBEIABV1@I@Z 1001f6b0 f   colorer:String.cpp.obj
 0001:0001e760       ?indexOf@String@@UBEI_WI@Z 1001f760 f   colorer:String.cpp.obj
 0001:0001e7b0       ?indexOfIgnoreCase@String@@UBEIABV1@I@Z 1001f7b0 f   colorer:String.cpp.obj
 0001:0001e880       ?lastIndexOf@String@@UBEI_WI@Z 1001f880 f   colorer:String.cpp.obj
 0001:0001e8e0       ?startsWith@String@@UBE_NABV1@I@Z 1001f8e0 f   colorer:String.cpp.obj
 0001:0001e960       ??0StyledHRDMapper@@QAE@XZ 1001f960 f   colorer:StyledHRDMapper.cpp.obj
 0001:0001ea30       ??1RegionDefine@@UAE@XZ    1001fa30 f i colorer:StyledHRDMapper.cpp.obj
 0001:0001ea40       ??1RegionMapper@@UAE@XZ    1001fa40 f i colorer:StyledHRDMapper.cpp.obj
 0001:0001ea50       ??1RegionMapperImpl@@UAE@XZ 1001fa50 f i colorer:StyledHRDMapper.cpp.obj
 0001:0001eac0       ??4RegionDefine@@UAEAAV0@ABV0@@Z 1001fac0 f i colorer:StyledHRDMapper.cpp.obj
 0001:0001eae0       ??_GRegionDefine@@UAEPAXI@Z 1001fae0 f i colorer:StyledHRDMapper.cpp.obj
 0001:0001eae0       ??_ERegionDefine@@UAEPAXI@Z 1001fae0 f i colorer:StyledHRDMapper.cpp.obj
 0001:0001eb10       ??_ERegionMapper@@UAEPAXI@Z 1001fb10 f i colorer:StyledHRDMapper.cpp.obj
 0001:0001eb10       ??_GRegionMapper@@UAEPAXI@Z 1001fb10 f i colorer:StyledHRDMapper.cpp.obj
 0001:0001eb40       ??_GRegionMapperImpl@@UAEPAXI@Z 1001fb40 f i colorer:StyledHRDMapper.cpp.obj
 0001:0001eb40       ??_ERegionMapperImpl@@UAEPAXI@Z 1001fb40 f i colorer:StyledHRDMapper.cpp.obj
 0001:0001eb60       ??_EStyledHRDMapper@@UAEPAXI@Z 1001fb60 f i colorer:StyledHRDMapper.cpp.obj
 0001:0001eb60       ??_GStyledHRDMapper@@UAEPAXI@Z 1001fb60 f i colorer:StyledHRDMapper.cpp.obj
 0001:0001ebc0       ??_GStyledRegion@@UAEPAXI@Z 1001fbc0 f i colorer:StyledHRDMapper.cpp.obj
 0001:0001ebc0       ??_EStyledRegion@@UAEPAXI@Z 1001fbc0 f i colorer:StyledHRDMapper.cpp.obj
 0001:0001ebf0       ?assignParent@StyledRegion@@UAEXPBVRegionDefine@@@Z 1001fbf0 f i colorer:StyledHRDMapper.cpp.obj
 0001:0001ec90       ?clone@StyledRegion@@UBEPAVRegionDefine@@XZ 1001fc90 f i colorer:StyledHRDMapper.cpp.obj
 0001:0001ed30       ?loadRegionMappings@StyledHRDMapper@@UAEXPAVXmlInputSource@@@Z 1001fd30 f   colorer:StyledHRDMapper.cpp.obj
 0001:0001f190       ?saveRegionMappings@StyledHRDMapper@@UBEXPAVWriter@@@Z 10020190 f   colorer:StyledHRDMapper.cpp.obj
 0001:0001f440       ?setRegionDefine@StyledHRDMapper@@UAEXABVString@@PBVRegionDefine@@@Z 10020440 f   colorer:StyledHRDMapper.cpp.obj
 0001:0001f5c0       ?setValues@StyledRegion@@UAEXPBVRegionDefine@@@Z 100205c0 f i colorer:StyledHRDMapper.cpp.obj
 0001:0001f660       ??$_Emplace_reallocate@PAVSString@@@?$vector@PAVSString@@V?$allocator@PAVSString@@@std@@@std@@QAEPAPAVSString@@QAPAV2@$$QAPAV2@@Z 10020660 f i colorer:TextLinesStore.cpp.obj
 0001:0001f660       ??$_Emplace_reallocate@ABQAVLineRegion@@@?$vector@PAVLineRegion@@V?$allocator@PAVLineRegion@@@std@@@std@@QAEPAPAVLineRegion@@QAPAV2@ABQAV2@@Z 10020660 f i colorer:LineRegionsSupport.cpp.obj
 0001:0001f660       ??$_Emplace_reallocate@PBVHRDNode@@@?$vector@PBVHRDNode@@V?$allocator@PBVHRDNode@@@std@@@std@@QAEPAPBVHRDNode@@QAPBV2@$$QAPBV2@@Z 10020660 f i colorer:ParserFactory.cpp.obj
 0001:0001f660       ??$_Emplace_reallocate@ABQAVFileTypeImpl@@@?$vector@PAVFileTypeImpl@@V?$allocator@PAVFileTypeImpl@@@std@@@std@@QAEPAPAVFileTypeImpl@@QAPAV2@ABQAV2@@Z 10020660 f i colorer:HRCParserImpl.cpp.obj
 0001:0001f660       ??$_Emplace_reallocate@ABQBVRegion@@@?$vector@PBVRegion@@V?$allocator@PBVRegion@@@std@@@std@@QAEPAPBVRegion@@QAPBV2@ABQBV2@@Z 10020660 f i colorer:HRCParserImpl.cpp.obj
 0001:0001f660       ??$_Emplace_reallocate@PAVOutlineItem@@@?$vector@PAVOutlineItem@@V?$allocator@PAVOutlineItem@@@std@@@std@@QAEPAPAVOutlineItem@@QAPAV2@$$QAPAV2@@Z 10020660 f i colorer:Outliner.cpp.obj
 0001:0001f660       ??$_Emplace_reallocate@PAVLineRegion@@@?$vector@PAVLineRegion@@V?$allocator@PAVLineRegion@@@std@@@std@@QAEPAPAVLineRegion@@QAPAV2@$$QAPAV2@@Z 10020660 f i colorer:LineRegionsSupport.cpp.obj
 0001:0001f730       ??$_Emplace_reallocate@V?$unique_ptr@VHRDNode@@U?$default_delete@VHRDNode@@@std@@@std@@@?$vector@V?$unique_ptr@VHRDNode@@U?$default_delete@VHRDNode@@@std@@@std@@V?$allocator@V?$unique_ptr@VHRDNode@@U?$default_delete@VHRDNode@@@std@@@std@@@2@@std@@QAEPAV?$unique_ptr@VHRDNode@@U?$default_delete@VHRDNode@@@std@@@1@QAV21@$$QAV21@@Z 10020730 f i colorer:ParserFactory.cpp.obj
 0001:0001f8e0       ??$_Emplace_reallocate@VSString@@@?$vector@VSString@@V?$allocator@VSString@@@std@@@std@@QAEPAVSString@@QAV2@$$QAV2@@Z 100208e0 f i colorer:ParserFactory.cpp.obj
 0001:0001fa50       ??$_Free_non_head@V?$allocator@U?$_List_node@U?$pair@$$CBVSString@@V?$unique_ptr@V?$vector@V?$unique_ptr@VHRDNode@@U?$default_delete@VHRDNode@@@std@@@std@@V?$allocator@V?$unique_ptr@VHRDNode@@U?$default_delete@VHRDNode@@@std@@@std@@@2@@std@@U?$default_delete@V?$vector@V?$unique_ptr@VHRDNode@@U?$default_delete@VHRDNode@@@std@@@std@@V?$allocator@V?$unique_ptr@VHRDNode@@U?$default_delete@VHRDNode@@@std@@@std@@@2@@std@@@2@@std@@@std@@PAX@std@@@std@@@?$_List_node@U?$pair@$$CBVSString@@V?$unique_ptr@V?$vector@V?$unique_ptr@VHRDNode@@U?$default_delete@VHRDNode@@@std@@@std@@V?$allocator@V?$unique_ptr@VHRDNode@@U?$default_delete@VHRDNode@@@std@@@std@@@2@@std@@U?$default_delete@V?$vector@V?$unique_ptr@VHRDNode@@U?$default_delete@VHRDNode@@@std@@@std@@V?$allocator@V?$unique_ptr@VHRDNode@@U?$default_delete@VHRDNode@@@std@@@std@@@2@@std@@@2@@std@@@std@@PAX@std@@SAXAAV?$allocator@U?$_List_node@U?$pair@$$CBVSString@@V?$unique_ptr@V?$vector@V?$unique_ptr@VHRDNode@@U?$default_delete@VHRDNode@@@std@@@std@@V?$allocator@V?$unique_ptr@VHRDNode@@U?$default_delete@VHRDNode@@@std@@@std@@@2@@std@@U?$default_delete@V?$vector@V?$unique_ptr@VHRDNode@@U?$default_delete@VHRDNode@@@std@@@std@@V?$allocator@V?$unique_ptr@VHRDNode@@U?$default_delete@VHRDNode@@@std@@@std@@@2@@std@@@2@@std@@@std@@PAX@std@@@1@PAU01@@Z 10020a50 f i colorer:ParserFactory.cpp.obj
 0001:0001fa90       ??$emplace@AAVSString@@V?$unique_ptr@V?$vector@V?$unique_ptr@VHRDNode@@U?$default_delete@VHRDNode@@@std@@@std@@V?$allocator@V?$unique_ptr@VHRDNode@@U?$default_delete@VHRDNode@@@std@@@std@@@2@@std@@U?$default_delete@V?$vector@V?$unique_ptr@VHRDNode@@U?$default_delete@VHRDNode@@@std@@@std@@V?$allocator@V?$unique_ptr@VHRDNode@@U?$default_delete@VHRDNode@@@std@@@std@@@2@@std@@@2@@std@@@?$_Hash@V?$_Umap_traits@VSString@@V?$unique_ptr@V?$vector@V?$unique_ptr@VHRDNode@@U?$default_delete@VHRDNode@@@std@@@std@@V?$allocator@V?$unique_ptr@VHRDNode@@U?$default_delete@VHRDNode@@@std@@@std@@@2@@std@@U?$default_delete@V?$vector@V?$unique_ptr@VHRDNode@@U?$default_delete@VHRDNode@@@std@@@std@@V?$allocator@V?$unique_ptr@VHRDNode@@U?$default_delete@VHRDNode@@@std@@@std@@@2@@std@@@2@@std@@V?$_Uhash_compare@VSString@@U?$hash@VSString@@@std@@U?$equal_to@VSString@@@3@@3@V?$allocator@U?$pair@$$CBVSString@@V?$unique_ptr@V?$vector@V?$unique_ptr@VHRDNode@@U?$default_delete@VHRDNode@@@std@@@std@@V?$allocator@V?$unique_ptr@VHRDNode@@U?$default_delete@VHRDNode@@@std@@@std@@@2@@std@@U?$default_delete@V?$vector@V?$unique_ptr@VHRDNode@@U?$default_delete@VHRDNode@@@std@@@std@@V?$allocator@V?$unique_ptr@VHRDNode@@U?$default_delete@VHRDNode@@@std@@@std@@@2@@std@@@2@@std@@@std@@@3@$0A@@std@@@std@@QAE?AU?$pair@V?$_List_iterator@V?$_List_val@U?$_List_simple_types@U?$pair@$$CBVSString@@V?$unique_ptr@V?$vector@V?$unique_ptr@VHRDNode@@U?$default_delete@VHRDNode@@@std@@@std@@V?$allocator@V?$unique_ptr@VHRDNode@@U?$default_delete@VHRDNode@@@std@@@std@@@2@@std@@U?$default_delete@V?$vector@V?$unique_ptr@VHRDNode@@U?$default_delete@VHRDNode@@@std@@@std@@V?$allocator@V?$unique_ptr@VHRDNode@@U?$default_delete@VHRDNode@@@std@@@std@@@2@@std@@@2@@std@@@std@@@std@@@std@@@std@@_N@1@AAVSString@@$$QAV?$unique_ptr@V?$vector@V?$unique_ptr@VHRDNode@@U?$default_delete@VHRDNode@@@std@@@std@@V?$allocator@V?$unique_ptr@VHRDNode@@U?$default_delete@VHRDNode@@@std@@@std@@@2@@std@@U?$default_delete@V?$vector@V?$unique_ptr@VHRDNode@@U?$default_delete@VHRDNode@@@std@@@std@@V?$allocator@V?$unique_ptr@VHRDNode@@U?$default_delete@VHRDNode@@@std@@@std@@@2@@std@@@2@@1@@Z 10020a90 f i colorer:ParserFactory.cpp.obj
 0001:0001fc80       ??$emplace_back@VSString@@@?$vector@VSString@@V?$allocator@VSString@@@std@@@std@@QAEAAVSString@@$$QAV2@@Z 10020c80 f i colorer:ParserFactory.cpp.obj
 0001:0001fd00       ??$error@$$BY0BA@D@spdlog@@YAXAAY0BA@$$CBD@Z 10020d00 f i colorer:ParserFactory.cpp.obj
 0001:0001fd00       ??$error@$$BY0ED@D@spdlog@@YAXAAY0ED@$$CBD@Z 10020d00 f i colorer:ParserFactory.cpp.obj
 0001:0001fdc0       ??$error@PBD@spdlog@@YAXABQBD@Z 10020dc0 f i colorer:ParserFactory.cpp.obj
 0001:0001fe80       ??$log@PBDPBD@logger@spdlog@@QAEXUsource_loc@1@W4level_enum@level@1@V?$basic_string_view@D@v6@fmt@@ABQBD3@Z 10020e80 f i colorer:ParserFactory.cpp.obj
 0001:000200d0       ??0ParserFactory@@QAE@XZ   100210d0 f   colorer:ParserFactory.cpp.obj
 0001:000201e0       ??1?$_Hash@V?$_Umap_traits@VSString@@V?$unique_ptr@V?$vector@V?$unique_ptr@VHRDNode@@U?$default_delete@VHRDNode@@@std@@@std@@V?$allocator@V?$unique_ptr@VHRDNode@@U?$default_delete@VHRDNode@@@std@@@std@@@2@@std@@U?$default_delete@V?$vector@V?$unique_ptr@VHRDNode@@U?$default_delete@VHRDNode@@@std@@@std@@V?$allocator@V?$unique_ptr@VHRDNode@@U?$default_delete@VHRDNode@@@std@@@std@@@2@@std@@@2@@std@@V?$_Uhash_compare@VSString@@U?$hash@VSString@@@std@@U?$equal_to@VSString@@@3@@3@V?$allocator@U?$pair@$$CBVSString@@V?$unique_ptr@V?$vector@V?$unique_ptr@VHRDNode@@U?$default_delete@VHRDNode@@@std@@@std@@V?$allocator@V?$unique_ptr@VHRDNode@@U?$default_delete@VHRDNode@@@std@@@std@@@2@@std@@U?$default_delete@V?$vector@V?$unique_ptr@VHRDNode@@U?$default_delete@VHRDNode@@@std@@@std@@V?$allocator@V?$unique_ptr@VHRDNode@@U?$default_delete@VHRDNode@@@std@@@std@@@2@@std@@@2@@std@@@std@@@3@$0A@@std@@@std@@QAE@XZ 100211e0 f i colorer:ParserFactory.cpp.obj
 0001:00020250       ??1?$_List_node_emplace_op2@V?$allocator@U?$_List_node@U?$pair@$$CBVSString@@V?$unique_ptr@V?$vector@V?$unique_ptr@VHRDNode@@U?$default_delete@VHRDNode@@@std@@@std@@V?$allocator@V?$unique_ptr@VHRDNode@@U?$default_delete@VHRDNode@@@std@@@std@@@2@@std@@U?$default_delete@V?$vector@V?$unique_ptr@VHRDNode@@U?$default_delete@VHRDNode@@@std@@@std@@V?$allocator@V?$unique_ptr@VHRDNode@@U?$default_delete@VHRDNode@@@std@@@std@@@2@@std@@@2@@std@@@std@@PAX@std@@@std@@@std@@QAE@XZ 10021250 f i colorer:ParserFactory.cpp.obj
 0001:00020290       ??1?$list@U?$pair@$$CBVSString@@V?$unique_ptr@V?$vector@V?$unique_ptr@VHRDNode@@U?$default_delete@VHRDNode@@@std@@@std@@V?$allocator@V?$unique_ptr@VHRDNode@@U?$default_delete@VHRDNode@@@std@@@std@@@2@@std@@U?$default_delete@V?$vector@V?$unique_ptr@VHRDNode@@U?$default_delete@VHRDNode@@@std@@@std@@V?$allocator@V?$unique_ptr@VHRDNode@@U?$default_delete@VHRDNode@@@std@@@std@@@2@@std@@@2@@std@@@std@@V?$allocator@U?$pair@$$CBVSString@@V?$unique_ptr@V?$vector@V?$unique_ptr@VHRDNode@@U?$default_delete@VHRDNode@@@std@@@std@@V?$allocator@V?$unique_ptr@VHRDNode@@U?$default_delete@VHRDNode@@@std@@@std@@@2@@std@@U?$default_delete@V?$vector@V?$unique_ptr@VHRDNode@@U?$default_delete@VHRDNode@@@std@@@std@@V?$allocator@V?$unique_ptr@VHRDNode@@U?$default_delete@VHRDNode@@@std@@@std@@@2@@std@@@2@@std@@@std@@@2@@std@@QAE@XZ 10021290 f i colorer:ParserFactory.cpp.obj
 0001:000202b0       ??1?$list@V?$unique_ptr@VHRDNode@@U?$default_delete@VHRDNode@@@std@@@std@@V?$allocator@V?$unique_ptr@VHRDNode@@U?$default_delete@VHRDNode@@@std@@@std@@@2@@std@@QAE@XZ 100212b0 f i colorer:ParserFactory.cpp.obj
 0001:00020300       ??1?$unique_ptr@V?$vector@V?$unique_ptr@VHRDNode@@U?$default_delete@VHRDNode@@@std@@@std@@V?$allocator@V?$unique_ptr@VHRDNode@@U?$default_delete@VHRDNode@@@std@@@std@@@2@@std@@U?$default_delete@V?$vector@V?$unique_ptr@VHRDNode@@U?$default_delete@VHRDNode@@@std@@@std@@V?$allocator@V?$unique_ptr@VHRDNode@@U?$default_delete@VHRDNode@@@std@@@std@@@2@@std@@@2@@std@@QAE@XZ 10021300 f i colorer:ParserFactory.cpp.obj
 0001:00020380       ??1?$unordered_map@VSString@@V?$unique_ptr@V?$vector@V?$unique_ptr@VHRDNode@@U?$default_delete@VHRDNode@@@std@@@std@@V?$allocator@V?$unique_ptr@VHRDNode@@U?$default_delete@VHRDNode@@@std@@@std@@@2@@std@@U?$default_delete@V?$vector@V?$unique_ptr@VHRDNode@@U?$default_delete@VHRDNode@@@std@@@std@@V?$allocator@V?$unique_ptr@VHRDNode@@U?$default_delete@VHRDNode@@@std@@@std@@@2@@std@@@2@@std@@U?$hash@VSString@@@3@U?$equal_to@VSString@@@3@V?$allocator@U?$pair@$$CBVSString@@V?$unique_ptr@V?$vector@V?$unique_ptr@VHRDNode@@U?$default_delete@VHRDNode@@@std@@@std@@V?$allocator@V?$unique_ptr@VHRDNode@@U?$default_delete@VHRDNode@@@std@@@std@@@2@@std@@U?$default_delete@V?$vector@V?$unique_ptr@VHRDNode@@U?$default_delete@VHRDNode@@@std@@@std@@V?$allocator@V?$unique_ptr@VHRDNode@@U?$default_delete@VHRDNode@@@std@@@std@@@2@@std@@@2@@std@@@std@@@3@@std@@QAE@XZ 10021380 f i colorer:ParserFactory.cpp.obj
 0001:00020390       ??1CatalogParser@@QAE@XZ   10021390 f i colorer:ParserFactory.cpp.obj
 0001:000203b0       ??1_Clear_guard@?$_Hash@V?$_Umap_traits@VSString@@V?$unique_ptr@V?$vector@V?$unique_ptr@VHRDNode@@U?$default_delete@VHRDNode@@@std@@@std@@V?$allocator@V?$unique_ptr@VHRDNode@@U?$default_delete@VHRDNode@@@std@@@std@@@2@@std@@U?$default_delete@V?$vector@V?$unique_ptr@VHRDNode@@U?$default_delete@VHRDNode@@@std@@@std@@V?$allocator@V?$unique_ptr@VHRDNode@@U?$default_delete@VHRDNode@@@std@@@std@@@2@@std@@@2@@std@@V?$_Uhash_compare@VSString@@U?$hash@VSString@@@std@@U?$equal_to@VSString@@@3@@3@V?$allocator@U?$pair@$$CBVSString@@V?$unique_ptr@V?$vector@V?$unique_ptr@VHRDNode@@U?$default_delete@VHRDNode@@@std@@@std@@V?$allocator@V?$unique_ptr@VHRDNode@@U?$default_delete@VHRDNode@@@std@@@std@@@2@@std@@U?$default_delete@V?$vector@V?$unique_ptr@VHRDNode@@U?$default_delete@VHRDNode@@@std@@@std@@V?$allocator@V?$unique_ptr@VHRDNode@@U?$default_delete@VHRDNode@@@std@@@std@@@2@@std@@@2@@std@@@std@@@3@$0A@@std@@@std@@QAE@XZ 100213b0 f i colorer:ParserFactory.cpp.obj
 0001:000203c0       ??4SString@@QAEAAV0@$$QAV0@@Z 100213c0 f i colorer:ParserFactory.cpp.obj
 0001:00020430       ??_EParserFactory@@UAEPAXI@Z 10021430 f i colorer:ParserFactory.cpp.obj
 0001:00020430       ??_GParserFactory@@UAEPAXI@Z 10021430 f i colorer:ParserFactory.cpp.obj
 0001:00020490       ?_Forced_rehash@?$_Hash@V?$_Umap_traits@VSString@@V?$unique_ptr@V?$vector@V?$unique_ptr@VHRDNode@@U?$default_delete@VHRDNode@@@std@@@std@@V?$allocator@V?$unique_ptr@VHRDNode@@U?$default_delete@VHRDNode@@@std@@@std@@@2@@std@@U?$default_delete@V?$vector@V?$unique_ptr@VHRDNode@@U?$default_delete@VHRDNode@@@std@@@std@@V?$allocator@V?$unique_ptr@VHRDNode@@U?$default_delete@VHRDNode@@@std@@@std@@@2@@std@@@2@@std@@V?$_Uhash_compare@VSString@@U?$hash@VSString@@@std@@U?$equal_to@VSString@@@3@@3@V?$allocator@U?$pair@$$CBVSString@@V?$unique_ptr@V?$vector@V?$unique_ptr@VHRDNode@@U?$default_delete@VHRDNode@@@std@@@std@@V?$allocator@V?$unique_ptr@VHRDNode@@U?$default_delete@VHRDNode@@@std@@@std@@@2@@std@@U?$default_delete@V?$vector@V?$unique_ptr@VHRDNode@@U?$default_delete@VHRDNode@@@std@@@std@@V?$allocator@V?$unique_ptr@VHRDNode@@U?$default_delete@VHRDNode@@@std@@@std@@@2@@std@@@2@@std@@@std@@@3@$0A@@std@@@std@@IAEXI@Z 10021490 f i colorer:ParserFactory.cpp.obj
 0001:00020640       ?_Reallocate_exactly@?$vector@PBVRegion@@V?$allocator@PBVRegion@@@std@@@std@@AAEXI@Z 10021640 f i colorer:HRCParserImpl.cpp.obj
 0001:00020640       ?_Reallocate_exactly@?$vector@PBVHRDNode@@V?$allocator@PBVHRDNode@@@std@@@std@@AAEXI@Z 10021640 f i colorer:ParserFactory.cpp.obj
 0001:00020640       ?_Reallocate_exactly@?$vector@PAVSString@@V?$allocator@PAVSString@@@std@@@std@@AAEXI@Z 10021640 f i colorer:TextLinesStore.cpp.obj
 0001:00020640       ?_Reallocate_exactly@?$vector@PAVFileTypeImpl@@V?$allocator@PAVFileTypeImpl@@@std@@@std@@AAEXI@Z 10021640 f i colorer:HRCParserImpl.cpp.obj
 0001:000206c0       ?addHrd@ParserFactory@@QAEXV?$unique_ptr@VHRDNode@@U?$default_delete@VHRDNode@@@std@@@std@@@Z 100216c0 f   colorer:ParserFactory.cpp.obj
 0001:00020830       ?clear@?$_Hash@V?$_Umap_traits@VSString@@V?$unique_ptr@V?$vector@V?$unique_ptr@VHRDNode@@U?$default_delete@VHRDNode@@@std@@@std@@V?$allocator@V?$unique_ptr@VHRDNode@@U?$default_delete@VHRDNode@@@std@@@std@@@2@@std@@U?$default_delete@V?$vector@V?$unique_ptr@VHRDNode@@U?$default_delete@VHRDNode@@@std@@@std@@V?$allocator@V?$unique_ptr@VHRDNode@@U?$default_delete@VHRDNode@@@std@@@std@@@2@@std@@@2@@std@@V?$_Uhash_compare@VSString@@U?$hash@VSString@@@std@@U?$equal_to@VSString@@@3@@3@V?$allocator@U?$pair@$$CBVSString@@V?$unique_ptr@V?$vector@V?$unique_ptr@VHRDNode@@U?$default_delete@VHRDNode@@@std@@@std@@V?$allocator@V?$unique_ptr@VHRDNode@@U?$default_delete@VHRDNode@@@std@@@std@@@2@@std@@U?$default_delete@V?$vector@V?$unique_ptr@VHRDNode@@U?$default_delete@VHRDNode@@@std@@@std@@V?$allocator@V?$unique_ptr@VHRDNode@@U?$default_delete@VHRDNode@@@std@@@std@@@2@@std@@@2@@std@@@std@@@3@$0A@@std@@@std@@QAEXXZ 10021830 f i colorer:ParserFactory.cpp.obj
 0001:00020880       ?createStyledMapper@ParserFactory@@QAEPAVStyledHRDMapper@@PBVString@@0@Z 10021880 f   colorer:ParserFactory.cpp.obj
 0001:00020ad0       ?createTextParser@ParserFactory@@QAEPAVTextParser@@XZ 10021ad0 f   colorer:ParserFactory.cpp.obj
 0001:00020b40       ?enumHRDInstances@ParserFactory@@QAE?AV?$vector@PBVHRDNode@@V?$allocator@PBVHRDNode@@@std@@@std@@ABVString@@@Z 10021b40 f   colorer:ParserFactory.cpp.obj
 0001:00020c60       ?getElements@DOMDocumentTypeImpl@xercesc_3_2@@UBEPAVDOMNamedNodeMap@2@XZ 10021c60 f   xerces-c_3:DOMDocumentTypeImpl.cpp.obj
 0001:00020c60       ?getNamespaceURI@DOMElementNSImpl@xercesc_3_2@@UBEPB_WXZ 10021c60 f   xerces-c_3:DOMElementNSImpl.cpp.obj
 0001:00020c60       ?getMinLength@AbstractStringValidator@xercesc_3_2@@QBEIXZ 10021c60 f   xerces-c_3:ListDatatypeValidator.cpp.obj
 0001:00020c60       ?getFirstLine@LineRegionsSupport@@QAEIXZ 10021c60 f   colorer:LineRegionsSupport.cpp.obj
 0001:00020c60       ?GetId@VirtualProcessorRoot@details@Concurrency@@UBEIXZ 10021c60 f   libconcrt:VirtualProcessorRoot.obj
 0001:00020c60       ?getHRCParser@ParserFactory@@QBEPAVHRCParser@@XZ 10021c60 f   colorer:ParserFactory.cpp.obj
 0001:00020c60       ?getMaxInclusive@AbstractNumericFacetValidator@xercesc_3_2@@QBEPAVXMLNumber@2@XZ 10021c60 f   xerces-c_3:AbstractNumericFacetValidator.cpp.obj
 0001:00020c60       ?getMemoryManager@AbstractDOMParser@xercesc_3_2@@IBEPAVMemoryManager@2@XZ 10021c60 f   xerces-c_3:XercesDOMParser.cpp.obj
 0001:00020c60       ?getXmlEncoding@DOMEntityImpl@xercesc_3_2@@UBEPB_WXZ 10021c60 f   xerces-c_3:DOMEntityImpl.cpp.obj
 0001:00020c70       ?getHRDNode@ParserFactory@@QAEPBVHRDNode@@ABVString@@0@Z 10021c70 f   colorer:ParserFactory.cpp.obj
 0001:00020dc0       ?getPossibleCatalogPaths@ParserFactory@@ABEXAAV?$vector@VSString@@V?$allocator@VSString@@@std@@@std@@@Z 10021dc0 f   colorer:ParserFactory.cpp.obj
 0001:000210b0       ?loadCatalog@ParserFactory@@QAEXPBVString@@@Z 100220b0 f   colorer:ParserFactory.cpp.obj
 0001:000214b0       ?loadHrc@ParserFactory@@ABEXPBVString@@0@Z 100224b0 f   colorer:ParserFactory.cpp.obj
 0001:000215d0       ?parseCatalog@ParserFactory@@AAEXABVSString@@@Z 100225d0 f   colorer:ParserFactory.cpp.obj
 0001:00021800       ?searchCatalog@ParserFactory@@ABE?AVSString@@XZ 10022800 f   colorer:ParserFactory.cpp.obj
 0001:00021bd0       ?getCategory@Character@@SA?AW4ECharCategory@@_W@Z 10022bd0 f   colorer:Character.cpp.obj
 0001:00021c00       ?isDigit@Character@@SA_N_W@Z 10022c00 f   colorer:Character.cpp.obj
 0001:00021c30       ?isLetter@Character@@SA_N_W@Z 10022c30 f   colorer:Character.cpp.obj
 0001:00021c60       ?isLetterOrDigit@Character@@SA_N_W@Z 10022c60 f   colorer:Character.cpp.obj
 0001:00021c90       ?isLowerCase@Character@@SA_N_W@Z 10022c90 f   colorer:Character.cpp.obj
 0001:00021cc0       ?isUpperCase@Character@@SA_N_W@Z 10022cc0 f   colorer:Character.cpp.obj
 0001:00021cf0       ?isWhitespace@Character@@SA_N_W@Z 10022cf0 f   colorer:Character.cpp.obj
 0001:00021d40       ?toLowerCase@Character@@SA_W_W@Z 10022d40 f   colorer:Character.cpp.obj
 0001:00021d90       ?toTitleCase@Character@@SA_W_W@Z 10022d90 f   colorer:Character.cpp.obj
 0001:00021df0       ?toUpperCase@Character@@SA_W_W@Z 10022df0 f   colorer:Character.cpp.obj
 0001:00021e40       ??$_Emplace_reallocate@ABH@?$vector@HV?$allocator@H@std@@@std@@QAEPAHQAHABH@Z 10022e40 f i colorer:Outliner.cpp.obj
 0001:00021e40       ??$_Emplace_reallocate@ABQAVSchemeNode@@@?$vector@PAVSchemeNode@@V?$allocator@PAVSchemeNode@@@std@@@std@@QAEPAPAVSchemeNode@@QAPAV2@ABQAV2@@Z 10022e40 f i colorer:HRCParserImpl.cpp.obj
 0001:00021e40       ??$_Emplace_reallocate@PAVVirtualEntry@@@?$vector@PAVVirtualEntry@@V?$allocator@PAVVirtualEntry@@@std@@@std@@QAEPAPAVVirtualEntry@@QAPAV2@$$QAPAV2@@Z 10022e40 f i colorer:HRCParserImpl.cpp.obj
 0001:00021e40       ??$_Emplace_reallocate@ABQAVRegionHandler@@@?$vector@PAVRegionHandler@@V?$allocator@PAVRegionHandler@@@std@@@std@@QAEPAPAVRegionHandler@@QAPAV2@ABQAV2@@Z 10022e40 f i colorer:BaseEditor.cpp.obj
 0001:00021e40       ??$_Emplace_reallocate@ABQAVFileTypeChooser@@@?$vector@PAVFileTypeChooser@@V?$allocator@PAVFileTypeChooser@@@std@@@std@@QAEPAPAVFileTypeChooser@@QAPAV2@ABQAV2@@Z 10022e40 f i colorer:HRCParserImpl.cpp.obj
 0001:00021e40       ??$_Emplace_reallocate@ABQAVEditorListener@@@?$vector@PAVEditorListener@@V?$allocator@PAVEditorListener@@@std@@@std@@QAEPAPAVEditorListener@@QAPAV2@ABQAV2@@Z 10022e40 f i colorer:BaseEditor.cpp.obj
 0001:00021fa0       ??$_Resize_reallocate@U_Value_init_tag@std@@@?$vector@PBVRegionDefine@@V?$allocator@PBVRegionDefine@@@std@@@std@@AAEXIABU_Value_init_tag@1@@Z 10022fa0 f i colorer:RegionMapperImpl.cpp.obj
 0001:00021fa0       ??$_Resize_reallocate@U_Value_init_tag@std@@@?$vector@PAVLineRegion@@V?$allocator@PAVLineRegion@@@std@@@std@@AAEXIABU_Value_init_tag@1@@Z 10022fa0 f i colorer:LineRegionsSupport.cpp.obj
 0001:00021fa0       ??$_Resize_reallocate@U_Value_init_tag@std@@@?$vector@PAVOutlineItem@@V?$allocator@PAVOutlineItem@@@std@@@std@@AAEXIABU_Value_init_tag@1@@Z 10022fa0 f i colorer:Outliner.cpp.obj
 0001:00022030       ??0Outliner@@QAE@PAVBaseEditor@@PBVRegion@@@Z 10023030 f   colorer:Outliner.cpp.obj
 0001:000220d0       ??1RegionHandler@@MAE@XZ   100230d0 f i colorer:Outliner.cpp.obj
 0001:000220e0       ??_EOutliner@@UAEPAXI@Z    100230e0 f i colorer:Outliner.cpp.obj
 0001:000220e0       ??_GOutliner@@UAEPAXI@Z    100230e0 f i colorer:Outliner.cpp.obj
 0001:000221f0       ??_GRegionHandler@@MAEPAXI@Z 100231f0 f i colorer:Outliner.cpp.obj
 0001:000221f0       ??_ERegionHandler@@MAEPAXI@Z 100231f0 f i colorer:Outliner.cpp.obj
 0001:00022220       ?addRegion@Outliner@@UAEXIPAVString@@HHPBVRegion@@@Z 10023220 f   colorer:Outliner.cpp.obj
 0001:000223b0       ?clearLine@Outliner@@UAEXIPAVString@@@Z 100233b0 f   colorer:Outliner.cpp.obj
 0001:000223c0       ?endParsing@Outliner@@UAEXI@Z 100233c0 f   colorer:Outliner.cpp.obj
 0001:000223e0       ?enterScheme@Outliner@@UAEXIPAVString@@HHPBVRegion@@PBVScheme@@@Z 100233e0 f   colorer:Outliner.cpp.obj
 0001:000223f0       ?getItem@Outliner@@QAEPAVOutlineItem@@I@Z 100233f0 f   colorer:Outliner.cpp.obj
 0001:00022410       ?itemCount@Outliner@@QAEIXZ 10023410 f   colorer:Outliner.cpp.obj
 0001:00022420       ?leaveScheme@Outliner@@UAEXIPAVString@@HHPBVRegion@@PBVScheme@@@Z 10023420 f   colorer:Outliner.cpp.obj
 0001:00022430       ?manageTree@Outliner@@SAHAAV?$vector@HV?$allocator@H@std@@@std@@H@Z 10023430 f   colorer:Outliner.cpp.obj
 0001:000224c0       ?modifyEvent@Outliner@@UAEXI@Z 100234c0 f   colorer:Outliner.cpp.obj
 0001:00022580       ?startParsing@Outliner@@UAEXI@Z 10023580 f   colorer:Outliner.cpp.obj
 0001:00022590       ??$log@H@logger@spdlog@@QAEXUsource_loc@1@W4level_enum@level@1@V?$basic_string_view@D@v6@fmt@@ABH@Z 10023590 f i colorer:BaseEditor.cpp.obj
 0001:000227e0       ??$log@HH@logger@spdlog@@QAEXUsource_loc@1@W4level_enum@level@1@V?$basic_string_view@D@v6@fmt@@ABH3@Z 100237e0 f i colorer:BaseEditor.cpp.obj
 0001:00022a30       ??$log@HHPBD@logger@spdlog@@QAEXUsource_loc@1@W4level_enum@level@1@V?$basic_string_view@D@v6@fmt@@ABH3ABQBD@Z 10023a30 f i colorer:BaseEditor.cpp.obj
 0001:00022c90       ??$log@IHH@logger@spdlog@@QAEXUsource_loc@1@W4level_enum@level@1@V?$basic_string_view@D@v6@fmt@@ABIABH4@Z 10023c90 f i colorer:BaseEditor.cpp.obj
 0001:00022ef0       ??0BaseEditor@@QAE@PAVParserFactory@@PAVLineSource@@@Z 10023ef0 f   colorer:BaseEditor.cpp.obj
 0001:00023270       ??1BaseEditor@@UAE@XZ      10024270 f   colorer:BaseEditor.cpp.obj
 0001:00023390       ??_EBaseEditor@@UAEPAXI@Z  10024390 f i colorer:BaseEditor.cpp.obj
 0001:00023390       ??_GBaseEditor@@UAEPAXI@Z  10024390 f i colorer:BaseEditor.cpp.obj
 0001:000234d0       ??_GPairMatch@@UAEPAXI@Z   100244d0 f i colorer:BaseEditor.cpp.obj
 0001:000234d0       ??_EPairMatch@@UAEPAXI@Z   100244d0 f i colorer:BaseEditor.cpp.obj
 0001:00023540       ?addEditorListener@BaseEditor@@QAEXPAVEditorListener@@@Z 10024540 f   colorer:BaseEditor.cpp.obj
 0001:00023570       ?addRegion@BaseEditor@@UAEXIPAVString@@HHPBVRegion@@@Z 10024570 f   colorer:BaseEditor.cpp.obj
 0001:000235d0       ?addRegionHandler@BaseEditor@@QAEXPAVRegionHandler@@@Z 100245d0 f   colorer:BaseEditor.cpp.obj
 0001:00023600       ?chooseFileType@BaseEditor@@QAEPAVFileType@@PBVString@@@Z 10024600 f   colorer:BaseEditor.cpp.obj
 0001:00023730       ?chooseFileTypeCh@BaseEditor@@AAEPAVFileType@@PBVString@@HH@Z 10024730 f   colorer:BaseEditor.cpp.obj
 0001:00023890       ?clearLine@BaseEditor@@UAEXIPAVString@@@Z 10024890 f   colorer:BaseEditor.cpp.obj
 0001:000238d0       ?endParsing@BaseEditor@@UAEXI@Z 100248d0 f   colorer:BaseEditor.cpp.obj
 0001:00023910       ?enterScheme@BaseEditor@@UAEXIPAVString@@HHPBVRegion@@PBVScheme@@@Z 10024910 f   colorer:BaseEditor.cpp.obj
 0001:00023970       ?getFileType@BaseEditor@@QAEPAVFileType@@XZ 10024970 f   colorer:BaseEditor.cpp.obj
 0001:00023970       ?getNotationName@DOMEntityImpl@xercesc_3_2@@UBEPB_WXZ 10024970 f   xerces-c_3:DOMEntityImpl.cpp.obj
 0001:00023970       ?getLocalName@DOMAttrNSImpl@xercesc_3_2@@UBEPB_WXZ 10024970 f   xerces-c_3:DOMAttrNSImpl.cpp.obj
 0001:00023970       ?getName@DOMDocumentTypeImpl@xercesc_3_2@@UBEPB_WXZ 10024970 f   xerces-c_3:DOMDocumentTypeImpl.cpp.obj
 0001:00023970       ?getNodeName@DOMDocumentTypeImpl@xercesc_3_2@@UBEPB_WXZ 10024970 f   xerces-c_3:DOMDocumentTypeImpl.cpp.obj
 0001:00023970       ?getNodeName@DOMEntityReferenceImpl@xercesc_3_2@@UBEPB_WXZ 10024970 f   xerces-c_3:DOMEntityReferenceImpl.cpp.obj
 0001:00023970       ?getAttributes@DOMElementImpl@xercesc_3_2@@UBEPAVDOMNamedNodeMap@2@XZ 10024970 f   xerces-c_3:DOMElementImpl.cpp.obj
 0001:00023980       ?getInvalidLine@BaseEditor@@QBEHXZ 10024980 f   colorer:BaseEditor.cpp.obj
 0001:00023990       ?getLineRegions@BaseEditor@@QAEPAVLineRegion@@H@Z 10024990 f   colorer:BaseEditor.cpp.obj
 0001:000239d0       ?getPairMatch@BaseEditor@@AAEPAVPairMatch@@HH@Z 100249d0 f   colorer:BaseEditor.cpp.obj
 0001:00023bf0       ?haveInvalidLine@BaseEditor@@QAE_NXZ 10024bf0 f   colorer:BaseEditor.cpp.obj
 0001:00023c00       ?idleJob@BaseEditor@@QAEXH@Z 10024c00 f   colorer:BaseEditor.cpp.obj
 0001:00023c40       ?leaveScheme@BaseEditor@@UAEXIPAVString@@HHPBVRegion@@PBVScheme@@@Z 10024c40 f   colorer:BaseEditor.cpp.obj
 0001:00023ca0       ?lineCountEvent@BaseEditor@@QAEXH@Z 10024ca0 f   colorer:BaseEditor.cpp.obj
 0001:00023cf0       ?modifyEvent@BaseEditor@@QAEXH@Z 10024cf0 f   colorer:BaseEditor.cpp.obj
 0001:00023d60       ?releasePairMatch@BaseEditor@@QAEXPAVPairMatch@@@Z 10024d60 f   colorer:BaseEditor.cpp.obj
 0001:00023d80       ?remapLRS@BaseEditor@@AAEX_N@Z 10024d80 f   colorer:BaseEditor.cpp.obj
 0001:00023f20       ?removeEditorListener@BaseEditor@@QAEXPAVEditorListener@@@Z 10024f20 f   colorer:BaseEditor.cpp.obj
 0001:00023f60       ?removeRegionHandler@BaseEditor@@QAEXPAVRegionHandler@@@Z 10024f60 f   colorer:BaseEditor.cpp.obj
 0001:00023fa0       ?searchGlobalPair@BaseEditor@@QAEPAVPairMatch@@HH@Z 10024fa0 f   colorer:BaseEditor.cpp.obj
 0001:00024130       ?searchLocalPair@BaseEditor@@QAEPAVPairMatch@@HH@Z 10025130 f   colorer:BaseEditor.cpp.obj
 0001:000242d0       ?setBackParse@BaseEditor@@QAEXH@Z 100252d0 f   colorer:BaseEditor.cpp.obj
 0001:000242e0       ?setEnd@PairMatch@@QAEXPAVLineRegion@@@Z 100252e0 f i colorer:BaseEditor.cpp.obj
 0001:000243a0       ?setFileType@BaseEditor@@QAEXPAVFileType@@@Z 100253a0 f   colorer:BaseEditor.cpp.obj
 0001:00024410       ?setMaxBlockSize@BaseEditor@@QAEXH@Z 10025410 f   colorer:BaseEditor.cpp.obj
 0001:00024420       ?setRegionMapper@BaseEditor@@QAEXPAVRegionMapper@@@Z 10025420 f   colorer:BaseEditor.cpp.obj
 0001:00024450       ?startParsing@BaseEditor@@UAEXI@Z 10025450 f   colorer:BaseEditor.cpp.obj
 0001:00024490       ?validate@BaseEditor@@QAEXH_N@Z 10025490 f   colorer:BaseEditor.cpp.obj
 0001:00024770       ?visibleTextEvent@BaseEditor@@QAEXHH@Z 10025770 f   colorer:BaseEditor.cpp.obj
 0001:000247c0       ??$log@PBDPBDPBD@logger@spdlog@@QAEXUsource_loc@1@W4level_enum@level@1@V?$basic_string_view@D@v6@fmt@@ABQBD33@Z 100257c0 f i colorer:CatalogParser.cpp.obj
 0001:00024a20       ??$warn@$$BY0DB@D@spdlog@@YAXAAY0DB@$$CBD@Z 10025a20 f i colorer:CatalogParser.cpp.obj
 0001:00024ae0       ??$warn@PBDPBD@spdlog@@YAXV?$basic_string_view@D@v6@fmt@@ABQBD1@Z 10025ae0 f i colorer:CatalogParser.cpp.obj
 0001:00024b20       ??0CatalogParserException@@QAE@ABV0@@Z 10025b20 f i colorer:CatalogParser.cpp.obj
 0001:00024b40       ??0CatalogParserException@@QAE@ABVString@@@Z 10025b40 f i colorer:CatalogParser.cpp.obj
 0001:00024ba0       ??1?$_Alloc_construct_ptr@V?$allocator@U?$_List_node@V?$unique_ptr@VHRDNode@@U?$default_delete@VHRDNode@@@std@@@std@@PAX@std@@@std@@@std@@QAE@XZ 10025ba0 f i colorer:CatalogParser.cpp.obj
 0001:00024bc0       ??1BaseEntityResolver@@UAE@XZ 10025bc0 f i colorer:CatalogParser.cpp.obj
 0001:00024bd0       ??_GXMLEntityResolver@xercesc_3_2@@UAEPAXI@Z 10025bd0 f i colorer:CatalogParser.cpp.obj
 0001:00024bd0       ??_GBaseEntityResolver@@UAEPAXI@Z 10025bd0 f i colorer:CatalogParser.cpp.obj
 0001:00024bd0       ??_EBaseEntityResolver@@UAEPAXI@Z 10025bd0 f i colorer:CatalogParser.cpp.obj
 0001:00024bd0       ??_EXMLEntityResolver@xercesc_3_2@@UAEPAXI@Z 10025bd0 f i colorer:CatalogParser.cpp.obj
 0001:00024c00       ?addHrcSetsLocation@CatalogParser@@AAEXPBVDOMElement@xercesc_3_2@@@Z 10025c00 f   colorer:CatalogParser.cpp.obj
 0001:00024d60       ?parse@CatalogParser@@QAEXPBVString@@@Z 10025d60 f   colorer:CatalogParser.cpp.obj
 0001:000250c0       ?parseCatalogBlock@CatalogParser@@AAEXPBVDOMElement@xercesc_3_2@@@Z 100260c0 f   colorer:CatalogParser.cpp.obj
 0001:000251b0       ?parseHRDSetsChild@CatalogParser@@SA?AV?$unique_ptr@VHRDNode@@U?$default_delete@VHRDNode@@@std@@@std@@PBVDOMElement@xercesc_3_2@@@Z 100261b0 f   colorer:CatalogParser.cpp.obj
 0001:000255c0       ?parseHrdSetsBlock@CatalogParser@@AAEXPBVDOMElement@xercesc_3_2@@@Z 100265c0 f   colorer:CatalogParser.cpp.obj
 0001:00025770       ??0TextConsoleViewer@@QAE@PAVBaseEditor@@PAVTextLinesStore@@HH@Z 10026770 f   colorer:TextConsoleViewer.cpp.obj
 0001:000257a0       ?view@TextConsoleViewer@@QAEXXZ 100267a0 f   colorer:TextConsoleViewer.cpp.obj
 0001:00025e90       ??0TextLinesStore@@QAE@XZ  10026e90 f   colorer:TextLinesStore.cpp.obj
 0001:00025ec0       ??1TextLinesStore@@UAE@XZ  10026ec0 f   colorer:TextLinesStore.cpp.obj
 0001:00025f30       ??_ETextLinesStore@@UAEPAXI@Z 10026f30 f i colorer:TextLinesStore.cpp.obj
 0001:00025f30       ??_GTextLinesStore@@UAEPAXI@Z 10026f30 f i colorer:TextLinesStore.cpp.obj
 0001:00025fb0       ?freeFile@TextLinesStore@@IAEXXZ 10026fb0 f   colorer:TextLinesStore.cpp.obj
 0001:00026000       ?getLine@TextLinesStore@@UAEPAVSString@@I@Z 10027000 f   colorer:TextLinesStore.cpp.obj
 0001:00026020       ?getLineCount@TextLinesStore@@QAEIXZ 10027020 f   colorer:TextLinesStore.cpp.obj
 0001:00026030       ?loadFile@TextLinesStore@@QAEXPBVString@@0_N@Z 10027030 f   colorer:TextLinesStore.cpp.obj
 0001:000263b0       ?replaceTabs@TextLinesStore@@AAEXI@Z 100273b0 f   colorer:TextLinesStore.cpp.obj
 0001:000264a0       ??$log@V?$basic_string@DU?$char_traits@D@std@@V?$allocator@D@2@@std@@_K_KV12@@logger@spdlog@@QAEXUsource_loc@1@W4level_enum@level@1@V?$basic_string_view@D@v6@fmt@@ABV?$basic_string@DU?$char_traits@D@std@@V?$allocator@D@2@@std@@AB_K43@Z 100274a0 f i colorer:XmlParserErrorHandler.cpp.obj
 0001:00026730       ?error@XmlParserErrorHandler@@UAEXABVSAXParseException@xercesc_3_2@@@Z 10027730 f   colorer:XmlParserErrorHandler.cpp.obj
 0001:00026820       ?fatalError@XmlParserErrorHandler@@UAEXABVSAXParseException@xercesc_3_2@@@Z 10027820 f   colorer:XmlParserErrorHandler.cpp.obj
 0001:00026910       ?warning@XmlParserErrorHandler@@UAEXABVSAXParseException@xercesc_3_2@@@Z 10027910 f   colorer:XmlParserErrorHandler.cpp.obj
 0001:00026a00       ??0InputSourceException@@QAE@ABV0@@Z 10027a00 f i colorer:XmlInputSource.cpp.obj
 0001:00026a20       ?ExpandEnvironment@XmlInputSource@@SAPA_WPB_W@Z 10027a20 f   colorer:XmlInputSource.cpp.obj
 0001:00026a60       ?getAbsolutePath@XmlInputSource@@SA?AV?$unique_ptr@VString@@U?$default_delete@VString@@@std@@@std@@PBVString@@0@Z 10027a60 f   colorer:XmlInputSource.cpp.obj
 0001:00026b30       ?getClearPath@XmlInputSource@@SA?AV?$unique_ptr@VString@@U?$default_delete@VString@@@std@@@std@@PBVString@@0@Z 10027b30 f   colorer:XmlInputSource.cpp.obj
 0001:00026e60       ?getFileFromDir@XmlInputSource@@SAXPBVString@@AAV?$vector@VSString@@V?$allocator@VSString@@@std@@@std@@@Z 10027e60 f   colorer:XmlInputSource.cpp.obj
 0001:00026fb0       ?isDirectory@XmlInputSource@@SA_NPBVString@@@Z 10027fb0 f   colorer:XmlInputSource.cpp.obj
 0001:00027040       ?newInstance@XmlInputSource@@SA?AV?$unique_ptr@VXmlInputSource@@U?$default_delete@VXmlInputSource@@@std@@@std@@PB_W0@Z 10028040 f   colorer:XmlInputSource.cpp.obj
 0001:00027160       ?newInstance@XmlInputSource@@SA?AV?$unique_ptr@VXmlInputSource@@U?$default_delete@VXmlInputSource@@@std@@@std@@PB_WPAV1@@Z 10028160 f   colorer:XmlInputSource.cpp.obj
 0001:00027250       ?startsWith@XMLString@xercesc_3_2@@SA_NQB_W0@Z 10028250 f i colorer:XmlInputSource.cpp.obj
 0001:000272a0       ?stringLen@XMLString@xercesc_3_2@@SAIQB_W@Z 100282a0 f i colorer:XmlInputSource.cpp.obj
 0001:000272d0       ??0Colorer@@QAE@XZ         100282d0 f   colorer:Colorer.cpp.obj
 0001:000272f0       ??1Colorer@@QAE@XZ         100282f0 f   colorer:Colorer.cpp.obj
 0001:00027330       ??0UnsupportedEncodingException@@QAE@ABVString@@@Z 10028330 f   colorer:Encodings.cpp.obj
 0001:00027390       ?getDefaultEncodingIndex@Encodings@@SAHXZ 10028390 f   colorer:Encodings.cpp.obj
 0001:00027390       ?getNodeType@DOMCDATASectionImpl@xercesc_3_2@@UBE?AW4NodeType@DOMNode@2@XZ 10028390 f   xerces-c_3:DOMCDATASectionImpl.cpp.obj
 0001:000273a0       ?getEncodingIndex@Encodings@@SAHPBD@Z 100283a0 f   colorer:Encodings.cpp.obj
 0001:000273f0       ?getNodeType@DOMCommentImpl@xercesc_3_2@@UBE?AW4NodeType@DOMNode@2@XZ 100283f0 f   xerces-c_3:DOMCommentImpl.cpp.obj
 0001:000273f0       ?getEncodingNamesNum@Encodings@@SAHXZ 100283f0 f   colorer:Encodings.cpp.obj
 0001:00027400       ?toBytes@Encodings@@SAIH_WPAE@Z 10028400 f   colorer:Encodings.cpp.obj
 0001:000275a0       ?toChar@Encodings@@SADH_W@Z 100285a0 f   colorer:Encodings.cpp.obj
 0001:000275d0       ?toWChar@Encodings@@SA_WHD@Z 100285d0 f   colorer:Encodings.cpp.obj
 0001:000275f0       ??0CRegExp@@QAE@PBVString@@@Z 100285f0 f   colorer:cregexp.cpp.obj
 0001:00027640       ??0CRegExp@@QAE@XZ         10028640 f   colorer:cregexp.cpp.obj
 0001:00027680       ??0SRegInfo@@QAE@XZ        10028680 f   colorer:cregexp.cpp.obj
 0001:000276c0       ??1CRegExp@@QAE@XZ         100286c0 f   colorer:cregexp.cpp.obj
 0001:00027700       ??_GSRegInfo@@QAEPAXI@Z    10028700 f i colorer:cregexp.cpp.obj
 0001:00027780       ?checkMetaSymbol@CRegExp@@AAE_NW4EMetaSymbols@@AAH@Z 10028780 f   colorer:cregexp.cpp.obj
 0001:00027cc0       ?getBackTrace@CRegExp@@QAE_NPAPBVString@@PAPAUSMatches@@@Z 10028cc0 f   colorer:cregexp.cpp.obj
 0001:00027ce0       ?getBracketName@CRegExp@@QAEPAVString@@H@Z 10028ce0 f   colorer:cregexp.cpp.obj
 0001:00027d00       ?insert_stack@CRegExp@@AAEXPAPAVSRegInfo@@0PAHPA_NHH00H@Z 10028d00 f   colorer:cregexp.cpp.obj
 0001:00027e10       ?isOk@CRegExp@@QAE_NXZ     10028e10 f   colorer:cregexp.cpp.obj
 0001:00027e20       ?isWordBoundary@CRegExp@@AAE_NAAH@Z 10028e20 f   colorer:cregexp.cpp.obj
 0001:00027eb0       ?lowParse@CRegExp@@AAE_NPAVSRegInfo@@0H@Z 10028eb0 f   colorer:cregexp.cpp.obj
 0001:00028b50       ?parse@CRegExp@@QAE_NPBVString@@HHPAUSMatches@@HH@Z 10029b50 f   colorer:cregexp.cpp.obj
 0001:00028ba0       ?parse@CRegExp@@QAE_NPBVString@@PAUSMatches@@@Z 10029ba0 f   colorer:cregexp.cpp.obj
 0001:00028be0       ?parseRE@CRegExp@@AAE_NH@Z 10029be0 f i colorer:cregexp.cpp.obj
 0001:00028d00       ?setBackRE@CRegExp@@QAE_NPAV1@@Z 10029d00 f   colorer:cregexp.cpp.obj
 0001:00028d10       ?setBackTrace@CRegExp@@QAE_NPBVString@@PAUSMatches@@@Z 10029d10 f   colorer:cregexp.cpp.obj
 0001:00028d30       ?setPositionMoves@CRegExp@@QAE_N_N@Z 10029d30 f   colorer:cregexp.cpp.obj
 0001:00028d40       ?setRE@CRegExp@@QAE_NPBVString@@@Z 10029d40 f   colorer:cregexp.cpp.obj
 0001:00028d60       ?setRELow@CRegExp@@AAE?AW4EError@@ABVString@@@Z 10029d60 f   colorer:cregexp.cpp.obj
 0001:00029110       ?setStructs@CRegExp@@AAE?AW4EError@@AAPAVSRegInfo@@ABVString@@AAH@Z 1002a110 f   colorer:cregexp.cpp.obj
 0001:0002a080       ??$_Emplace_reallocate@PAVSString@@@?$vector@V?$unique_ptr@VString@@U?$default_delete@VString@@@std@@@std@@V?$allocator@V?$unique_ptr@VString@@U?$default_delete@VString@@@std@@@std@@@2@@std@@QAEPAV?$unique_ptr@VString@@U?$default_delete@VString@@@std@@@1@QAV21@$$QAPAVSString@@@Z 1002b080 f i colorer:HRCParserImpl.cpp.obj
 0001:0002a230       ??$emplace@AAU?$pair@VSString@@PAVString@@@std@@@?$_Hash@V?$_Umap_traits@VSString@@PAVString@@V?$_Uhash_compare@VSString@@U?$hash@VSString@@@std@@U?$equal_to@VSString@@@3@@std@@V?$allocator@U?$pair@$$CBVSString@@PAVString@@@std@@@4@$0A@@std@@@std@@QAE?AU?$pair@V?$_List_iterator@V?$_List_val@U?$_List_simple_types@U?$pair@$$CBVSString@@PAVString@@@std@@@std@@@std@@@std@@_N@1@AAU?$pair@VSString@@PAVString@@@1@@Z 1002b230 f i colorer:HRCParserImpl.cpp.obj
 0001:0002a230       ??$emplace@AAU?$pair@VSString@@PAVFileTypeImpl@@@std@@@?$_Hash@V?$_Umap_traits@VSString@@PAVFileTypeImpl@@V?$_Uhash_compare@VSString@@U?$hash@VSString@@@std@@U?$equal_to@VSString@@@3@@std@@V?$allocator@U?$pair@$$CBVSString@@PAVFileTypeImpl@@@std@@@4@$0A@@std@@@std@@QAE?AU?$pair@V?$_List_iterator@V?$_List_val@U?$_List_simple_types@U?$pair@$$CBVSString@@PAVFileTypeImpl@@@std@@@std@@@std@@@std@@_N@1@AAU?$pair@VSString@@PAVFileTypeImpl@@@1@@Z 1002b230 f i colorer:HRCParserImpl.cpp.obj
 0001:0002a230       ??$emplace@AAU?$pair@VSString@@PAVSchemeImpl@@@std@@@?$_Hash@V?$_Umap_traits@VSString@@PAVSchemeImpl@@V?$_Uhash_compare@VSString@@U?$hash@VSString@@@std@@U?$equal_to@VSString@@@3@@std@@V?$allocator@U?$pair@$$CBVSString@@PAVSchemeImpl@@@std@@@4@$0A@@std@@@std@@QAE?AU?$pair@V?$_List_iterator@V?$_List_val@U?$_List_simple_types@U?$pair@$$CBVSString@@PAVSchemeImpl@@@std@@@std@@@std@@@std@@_N@1@AAU?$pair@VSString@@PAVSchemeImpl@@@1@@Z 1002b230 f i colorer:HRCParserImpl.cpp.obj
 0001:0002a230       ??$emplace@AAU?$pair@VSString@@PAVSharedInputSource@@@std@@@?$_Hash@V?$_Umap_traits@VSString@@PAVSharedInputSource@@V?$_Uhash_compare@VSString@@U?$hash@VSString@@@std@@U?$equal_to@VSString@@@3@@std@@V?$allocator@U?$pair@$$CBVSString@@PAVSharedInputSource@@@std@@@4@$0A@@std@@@std@@QAE?AU?$pair@V?$_List_iterator@V?$_List_val@U?$_List_simple_types@U?$pair@$$CBVSString@@PAVSharedInputSource@@@std@@@std@@@std@@@std@@_N@1@AAU?$pair@VSString@@PAVSharedInputSource@@@1@@Z 1002b230 f i colorer:SharedInputSource.cpp.obj
 0001:0002a230       ??$emplace@AAU?$pair@VSString@@PBVRegion@@@std@@@?$_Hash@V?$_Umap_traits@VSString@@PBVRegion@@V?$_Uhash_compare@VSString@@U?$hash@VSString@@@std@@U?$equal_to@VSString@@@3@@std@@V?$allocator@U?$pair@$$CBVSString@@PBVRegion@@@std@@@4@$0A@@std@@@std@@QAE?AU?$pair@V?$_List_iterator@V?$_List_val@U?$_List_simple_types@U?$pair@$$CBVSString@@PBVRegion@@@std@@@std@@@std@@@std@@_N@1@AAU?$pair@VSString@@PBVRegion@@@1@@Z 1002b230 f i colorer:HRCParserImpl.cpp.obj
 0001:0002a410       ??$error@PBDPBD@spdlog@@YAXV?$basic_string_view@D@v6@fmt@@ABQBD1@Z 1002b410 f i colorer:HRCParserImpl.cpp.obj
 0001:0002a450       ??$find@X@?$_Hash@V?$_Umap_traits@VSString@@PAVSchemeImpl@@V?$_Uhash_compare@VSString@@U?$hash@VSString@@@std@@U?$equal_to@VSString@@@3@@std@@V?$allocator@U?$pair@$$CBVSString@@PAVSchemeImpl@@@std@@@4@$0A@@std@@@std@@QAE?AV?$_List_iterator@V?$_List_val@U?$_List_simple_types@U?$pair@$$CBVSString@@PAVSchemeImpl@@@std@@@std@@@std@@@1@ABVSString@@@Z 1002b450 f i colorer:HRCParserImpl.cpp.obj
 0001:0002a490       ??$log@V?$basic_string@DU?$char_traits@D@std@@V?$allocator@D@2@@std@@@logger@spdlog@@QAEXUsource_loc@1@W4level_enum@level@1@V?$basic_string_view@D@v6@fmt@@ABV?$basic_string@DU?$char_traits@D@std@@V?$allocator@D@2@@std@@@Z 1002b490 f i colorer:HRCParserImpl.cpp.obj
 0001:0002a6f0       ??$log@V?$basic_string@DU?$char_traits@D@std@@V?$allocator@D@2@@std@@V12@@logger@spdlog@@QAEXUsource_loc@1@W4level_enum@level@1@V?$basic_string_view@D@v6@fmt@@ABV?$basic_string@DU?$char_traits@D@std@@V?$allocator@D@2@@std@@3@Z 1002b6f0 f i colorer:HRCParserImpl.cpp.obj
 0001:0002a960       ??$warn@PBD@spdlog@@YAXV?$basic_string_view@D@v6@fmt@@ABQBD@Z 1002b960 f i colorer:HRCParserImpl.cpp.obj
 0001:0002a9a0       ??0HRCParserException@@QAE@ABV0@@Z 1002b9a0 f i colorer:HRCParserImpl.cpp.obj
 0001:0002a9c0       ??0HRCParserException@@QAE@ABVString@@@Z 1002b9c0 f i colorer:HRCParserImpl.cpp.obj
 0001:0002aa20       ??0HRCParserImpl@@QAE@XZ   1002ba20 f   colorer:HRCParserImpl.cpp.obj
 0001:0002af60       ??0KeywordInfo@@QAE@XZ     1002bf60 f i colorer:HRCParserImpl.cpp.obj
 0001:0002af70       ??1?$unique_ptr@VKeywordList@@U?$default_delete@VKeywordList@@@std@@@std@@QAE@XZ 1002bf70 f i colorer:HRCParserImpl.cpp.obj
 0001:0002af90       ??1?$unordered_map@VSString@@PAVFileTypeImpl@@U?$hash@VSString@@@std@@U?$equal_to@VSString@@@4@V?$allocator@U?$pair@$$CBVSString@@PAVFileTypeImpl@@@std@@@4@@std@@QAE@XZ 1002bf90 f i colorer:HRCParserImpl.cpp.obj
 0001:0002af90       ??1?$unordered_map@VSString@@PAVSchemeImpl@@U?$hash@VSString@@@std@@U?$equal_to@VSString@@@4@V?$allocator@U?$pair@$$CBVSString@@PAVSchemeImpl@@@std@@@4@@std@@QAE@XZ 1002bf90 f i colorer:HRCParserImpl.cpp.obj
 0001:0002af90       ??1?$unordered_map@VSString@@PAVString@@U?$hash@VSString@@@std@@U?$equal_to@VSString@@@4@V?$allocator@U?$pair@$$CBVSString@@PAVString@@@std@@@4@@std@@QAE@XZ 1002bf90 f i colorer:HRCParserImpl.cpp.obj
 0001:0002af90       ??1?$unordered_map@VSString@@HU?$hash@VSString@@@std@@U?$equal_to@VSString@@@3@V?$allocator@U?$pair@$$CBVSString@@H@std@@@3@@std@@QAE@XZ 1002bf90 f i colorer:HRCParserImpl.cpp.obj
 0001:0002af90       ??1?$unordered_map@VSString@@PBVRegion@@U?$hash@VSString@@@std@@U?$equal_to@VSString@@@4@V?$allocator@U?$pair@$$CBVSString@@PBVRegion@@@std@@@4@@std@@QAE@XZ 1002bf90 f i colorer:HRCParserImpl.cpp.obj
 0001:0002afa0       ??1HRCParser@@UAE@XZ       1002bfa0 f i colorer:HRCParserImpl.cpp.obj
 0001:0002afb0       ??1HRCParserImpl@@UAE@XZ   1002bfb0 f   colorer:HRCParserImpl.cpp.obj
 0001:0002b120       ??1Scheme@@MAE@XZ          1002c120 f i colorer:HRCParserImpl.cpp.obj
 0001:0002b130       ??1_Clear_guard@?$_Hash@V?$_Umap_traits@VSString@@PAVSchemeImpl@@V?$_Uhash_compare@VSString@@U?$hash@VSString@@@std@@U?$equal_to@VSString@@@3@@std@@V?$allocator@U?$pair@$$CBVSString@@PAVSchemeImpl@@@std@@@4@$0A@@std@@@std@@QAE@XZ 1002c130 f i colorer:HRCParserImpl.cpp.obj
 0001:0002b130       ??1_Clear_guard@?$_Hash@V?$_Umap_traits@VSString@@PAVFileTypeImpl@@V?$_Uhash_compare@VSString@@U?$hash@VSString@@@std@@U?$equal_to@VSString@@@3@@std@@V?$allocator@U?$pair@$$CBVSString@@PAVFileTypeImpl@@@std@@@4@$0A@@std@@@std@@QAE@XZ 1002c130 f i colorer:HRCParserImpl.cpp.obj
 0001:0002b130       ??1_Clear_guard@?$_Hash@V?$_Umap_traits@VSString@@PAVString@@V?$_Uhash_compare@VSString@@U?$hash@VSString@@@std@@U?$equal_to@VSString@@@3@@std@@V?$allocator@U?$pair@$$CBVSString@@PAVString@@@std@@@4@$0A@@std@@@std@@QAE@XZ 1002c130 f i colorer:HRCParserImpl.cpp.obj
 0001:0002b130       ??1_Clear_guard@?$_Hash@V?$_Umap_traits@VSString@@PBVRegion@@V?$_Uhash_compare@VSString@@U?$hash@VSString@@@std@@U?$equal_to@VSString@@@3@@std@@V?$allocator@U?$pair@$$CBVSString@@PBVRegion@@@std@@@4@$0A@@std@@@std@@QAE@XZ 1002c130 f i colorer:HRCParserImpl.cpp.obj
 0001:0002b130       ??1_Clear_guard@?$_Hash@V?$_Umap_traits@VSString@@PAVSharedXmlInputSource@@V?$_Uhash_compare@VSString@@U?$hash@VSString@@@std@@U?$equal_to@VSString@@@3@@std@@V?$allocator@U?$pair@$$CBVSString@@PAVSharedXmlInputSource@@@std@@@4@$0A@@std@@@std@@QAE@XZ 1002c130 f i colorer:SharedXmlInputSource.cpp.obj
 0001:0002b130       ??1_Clear_guard@?$_Hash@V?$_Umap_traits@VSString@@PAVSharedInputSource@@V?$_Uhash_compare@VSString@@U?$hash@VSString@@@std@@U?$equal_to@VSString@@@3@@std@@V?$allocator@U?$pair@$$CBVSString@@PAVSharedInputSource@@@std@@@4@$0A@@std@@@std@@QAE@XZ 1002c130 f i colorer:SharedInputSource.cpp.obj
 0001:0002b1a0       ??_EHRCParser@@UAEPAXI@Z   1002c1a0 f i colorer:HRCParserImpl.cpp.obj
 0001:0002b1a0       ??_GHRCParser@@UAEPAXI@Z   1002c1a0 f i colorer:HRCParserImpl.cpp.obj
 0001:0002b1d0       ??_GHRCParserImpl@@UAEPAXI@Z 1002c1d0 f i colorer:HRCParserImpl.cpp.obj
 0001:0002b1d0       ??_EHRCParserImpl@@UAEPAXI@Z 1002c1d0 f i colorer:HRCParserImpl.cpp.obj
 0001:0002b200       ??_GRegion@@UAEPAXI@Z      1002c200 f i colorer:HRCParserImpl.cpp.obj
 0001:0002b200       ??_ERegion@@UAEPAXI@Z      1002c200 f i colorer:HRCParserImpl.cpp.obj
 0001:0002b240       ??_GScheme@@MAEPAXI@Z      1002c240 f i colorer:HRCParserImpl.cpp.obj
 0001:0002b240       ??_EScheme@@MAEPAXI@Z      1002c240 f i colorer:HRCParserImpl.cpp.obj
 0001:0002b270       ??_GSchemeImpl@@MAEPAXI@Z  1002c270 f i colorer:HRCParserImpl.cpp.obj
 0001:0002b270       ??_ESchemeImpl@@MAEPAXI@Z  1002c270 f i colorer:HRCParserImpl.cpp.obj
 0001:0002b330       ?_Forced_rehash@?$_Hash@V?$_Umap_traits@VSString@@PAVString@@V?$_Uhash_compare@VSString@@U?$hash@VSString@@@std@@U?$equal_to@VSString@@@3@@std@@V?$allocator@U?$pair@$$CBVSString@@PAVString@@@std@@@4@$0A@@std@@@std@@IAEXI@Z 1002c330 f i colorer:HRCParserImpl.cpp.obj
 0001:0002b330       ?_Forced_rehash@?$_Hash@V?$_Umap_traits@VSString@@PAVFileTypeImpl@@V?$_Uhash_compare@VSString@@U?$hash@VSString@@@std@@U?$equal_to@VSString@@@3@@std@@V?$allocator@U?$pair@$$CBVSString@@PAVFileTypeImpl@@@std@@@4@$0A@@std@@@std@@IAEXI@Z 1002c330 f i colorer:HRCParserImpl.cpp.obj
 0001:0002b330       ?_Forced_rehash@?$_Hash@V?$_Umap_traits@VSString@@PAVSchemeImpl@@V?$_Uhash_compare@VSString@@U?$hash@VSString@@@std@@U?$equal_to@VSString@@@3@@std@@V?$allocator@U?$pair@$$CBVSString@@PAVSchemeImpl@@@std@@@4@$0A@@std@@@std@@IAEXI@Z 1002c330 f i colorer:HRCParserImpl.cpp.obj
 0001:0002b330       ?_Forced_rehash@?$_Hash@V?$_Umap_traits@VSString@@PAVSharedXmlInputSource@@V?$_Uhash_compare@VSString@@U?$hash@VSString@@@std@@U?$equal_to@VSString@@@3@@std@@V?$allocator@U?$pair@$$CBVSString@@PAVSharedXmlInputSource@@@std@@@4@$0A@@std@@@std@@IAEXI@Z 1002c330 f i colorer:SharedXmlInputSource.cpp.obj
 0001:0002b330       ?_Forced_rehash@?$_Hash@V?$_Umap_traits@VSString@@PBVRegion@@V?$_Uhash_compare@VSString@@U?$hash@VSString@@@std@@U?$equal_to@VSString@@@3@@std@@V?$allocator@U?$pair@$$CBVSString@@PBVRegion@@@std@@@4@$0A@@std@@@std@@IAEXI@Z 1002c330 f i colorer:HRCParserImpl.cpp.obj
 0001:0002b330       ?_Forced_rehash@?$_Hash@V?$_Umap_traits@VSString@@PAVSharedInputSource@@V?$_Uhash_compare@VSString@@U?$hash@VSString@@@std@@U?$equal_to@VSString@@@3@@std@@V?$allocator@U?$pair@$$CBVSString@@PAVSharedInputSource@@@std@@@4@$0A@@std@@@std@@IAEXI@Z 1002c330 f i colorer:SharedInputSource.cpp.obj
 0001:0002b4e0       ?addKeyword@HRCParserImpl@@IAEXPAVSchemeNode@@PBVRegion@@PBVDOMElement@xercesc_3_2@@@Z 1002c4e0 f   colorer:HRCParserImpl.cpp.obj
 0001:0002b770       ?addPrototype@HRCParserImpl@@IAEXPBVDOMElement@xercesc_3_2@@@Z 1002c770 f   colorer:HRCParserImpl.cpp.obj
 0001:0002bb30       ?addPrototypeDetectParam@HRCParserImpl@@IAEXPBVDOMElement@xercesc_3_2@@@Z 1002cb30 f   colorer:HRCParserImpl.cpp.obj
 0001:0002bde0       ?addPrototypeParameters@HRCParserImpl@@IAEXPBVDOMElement@xercesc_3_2@@@Z 1002cde0 f   colorer:HRCParserImpl.cpp.obj
 0001:0002c050       ?addScheme@HRCParserImpl@@IAEXPBVDOMElement@xercesc_3_2@@@Z 1002d050 f   colorer:HRCParserImpl.cpp.obj
 0001:0002c4a0       ?addSchemeBlock@HRCParserImpl@@IAEXPAVSchemeImpl@@PBVDOMElement@xercesc_3_2@@@Z 1002d4a0 f   colorer:HRCParserImpl.cpp.obj
 0001:0002cb80       ?addSchemeInherit@HRCParserImpl@@IAEXPAVSchemeImpl@@PBVDOMElement@xercesc_3_2@@@Z 1002db80 f   colorer:HRCParserImpl.cpp.obj
 0001:0002cf90       ?addSchemeKeywords@HRCParserImpl@@IAEXPAVSchemeImpl@@PBVDOMElement@xercesc_3_2@@@Z 1002df90 f   colorer:HRCParserImpl.cpp.obj
 0001:0002d3a0       ?addSchemeRegexp@HRCParserImpl@@IAEXPAVSchemeImpl@@PBVDOMElement@xercesc_3_2@@@Z 1002e3a0 f   colorer:HRCParserImpl.cpp.obj
 0001:0002d6b0       ?addType@HRCParserImpl@@IAEXPBVDOMElement@xercesc_3_2@@@Z 1002e6b0 f   colorer:HRCParserImpl.cpp.obj
 0001:0002d990       ?addTypeEntity@HRCParserImpl@@IAEXPBVDOMElement@xercesc_3_2@@@Z 1002e990 f   colorer:HRCParserImpl.cpp.obj
 0001:0002db60       ?addTypeImport@HRCParserImpl@@IAEXPBVDOMElement@xercesc_3_2@@@Z 1002eb60 f   colorer:HRCParserImpl.cpp.obj
 0001:0002dd10       ?addTypeRegion@HRCParserImpl@@IAEXPBVDOMElement@xercesc_3_2@@@Z 1002ed10 f   colorer:HRCParserImpl.cpp.obj
 0001:0002e0a0       ?checkNameExist@HRCParserImpl@@IAE_NPBVString@@PAVFileTypeImpl@@W4QualifyNameType@1@_N@Z 1002f0a0 f   colorer:HRCParserImpl.cpp.obj
 0001:0002e340       ?chooseFileType@HRCParserImpl@@UAEPAVFileType@@PBVString@@0H@Z 1002f340 f   colorer:HRCParserImpl.cpp.obj
 0001:0002e3d0       ?enumerateFileTypes@HRCParserImpl@@UAEPAVFileType@@H@Z 1002f3d0 f   colorer:HRCParserImpl.cpp.obj
 0001:0002e3f0       ?getByteStream@DOMLSInputImpl@xercesc_3_2@@UBEPAVInputSource@2@XZ 1002f3f0 f i xerces-c_3:DOMLSInputImpl.cpp.obj
 0001:0002e3f0       ?getSeverity@DOMErrorImpl@xercesc_3_2@@UBE?AW4ErrorSeverity@DOMError@2@XZ 1002f3f0 f i xerces-c_3:DOMErrorImpl.cpp.obj
 0001:0002e3f0       ?getErrorHandler@DOMConfigurationImpl@xercesc_3_2@@QBEPAVDOMErrorHandler@2@XZ 1002f3f0 f i xerces-c_3:DOMConfigurationImpl.cpp.obj
 0001:0002e3f0       ?getSystemId@XMLDTDDescriptionImpl@xercesc_3_2@@UBEPB_WXZ 1002f3f0 f i xerces-c_3:XMLDTDDescriptionImpl.cpp.obj
 0001:0002e3f0       ?getLength@PSVIAttributeList@xercesc_3_2@@QBEIXZ 1002f3f0 f i xerces-c_3:PSVIAttributeList.cpp.obj
 0001:0002e3f0       ?getIdRefList@ValidationContextImpl@xercesc_3_2@@UBEPAV?$RefHashTableOf@VXMLRefInfo@xercesc_3_2@@UStringHasher@2@@2@XZ 1002f3f0 f i xerces-c_3:ValidationContextImpl.cpp.obj
 0001:0002e3f0       ?getEncodingName@XMLTranscoder@xercesc_3_2@@QBEPB_WXZ 1002f3f0 f i xerces-c_3:Win32TransService.cpp.obj
 0001:0002e3f0       ?getTotalDigit@XMLBigDecimal@xercesc_3_2@@QBEIXZ 1002f3f0 f i xerces-c_3:DecimalDatatypeValidator.cpp.obj
 0001:0002e3f0       ?getOwnerDocument@DOMParentNode@xercesc_3_2@@QBEPAVDOMDocument@2@XZ 1002f3f0 f i xerces-c_3:DOMParentNode.cpp.obj
 0001:0002e3f0       ?getDescription@Region@@UBEPBVString@@XZ 1002f3f0 f i colorer:HRCParserImpl.cpp.obj
 0001:0002e3f0       ?getElement@ContentSpecNode@xercesc_3_2@@QBEPBVQName@2@XZ 1002f3f0 f i xerces-c_3:ContentSpecNode.cpp.obj
 0001:0002e3f0       ?GetId@ContextBase@details@Concurrency@@UBEIXZ 1002f3f0 f i libconcrt:ContextBase.obj
 0001:0002e3f0       ?getContextType@XMLSchemaDescriptionImpl@xercesc_3_2@@UBE?AW4ContextType@XMLSchemaDescription@2@XZ 1002f3f0 f i xerces-c_3:XMLSchemaDescriptionImpl.cpp.obj
 0001:0002e3f0       ?getEncoding@InputSource@xercesc_3_2@@UBEPB_WXZ 1002f3f0 f i colorer:LocalFileXmlInputSource.cpp.obj
 0001:0002e3f0       ?getEncoding@DOMLSOutputImpl@xercesc_3_2@@UBEPB_WXZ 1002f3f0 f i xerces-c_3:DOMLSOutputImpl.cpp.obj
 0001:0002e3f0       ?getFilter@DOMTreeWalkerImpl@xercesc_3_2@@UAEPAVDOMNodeFilter@2@XZ 1002f3f0 f i xerces-c_3:DOMTreeWalkerImpl.cpp.obj
 0001:0002e400       ?getFileType@HRCParserImpl@@UAEPAVFileType@@PBVString@@@Z 1002f400 f   colorer:HRCParserImpl.cpp.obj
 0001:0002e4b0       ?getFileTypesCount@HRCParserImpl@@UAEIXZ 1002f4b0 f   colorer:HRCParserImpl.cpp.obj
 0001:0002e4c0       ?getNCRegion@HRCParserImpl@@IAEPBVRegion@@PBVDOMElement@xercesc_3_2@@ABVString@@@Z 1002f4c0 f   colorer:HRCParserImpl.cpp.obj
 0001:0002e560       ?getNCRegion@HRCParserImpl@@IAEPBVRegion@@PBVString@@_N@Z 1002f560 f   colorer:HRCParserImpl.cpp.obj
 0001:0002e690       ?getMemoryManager@RegxParser@xercesc_3_2@@IBEPAVMemoryManager@2@XZ 1002f690 f i xerces-c_3:RegxParser.cpp.obj
 0001:0002e690       ?getTargetNamespace@SchemaGrammar@xercesc_3_2@@UBEPB_WXZ 1002f690 f i xerces-c_3:SchemaGrammar.cpp.obj
 0001:0002e690       ?getMessage@SAXException@xercesc_3_2@@UBEPB_WXZ 1002f690 f i xerces-c_3:XercesDOMParser.cpp.obj
 0001:0002e690       ?getMemoryManager@XMLElementDecl@xercesc_3_2@@QBEPAVMemoryManager@2@XZ 1002f690 f i xerces-c_3:DTDElementDecl.cpp.obj
 0001:0002e690       ?getStringData@DOMLSInputImpl@xercesc_3_2@@UBEPB_WXZ 1002f690 f i xerces-c_3:DOMLSInputImpl.cpp.obj
 0001:0002e690       ?getWhatToShow@DOMTreeWalkerImpl@xercesc_3_2@@UAEKXZ 1002f690 f i xerces-c_3:DOMTreeWalkerImpl.cpp.obj
 0001:0002e690       ?getMemoryManager@XMLGrammarPool@xercesc_3_2@@QAEPAVMemoryManager@2@XZ 1002f690 f i xerces-c_3:XMLScanner.cpp.obj
 0001:0002e690       ?getResultType@DOMXPathResultImpl@xercesc_3_2@@UBE?AW4ResultType@DOMXPathResult@2@XZ 1002f690 f i xerces-c_3:DOMXPathResultImpl.cpp.obj
 0001:0002e690       ?getName@SchemeImpl@@UBEPBVString@@XZ 1002f690 f i colorer:HRCParserImpl.cpp.obj
 0001:0002e690       ?getRoot@DOMNodeIteratorImpl@xercesc_3_2@@UAEPAVDOMNode@2@XZ 1002f690 f i xerces-c_3:DOMNodeIteratorImpl.cpp.obj
 0001:0002e690       ?getMemoryManager@XMLAttDefList@xercesc_3_2@@QBEPAVMemoryManager@2@XZ 1002f690 f i xerces-c_3:ComplexTypeInfo.cpp.obj
 0001:0002e690       ?getNextSibling@DOMChildNode@xercesc_3_2@@QBEPAVDOMNode@2@XZ 1002f690 f i xerces-c_3:DOMChildNode.cpp.obj
 0001:0002e690       ?size@?$ValueVectorOf@PAX@xercesc_3_2@@QBEIXZ 1002f690 f i xerces-c_3:XSerializeEngine.cpp.obj
 0001:0002e690       ?GetExecutionResourceTls@?$ThreadProxyFactory@VFreeThreadProxy@details@Concurrency@@@details@Concurrency@@UAEKXZ 1002f690 f i libconcrt:ThreadProxyFactoryManager.obj
 0001:0002e690       ?getByteStream@DOMLSOutputImpl@xercesc_3_2@@UBEPAVXMLFormatTarget@2@XZ 1002f690 f i xerces-c_3:DOMLSOutputImpl.cpp.obj
 0001:0002e690       ?getMemoryManager@InputSource@xercesc_3_2@@QBEPAVMemoryManager@2@XZ 1002f690 f i xerces-c_3:LocalFileInputSource.cpp.obj
 0001:0002e690       ?getLocation@FileInputSource@@UBEPBVString@@XZ 1002f690 f i colorer:FileInputSource.cpp.obj
 0001:0002e690       ?getLocation@JARInputSource@@UBEPBVString@@XZ 1002f690 f i colorer:JARInputSource.cpp.obj
 0001:0002e690       ?getSign@XMLBigDecimal@xercesc_3_2@@UBEHXZ 1002f690 f i xerces-c_3:XMLBigDecimal.cpp.obj
 0001:0002e690       ?getName@Region@@UBEPBVString@@XZ 1002f690 f i colorer:HRCParserImpl.cpp.obj
 0001:0002e6a0       ?getRegion@HRCParserImpl@@UAEPBVRegion@@H@Z 1002f6a0 f   colorer:HRCParserImpl.cpp.obj
 0001:0002e6d0       ?getRegion@HRCParserImpl@@UAEPBVRegion@@PBVString@@@Z 1002f6d0 f   colorer:HRCParserImpl.cpp.obj
 0001:0002e6f0       ?getRegionCount@HRCParserImpl@@UAEIXZ 1002f6f0 f   colorer:HRCParserImpl.cpp.obj
 0001:0002e700       ?getSchemeKeywordsCount@HRCParserImpl@@IAEHPBVDOMElement@xercesc_3_2@@@Z 1002f700 f   colorer:HRCParserImpl.cpp.obj
 0001:0002e7e0       ?changes@DOMDocumentImpl@xercesc_3_2@@UBEHXZ 1002f7e0 f   xerces-c_3:DOMDocumentImpl.cpp.obj
 0001:0002e7e0       ?getVersion@HRCParserImpl@@UAEPBVString@@XZ 1002f7e0 f   colorer:HRCParserImpl.cpp.obj
 0001:0002e7f0       ?loadBlockRegions@HRCParserImpl@@IAEXPAVSchemeNode@@PBVDOMElement@xercesc_3_2@@@Z 1002f7f0 f   colorer:HRCParserImpl.cpp.obj
 0001:0002e9a0       ?loadFileType@HRCParserImpl@@IAEXPAVFileType@@@Z 1002f9a0 f   colorer:HRCParserImpl.cpp.obj
 0001:0002ebe0       ?loadRegions@HRCParserImpl@@IAEXPAVSchemeNode@@PBVDOMElement@xercesc_3_2@@_N@Z 1002fbe0 f   colorer:HRCParserImpl.cpp.obj
 0001:0002ed40       ?loadSource@HRCParserImpl@@UAEXPAVXmlInputSource@@@Z 1002fd40 f   colorer:HRCParserImpl.cpp.obj
 0001:0002ee00       ?parseHRC@HRCParserImpl@@IAEXPAVXmlInputSource@@@Z 1002fe00 f   colorer:HRCParserImpl.cpp.obj
 0001:0002f140       ?parseHrcBlock@HRCParserImpl@@IAEXPBVDOMElement@xercesc_3_2@@@Z 10030140 f   colorer:HRCParserImpl.cpp.obj
 0001:0002f3d0       ?parseHrcBlockElements@HRCParserImpl@@IAEXPBVDOMElement@xercesc_3_2@@@Z 100303d0 f   colorer:HRCParserImpl.cpp.obj
 0001:0002f5f0       ?parsePrototypeBlock@HRCParserImpl@@IAEXPBVDOMElement@xercesc_3_2@@@Z 100305f0 f   colorer:HRCParserImpl.cpp.obj
 0001:0002f820       ?parseSchemeBlock@HRCParserImpl@@IAEXPAVSchemeImpl@@PBVDOMElement@xercesc_3_2@@@Z 10030820 f   colorer:HRCParserImpl.cpp.obj
 0001:0002fa10       ?parseTypeBlock@HRCParserImpl@@IAEXPBVDOMElement@xercesc_3_2@@@Z 10030a10 f   colorer:HRCParserImpl.cpp.obj
 0001:0002fbe0       ?qualifyForeignName@HRCParserImpl@@IAEPAVString@@PBV2@W4QualifyNameType@1@_N@Z 10030be0 f   colorer:HRCParserImpl.cpp.obj
 0001:0002ff30       ?qualifyOwnName@HRCParserImpl@@IAEPAVString@@PBV2@@Z 10030f30 f   colorer:HRCParserImpl.cpp.obj
 0001:000300f0       ?unloadFileType@HRCParserImpl@@IAEXPAVFileTypeImpl@@@Z 100310f0 f   colorer:HRCParserImpl.cpp.obj
 0001:00030290       ?updateLinks@HRCParserImpl@@IAEXXZ 10031290 f   colorer:HRCParserImpl.cpp.obj
 0001:000306a0       ?useEntities@HRCParserImpl@@IAEPAVString@@PBV2@@Z 100316a0 f   colorer:HRCParserImpl.cpp.obj
 0001:000308d0       ?getCurlyContent@UnicodeTools@@SAPAVCString@@ABVString@@H@Z 100318d0 f   colorer:UnicodeTools.cpp.obj
 0001:000309e0       ?getEscapedChar@UnicodeTools@@SA_WABVString@@HAAH@Z 100319e0 f   colorer:UnicodeTools.cpp.obj
 0001:00030c50       ?getHex@UnicodeTools@@SAH_W@Z 10031c50 f   colorer:UnicodeTools.cpp.obj
 0001:00030c80       ?getHexNumber@UnicodeTools@@SAHPBVString@@@Z 10031c80 f   colorer:UnicodeTools.cpp.obj
 0001:00030d00       ?getNumber@UnicodeTools@@SAHPBVString@@@Z 10031d00 f   colorer:UnicodeTools.cpp.obj
 0001:00030d70       ?getNumber@UnicodeTools@@SA_NPBVString@@PAH@Z 10031d70 f   colorer:UnicodeTools.cpp.obj
 0001:00030db0       ?getNumber@UnicodeTools@@SA_NPBVString@@PAN@Z 10031db0 f   colorer:UnicodeTools.cpp.obj
 0001:00031120       ??$find@X@?$_Hash@V?$_Umap_traits@VSString@@PAVRegionDefine@@V?$_Uhash_compare@VSString@@U?$hash@VSString@@@std@@U?$equal_to@VSString@@@3@@std@@V?$allocator@U?$pair@$$CBVSString@@PAVRegionDefine@@@std@@@4@$0A@@std@@@std@@QBE?AV?$_List_const_iterator@V?$_List_val@U?$_List_simple_types@U?$pair@$$CBVSString@@PAVRegionDefine@@@std@@@std@@@std@@@1@ABVSString@@@Z 10032120 f i colorer:RegionMapperImpl.cpp.obj
 0001:00031190       ?at@?$vector@PBVRegionDefine@@V?$allocator@PBVRegionDefine@@@std@@@std@@QAEAAPBVRegionDefine@@I@Z 10032190 f i colorer:RegionMapperImpl.cpp.obj
 0001:000311b0       ?getRegionDefine@RegionMapperImpl@@UBEPBVRegionDefine@@ABVString@@@Z 100321b0 f   colorer:RegionMapperImpl.cpp.obj
 0001:00031240       ?getRegionDefine@RegionMapperImpl@@UBEPBVRegionDefine@@PBVRegion@@@Z 10032240 f   colorer:RegionMapperImpl.cpp.obj
 0001:00031420       ??0DString@@QAE@ABVSString@@II@Z 10032420 f i colorer:TextParserImpl.cpp.obj
 0001:000314f0       ??0TextParserImpl@@QAE@XZ  100324f0 f   colorer:TextParserImpl.cpp.obj
 0001:000315b0       ??1DString@@UAE@XZ         100325b0 f i colorer:TextParserImpl.cpp.obj
 0001:000315c0       ??1TextParser@@UAE@XZ      100325c0 f i colorer:TextParserImpl.cpp.obj
 0001:000315d0       ??ADString@@UBE_WI@Z       100325d0 f i colorer:TextParserImpl.cpp.obj
 0001:000315f0       ??_EDString@@UAEPAXI@Z     100325f0 f i colorer:TextParserImpl.cpp.obj
 0001:000315f0       ??_GDString@@UAEPAXI@Z     100325f0 f i colorer:TextParserImpl.cpp.obj
 0001:00031620       ??_ETextParser@@UAEPAXI@Z  10032620 f i colorer:TextParserImpl.cpp.obj
 0001:00031620       ??_GTextParser@@UAEPAXI@Z  10032620 f i colorer:TextParserImpl.cpp.obj
 0001:00031650       ??_ETextParserImpl@@UAEPAXI@Z 10032650 f i colorer:TextParserImpl.cpp.obj
 0001:00031650       ??_GTextParserImpl@@UAEPAXI@Z 10032650 f i colorer:TextParserImpl.cpp.obj
 0001:000316a0       ?breakParse@TextParserImpl@@UAEXXZ 100326a0 f   colorer:TextParserImpl.cpp.obj
 0001:000316b0       ?clearCache@TextParserImpl@@UAEXXZ 100326b0 f   colorer:TextParserImpl.cpp.obj
 0001:00031780       ?colorize@TextParserImpl@@AAE_NPAVCRegExp@@_N@Z 10032780 f   colorer:TextParserImpl.cpp.obj
 0001:00031a60       ?fillInvisibleSchemes@TextParserImpl@@AAEXPAVParseCache@@@Z 10032a60 f   colorer:TextParserImpl.cpp.obj
 0001:00031aa0       ?leaveScheme@TextParserImpl@@AAEXHPAUSMatches@@PBVSchemeNode@@@Z 10032aa0 f   colorer:TextParserImpl.cpp.obj
 0001:00031bc0       ?getBaseURI@DOMNotationImpl@xercesc_3_2@@UBEPB_WXZ 10032bc0 f i xerces-c_3:DOMNotationImpl.cpp.obj
 0001:00031bc0       ?getOwnerDocument@DOMDocumentFragmentImpl@xercesc_3_2@@UBEPAVDOMDocument@2@XZ 10032bc0 f i xerces-c_3:DOMDocumentFragmentImpl.cpp.obj
 0001:00031bc0       ?length@DString@@UBEIXZ    10032bc0 f i colorer:TextParserImpl.cpp.obj
 0001:00031bc0       ?getOwnerDocument@DOMAttrImpl@xercesc_3_2@@UBEPAVDOMDocument@2@XZ 10032bc0 f i xerces-c_3:DOMAttrImpl.cpp.obj
 0001:00031bc0       ?getMemoryManager@QName@xercesc_3_2@@QBEPAVMemoryManager@2@XZ 10032bc0 f i xerces-c_3:XercesXPath.cpp.obj
 0001:00031bc0       ?getOwnerDocument@DOMEntityImpl@xercesc_3_2@@UBEPAVDOMDocument@2@XZ 10032bc0 f i xerces-c_3:DOMEntityImpl.cpp.obj
 0001:00031bd0       ?parse@TextParserImpl@@UAEHHHW4TextParseMode@@@Z 10032bd0 f   colorer:TextParserImpl.cpp.obj
 0001:00031e90       ?searchKW@TextParserImpl@@AAEHPBVSchemeNode@@HHH@Z 10032e90 f   colorer:TextParserImpl.cpp.obj
 0001:00032190       ?searchRE@TextParserImpl@@AAEHPAVSchemeImpl@@HHH@Z 10033190 f   colorer:TextParserImpl.cpp.obj
 0001:00032820       ?setFileType@TextParserImpl@@UAEXPAVFileType@@@Z 10033820 f   colorer:TextParserImpl.cpp.obj
 0001:00032850       ?setLineSource@TextParserImpl@@UAEXPAVLineSource@@@Z 10033850 f   colorer:TextParserImpl.cpp.obj
 0001:00032860       ?setMaxBlockSize@TextParserImpl@@UAEXH@Z 10033860 f   colorer:TextParserImpl.cpp.obj
 0001:00032870       ?setRegionHandler@TextParserImpl@@UAEXPAVRegionHandler@@@Z 10033870 f   colorer:TextParserImpl.cpp.obj
 0001:00032880       ??0XStr@@QAE@QB_W@Z        10033880 f   colorer:XStr.cpp.obj
 0001:00032a50       ??0_System_error@std@@IAE@Verror_code@1@ABV?$basic_string@DU?$char_traits@D@std@@V?$allocator@D@2@@1@@Z 10033a50 f i colorer:XStr.cpp.obj
 0001:00032c40       ??0_System_error@std@@QAE@ABV01@@Z 10033c40 f i colorer:XStr.cpp.obj
 0001:00032c80       ??0system_error@std@@QAE@ABV01@@Z 10033c80 f i colorer:XStr.cpp.obj
 0001:00032cd0       ??1?$unique_ptr@DU?$default_delete@D@std@@@std@@QAE@XZ 10033cd0 f i colorer:XStr.cpp.obj
 0001:00032cf0       ??1?$unique_ptr@_WU?$default_delete@_W@std@@@std@@QAE@XZ 10033cf0 f i colorer:XStr.cpp.obj
 0001:00032d10       ??1XStr@@QAE@XZ            10033d10 f   colorer:XStr.cpp.obj
 0001:00032d70       ??4?$basic_string@DU?$char_traits@D@std@@V?$allocator@D@2@@std@@QAEAAV01@$$QAV01@@Z 10033d70 f i colorer:XStr.cpp.obj
 0001:00032e00       ??_G_Generic_error_category@std@@UAEPAXI@Z 10033e00 f i colorer:XStr.cpp.obj
 0001:00032e00       ??_E_Generic_error_category@std@@UAEPAXI@Z 10033e00 f i colorer:XStr.cpp.obj
 0001:00032e20       ??_E_System_error@std@@UAEPAXI@Z 10033e20 f i colorer:XStr.cpp.obj
 0001:00032e20       ??_G_System_error@std@@UAEPAXI@Z 10033e20 f i colorer:XStr.cpp.obj
 0001:00032e20       ??_Gsystem_error@std@@UAEPAXI@Z 10033e20 f i colorer:XStr.cpp.obj
 0001:00032e20       ??_Esystem_error@std@@UAEPAXI@Z 10033e20 f i colorer:XStr.cpp.obj
 0001:00032e50       ?default_error_condition@error_category@std@@UBE?AVerror_condition@2@H@Z 10033e50 f i colorer:XStr.cpp.obj
 0001:00032e60       ?equivalent@error_category@std@@UBE_NABVerror_code@2@H@Z 10033e60 f i colorer:XStr.cpp.obj
 0001:00032e90       ?equivalent@error_category@std@@UBE_NHABVerror_condition@2@@Z 10033e90 f i colorer:XStr.cpp.obj
 0001:00032ed0       ?get_char@XStr@@QBEPBDXZ   10033ed0 f   colorer:XStr.cpp.obj
 0001:00032ef0       ?get_stdstr@XStr@@QBEPBV?$basic_string@DU?$char_traits@D@std@@V?$allocator@D@2@@std@@XZ 10033ef0 f   colorer:XStr.cpp.obj
 0001:00032ef0       ?getNodeImpl@DOMNotationImpl@xercesc_3_2@@UAEPAVDOMNodeImpl@2@XZ 10033ef0 f   xerces-c_3:DOMNotationImpl.cpp.obj
 0001:00032ef0       ?_Get@?$_Func_impl_no_alloc@P6AXABV?$basic_string@DU?$char_traits@D@std@@V?$allocator@D@2@@std@@@ZXABV12@@std@@EBEPBXXZ 10033ef0 f   spdlog:spdlog.cpp.obj
 0001:00032ef0       ?getNodeImpl@DOMNotationImpl@xercesc_3_2@@UBEPBVDOMNodeImpl@2@XZ 10033ef0 f   xerces-c_3:DOMNotationImpl.cpp.obj
 0001:00032f00       ?message@_Generic_error_category@std@@UBE?AV?$basic_string@DU?$char_traits@D@std@@V?$allocator@D@2@@2@H@Z 10033f00 f i colorer:XStr.cpp.obj
 0001:00032f50       ?name@_Generic_error_category@std@@UBEPBDXZ 10033f50 f i colorer:XStr.cpp.obj
 0001:00032f60       ?replicate@XMLString@xercesc_3_2@@SAPA_WQB_WQAVMemoryManager@2@@Z 10033f60 f i colorer:XStr.cpp.obj
 0001:00032fb0       ??$log@I@logger@spdlog@@QAEXUsource_loc@1@W4level_enum@level@1@V?$basic_string_view@D@v6@fmt@@ABI@Z 10033fb0 f i colorer:LineRegionsSupport.cpp.obj
 0001:00033200       ??0LineRegionsSupport@@QAE@XZ 10034200 f   colorer:LineRegionsSupport.cpp.obj
 0001:00033290       ??1LineRegionsSupport@@UAE@XZ 10034290 f   colorer:LineRegionsSupport.cpp.obj
 0001:00033440       ??_GLineRegionsSupport@@UAEPAXI@Z 10034440 f i colorer:LineRegionsSupport.cpp.obj
 0001:00033440       ??_ELineRegionsSupport@@UAEPAXI@Z 10034440 f i colorer:LineRegionsSupport.cpp.obj
 0001:00033460       ?addLineRegion@LineRegionsSupport@@MAEXIPAVLineRegion@@@Z 10034460 f   colorer:LineRegionsSupport.cpp.obj
 0001:000334d0       ?addRegion@LineRegionsSupport@@UAEXIPAVString@@HHPBVRegion@@@Z 100344d0 f   colorer:LineRegionsSupport.cpp.obj
 0001:00033610       ?clear@LineRegionsSupport@@QAEXXZ 10034610 f   colorer:LineRegionsSupport.cpp.obj
 0001:00033690       ?clearLine@LineRegionsSupport@@UAEXIPAVString@@@Z 10034690 f   colorer:LineRegionsSupport.cpp.obj
 0001:00033810       ?enterScheme@LineRegionsSupport@@UAEXIPAVString@@HHPBVRegion@@PBVScheme@@@Z 10034810 f   colorer:LineRegionsSupport.cpp.obj
 0001:000339f0       ?getLineIndex@LineRegionsSupport@@IBEII@Z 100349f0 f   colorer:LineRegionsSupport.cpp.obj
 0001:00033a10       ?getLineRegions@LineRegionsSupport@@QBEPAVLineRegion@@I@Z 10034a10 f   colorer:LineRegionsSupport.cpp.obj
 0001:00033aa0       ?leaveScheme@LineRegionsSupport@@UAEXIPAVString@@HHPBVRegion@@PBVScheme@@@Z 10034aa0 f   colorer:LineRegionsSupport.cpp.obj
 0001:00033bc0       ?resize@LineRegionsSupport@@QAEXI@Z 10034bc0 f   colorer:LineRegionsSupport.cpp.obj
 0001:00033c60       ?setFirstLine@LineRegionsSupport@@QAEXI@Z 10034c60 f   colorer:LineRegionsSupport.cpp.obj
 0001:00033c70       ?setScanner@ValidationContextImpl@xercesc_3_2@@UAEXPAVXMLScanner@2@@Z 10034c70 f   xerces-c_3:ValidationContextImpl.cpp.obj
 0001:00033c70       ?setAttributes@XMLSchemaDescriptionImpl@xercesc_3_2@@UAEXQAVXMLAttDef@2@@Z 10034c70 f   xerces-c_3:XMLSchemaDescriptionImpl.cpp.obj
 0001:00033c70       ?setRegionMapper@LineRegionsSupport@@QAEXPBVRegionMapper@@@Z 10034c70 f   colorer:LineRegionsSupport.cpp.obj
 0001:00033c80       ?setSpecialRegion@LineRegionsSupport@@QAEXPBVRegion@@@Z 10034c80 f   colorer:LineRegionsSupport.cpp.obj
 0001:00033c90       ?startParsing@LineRegionsSupport@@UAEXI@Z 10034c90 f   colorer:LineRegionsSupport.cpp.obj
 0001:00033d20       ??0LineRegionsCompactSupport@@QAE@XZ 10034d20 f   colorer:LineRegionsCompactSupport.cpp.obj
 0001:00033d40       ??_GLineRegionsCompactSupport@@UAEPAXI@Z 10034d40 f i colorer:LineRegionsCompactSupport.cpp.obj
 0001:00033d40       ??_ELineRegionsCompactSupport@@UAEPAXI@Z 10034d40 f i colorer:LineRegionsCompactSupport.cpp.obj
 0001:00033d70       ?addLineRegion@LineRegionsCompactSupport@@MAEXIPAVLineRegion@@@Z 10034d70 f   colorer:LineRegionsCompactSupport.cpp.obj
 0001:00034080       ?resolveEntity@BaseEntityResolver@@UAEPAVInputSource@xercesc_3_2@@PAVXMLResourceIdentifier@3@@Z 10035080 f   colorer:BaseEntityResolver.cpp.obj
 0001:00034150       ?getAbsolutePath@InputSource@colorer@@SAPAVString@@PBV3@0@Z 10035150 f   colorer:InputSource.cpp.obj
 0001:00034220       ?isRelative@InputSource@colorer@@SA_NPBVString@@@Z 10035220 f   colorer:InputSource.cpp.obj
 0001:00034270       ?newInstance@InputSource@colorer@@SAPAV12@PBVString@@@Z 10035270 f   colorer:InputSource.cpp.obj
 0001:00034390       ?newInstance@InputSource@colorer@@SAPAV12@PBVString@@PAV12@@Z 10035390 f   colorer:InputSource.cpp.obj
 0001:000344f0       ??0LocalFileXmlInputSource@@QAE@PB_W0@Z 100354f0 f   colorer:LocalFileXmlInputSource.cpp.obj
 0001:000345e0       ??1XmlInputSource@@UAE@XZ  100355e0 f i colorer:LocalFileXmlInputSource.cpp.obj
 0001:000345f0       ?getMemoryManager@?$RefHashTableOf@VRangeTokenElemMap@xercesc_3_2@@UStringHasher@2@@xercesc_3_2@@QBEPAVMemoryManager@2@XZ 100355f0 f i xerces-c_3:RangeTokenMap.cpp.obj
 0001:000345f0       ?get@?$ArrayJanitor@_W@xercesc_3_2@@QBEPA_WXZ 100355f0 f i xerces-c_3:JanitorExports.cpp.obj
 0001:000345f0       ??C?$unique_ptr@VLocalFileInputSource@xercesc_3_2@@U?$default_delete@VLocalFileInputSource@xercesc_3_2@@@std@@@std@@QBEPAVLocalFileInputSource@xercesc_3_2@@XZ 100355f0 f i colorer:LocalFileXmlInputSource.cpp.obj
 0001:00034600       ??_ELocalFileXmlInputSource@@UAEPAXI@Z 10035600 f i colorer:LocalFileXmlInputSource.cpp.obj
 0001:00034600       ??_GLocalFileXmlInputSource@@UAEPAXI@Z 10035600 f i colorer:LocalFileXmlInputSource.cpp.obj
 0001:00034650       ??_GXmlInputSource@@UAEPAXI@Z 10035650 f i colorer:LocalFileXmlInputSource.cpp.obj
 0001:00034650       ??_EXmlInputSource@@UAEPAXI@Z 10035650 f i colorer:LocalFileXmlInputSource.cpp.obj
 0001:00034690       ?createRelative@LocalFileXmlInputSource@@UBE?AV?$unique_ptr@VXmlInputSource@@U?$default_delete@VXmlInputSource@@@std@@@std@@PB_W@Z 10035690 f   colorer:LocalFileXmlInputSource.cpp.obj
 0001:000347c0       ?GetAvailableNodeCount@ResourceManager@details@Concurrency@@UBEIXZ 100357c0 f   libconcrt:ResourceManager.obj
 0001:000347c0       ?getParameterNames@DOMLSParserImpl@xercesc_3_2@@UBEPBVDOMStringList@2@XZ 100357c0 f   xerces-c_3:DOMLSParserImpl.cpp.obj
 0001:000347c0       ?getData2@ModifierOp@xercesc_3_2@@UBEHXZ 100357c0 f   xerces-c_3:Op.cpp.obj
 0001:000347c0       ?getAttDefCount@DTDAttDefList@xercesc_3_2@@UBEIXZ 100357c0 f   xerces-c_3:DTDAttDefList.cpp.obj
 0001:000347c0       ?getAttDefCount@SchemaAttDefList@xercesc_3_2@@UBEIXZ 100357c0 f   xerces-c_3:SchemaAttDefList.cpp.obj
 0001:000347c0       ?getGrammar@SchemaValidator@xercesc_3_2@@UBEPAVGrammar@2@XZ 100357c0 f   xerces-c_3:SchemaValidator.cpp.obj
 0001:000347c0       ?getSystemId@XSDLocator@xercesc_3_2@@UBEPB_WXZ 100357c0 f   xerces-c_3:XSDLocator.cpp.obj
 0001:000347c0       ?getBaseURI@DOMLSInputImpl@xercesc_3_2@@UBEPB_WXZ 100357c0 f   xerces-c_3:DOMLSInputImpl.cpp.obj
 0001:000347c0       ?getInputSource@LocalFileXmlInputSource@@UAEPAVInputSource@xercesc_3_2@@XZ 100357c0 f   colorer:LocalFileXmlInputSource.cpp.obj
 0001:000347c0       ?getEnclosingElementName@XMLSchemaDescriptionImpl@xercesc_3_2@@UBEPBVQName@2@XZ 100357c0 f   xerces-c_3:XMLSchemaDescriptionImpl.cpp.obj
 0001:000347c0       ?getType@DatatypeValidator@xercesc_3_2@@QBE?AW4ValidatorType@12@XZ 100357c0 f   xerces-c_3:DatatypeValidatorFactory.cpp.obj
 0001:000347c0       ?getGrammarDescription@DTDGrammar@xercesc_3_2@@UBEPAVXMLGrammarDescription@2@XZ 100357c0 f   xerces-c_3:DTDGrammar.cpp.obj
 0001:000347c0       ?getLocalPart@QName@xercesc_3_2@@QBEPB_WXZ 100357c0 f   xerces-c_3:QName.cpp.obj
 0001:000347c0       ?getSign@XMLAbstractDoubleFloat@xercesc_3_2@@UBEHXZ 100357c0 f   xerces-c_3:XMLAbstractDoubleFloat.cpp.obj
 0001:000347c0       ?getMessage@XMLException@xercesc_3_2@@QBEPB_WXZ 100357c0 f   xerces-c_3:XMLScanner.cpp.obj
 0001:000347c0       ?GetScheduleGroupSegment@ContextBase@details@Concurrency@@QBEPAVScheduleGroupSegmentBase@23@XZ 100357c0 f   libconcrt:ContextBase.obj
 0001:000347c0       ?getPublicId@DOMNotationImpl@xercesc_3_2@@UBEPB_WXZ 100357c0 f   xerces-c_3:DOMNotationImpl.cpp.obj
 0001:000347c0       ?getParameterNames@DOMLSSerializerImpl@xercesc_3_2@@UBEPBVDOMStringList@2@XZ 100357c0 f   xerces-c_3:DOMLSSerializerImpl.cpp.obj
 0001:000347c0       ?getRelatedData@DOMErrorImpl@xercesc_3_2@@UBEPAXXZ 100357c0 f   xerces-c_3:DOMErrorImpl.cpp.obj
 0001:000347d0       ?getLocalName@DOMNodeImpl@xercesc_3_2@@QBEPB_WXZ 100357d0 f i xerces-c_3:DOMNodeImpl.cpp.obj
 0001:000347d0       ?getContentType@UnZip@@UBEPB_WXZ 100357d0 f i colorer:ZipXmlInputSource.cpp.obj
 0001:000347d0       ?getNoParen@Token@xercesc_3_2@@UBEHXZ 100357d0 f i xerces-c_3:RangeToken.cpp.obj
 0001:000347d0       ?getNodeValue@DOMNodeImpl@xercesc_3_2@@QBEPB_WXZ 100357d0 f i xerces-c_3:DOMNodeImpl.cpp.obj
 0001:000347d0       ?createObject@XMLElementDecl@xercesc_3_2@@SAPAVXSerializable@2@PAVMemoryManager@2@@Z 100357d0 f i xerces-c_3:XMLElementDecl.cpp.obj
 0001:000347d0       ?EnterHyperCriticalRegion@ContextBase@details@Concurrency@@QAEHXZ 100357d0 f i libconcrt:ContextBase.obj
 0001:000347d0       ?getNamespace@XSObject@xercesc_3_2@@UBEPB_WXZ 100357d0 f i xerces-c_3:XSObject.cpp.obj
 0001:000347d0       ?ExitHyperCriticalRegion@ContextBase@details@Concurrency@@QAEHXZ 100357d0 f i libconcrt:ContextBase.obj
 0001:000347d0       ?getContentLeafNameTypeVector@SimpleContentModel@xercesc_3_2@@UBEPAVContentLeafNameTypeVector@2@XZ 100357d0 f i xerces-c_3:SimpleContentModel.cpp.obj
 0001:000347d0       ?createObject@XMLAttDefList@xercesc_3_2@@SAPAVXSerializable@2@PAVMemoryManager@2@@Z 100357d0 f i xerces-c_3:XMLAttDefList.cpp.obj
 0001:000347d0       ?getObjectType@SchemaElementDecl@xercesc_3_2@@UBE?AW4objectType@XMLElementDecl@2@XZ 100357d0 f i xerces-c_3:SchemaElementDecl.cpp.obj
 0001:000347d0       ?getContentType@BinFileInputStream@xercesc_3_2@@UBEPB_WXZ 100357d0 f i xerces-c_3:BinFileInputStream.cpp.obj
 0001:000347d0       ?getOwnerDocument@DOMDocumentImpl@xercesc_3_2@@UBEPAVDOMDocument@2@XZ 100357d0 f i xerces-c_3:DOMDocumentImpl.cpp.obj
 0001:000347d0       ?createObject@AbstractStringValidator@xercesc_3_2@@SAPAVXSerializable@2@PAVMemoryManager@2@@Z 100357d0 f i xerces-c_3:AbstractStringValidator.cpp.obj
 0001:000347d0       ?getCurrentGrammarType@DGXMLScanner@xercesc_3_2@@UBE?AW4GrammarType@Grammar@2@XZ 100357d0 f i xerces-c_3:DGXMLScanner.cpp.obj
 0001:000347d0       ?getString@Token@xercesc_3_2@@UBEPB_WXZ 100357d0 f i xerces-c_3:RangeToken.cpp.obj
 0001:000347d0       ?ExitCriticalRegion@ContextBase@details@Concurrency@@QAEHXZ 100357d0 f i libconcrt:ContextBase.obj
 0001:000347d0       ?createObject@AbstractNumericValidator@xercesc_3_2@@SAPAVXSerializable@2@PAVMemoryManager@2@@Z 100357d0 f i xerces-c_3:AbstractNumericValidator.cpp.obj
 0001:000347d0       ?GetDefaultDestination@VirtualProcessor@details@Concurrency@@UAEPAUIExecutionContext@3@XZ 100357d0 f i libconcrt:VirtualProcessor.obj
 0001:000347d0       ?getNamespaceURI@DOMNodeImpl@xercesc_3_2@@QBEPB_WXZ 100357d0 f i xerces-c_3:DOMNodeImpl.cpp.obj
 0001:000347d0       ?getEntityDeclPool@WFXMLScanner@xercesc_3_2@@UAEPAV?$NameIdPool@VDTDEntityDecl@xercesc_3_2@@@2@XZ 100357d0 f i xerces-c_3:WFXMLScanner.cpp.obj
 0001:000347d0       ?getSystemId@XMLDTDDescription@xercesc_3_2@@UBEPB_WXZ 100357d0 f i xerces-c_3:XMLDTDDescription.cpp.obj
 0001:000347d0       ?getGrammarType@DTDGrammar@xercesc_3_2@@UBE?AW4GrammarType@Grammar@2@XZ 100357d0 f i xerces-c_3:DTDGrammar.cpp.obj
 0001:000347d0       ?mem_write_file_func@@YAKPAX0PBXK@Z 100357d0 f i colorer:MemoryFile.cpp.obj
 0001:000347d0       ?getType@IC_Unique@xercesc_3_2@@UBEFXZ 100357d0 f i xerces-c_3:IC_Unique.cpp.obj
 0001:000347d0       ?getReferenceNo@Token@xercesc_3_2@@UBEHXZ 100357d0 f i xerces-c_3:RangeToken.cpp.obj
 0001:000347d0       ?createObject@Grammar@xercesc_3_2@@SAPAVXSerializable@2@PAVMemoryManager@2@@Z 100357d0 f i xerces-c_3:Grammar.cpp.obj
 0001:000347d0       ?getEnumString@BooleanDatatypeValidator@xercesc_3_2@@UBEPBV?$RefArrayVectorOf@_W@2@XZ 100357d0 f i xerces-c_3:BooleanDatatypeValidator.cpp.obj
 0001:000347d0       ?getFirstChild@DOMNodeImpl@xercesc_3_2@@QBEPAVDOMNode@2@XZ 100357d0 f i xerces-c_3:DOMNodeImpl.cpp.obj
 0001:000347d0       ?createObject@DateTimeValidator@xercesc_3_2@@SAPAVXSerializable@2@PAVMemoryManager@2@@Z 100357d0 f i xerces-c_3:DateTimeValidator.cpp.obj
 0001:000347d0       ?getGrammarType@XMLDTDDescription@xercesc_3_2@@UBE?AW4GrammarType@Grammar@2@XZ 100357d0 f i xerces-c_3:XMLDTDDescriptionImpl.cpp.obj
 0001:000347d0       ?getNextSibling@DOMNodeImpl@xercesc_3_2@@QBEPAVDOMNode@2@XZ 100357d0 f i xerces-c_3:DOMNodeImpl.cpp.obj
 0001:000347d0       ?getNamespaceItem@XSObject@xercesc_3_2@@UAEPAVXSNamespaceItem@2@XZ 100357d0 f i xerces-c_3:XSObject.cpp.obj
 0001:000347d0       ?getEncoding@BinInputStream@xercesc_3_2@@UBEPB_WXZ 100357d0 f i xerces-c_3:BinInputStream.cpp.obj
 0001:000347d0       ?getContentType@BinMemInputStream@xercesc_3_2@@UBEPB_WXZ 100357d0 f i xerces-c_3:BinMemInputStream.cpp.obj
 0001:000347d0       ?getPrefix@DOMNodeImpl@xercesc_3_2@@QBEPB_WXZ 100357d0 f i xerces-c_3:DOMNodeImpl.cpp.obj
 0001:000347d0       ?getRelatedException@DOMErrorImpl@xercesc_3_2@@UBEPAXXZ 100357d0 f i xerces-c_3:DOMErrorImpl.cpp.obj
 0001:000347d0       ?getSign@XMLDateTime@xercesc_3_2@@UBEHXZ 100357d0 f i xerces-c_3:XMLDateTime.cpp.obj
 0001:000347d0       ?GetContextKind@ExternalContextBase@details@Concurrency@@EBE?AW4ContextKind@ContextBase@23@XZ 100357d0 f i libconcrt:ExternalContextBase.obj
 0001:000347d0       ?getEntityDeclPool@SGXMLScanner@xercesc_3_2@@UAEPAV?$NameIdPool@VDTDEntityDecl@xercesc_3_2@@@2@XZ 100357d0 f i xerces-c_3:SGXMLScanner.cpp.obj
 0001:000347d0       ?getPreviousSibling@DOMNodeImpl@xercesc_3_2@@QBEPAVDOMNode@2@XZ 100357d0 f i xerces-c_3:DOMNodeImpl.cpp.obj
 0001:000347d0       ?getName@XSObject@xercesc_3_2@@UBEPB_WXZ 100357d0 f i xerces-c_3:XSObject.cpp.obj
 0001:000347d0       ?EnterCriticalRegion@ContextBase@details@Concurrency@@QAEHXZ 100357d0 f i libconcrt:ContextBase.obj
 0001:000347d0       ?createObject@XMLAbstractDoubleFloat@xercesc_3_2@@SAPAVXSerializable@2@PAVMemoryManager@2@@Z 100357d0 f i xerces-c_3:XMLAbstractDoubleFloat.cpp.obj
 0001:000347d0       ?getContentLeafNameTypeVector@MixedContentModel@xercesc_3_2@@UBEPAVContentLeafNameTypeVector@2@XZ 100357d0 f i xerces-c_3:MixedContentModel.cpp.obj
 0001:000347d0       ?getEnumString@AnySimpleTypeDatatypeValidator@xercesc_3_2@@UBEPBV?$RefArrayVectorOf@_W@2@XZ 100357d0 f i xerces-c_3:AnySimpleTypeDatatypeValidator.cpp.obj
 0001:000347d0       ?mem_close_file_func@@YAHPAX0@Z 100357d0 f i colorer:MemoryFile.cpp.obj
 0001:000347d0       ?getAttributes@DOMNodeImpl@xercesc_3_2@@QBEPAVDOMNamedNodeMap@2@XZ 100357d0 f i xerces-c_3:DOMNodeImpl.cpp.obj
 0001:000347d0       ?createObject@XMLDTDDescription@xercesc_3_2@@SAPAVXSerializable@2@PAVMemoryManager@2@@Z 100357d0 f i xerces-c_3:XMLDTDDescription.cpp.obj
 0001:000347d0       ?getInputSource@XmlInputSource@@UAEPAVInputSource@xercesc_3_2@@XZ 100357d0 f i colorer:LocalFileXmlInputSource.cpp.obj
 0001:000347d0       ?createObject@IdentityConstraint@xercesc_3_2@@SAPAVXSerializable@2@PAVMemoryManager@2@@Z 100357d0 f i xerces-c_3:IdentityConstraint.cpp.obj
 0001:000347d0       ?getLastChild@DOMNodeImpl@xercesc_3_2@@QBEPAVDOMNode@2@XZ 100357d0 f i xerces-c_3:DOMNodeImpl.cpp.obj
 0001:000347d0       ?createObject@XMLAttDef@xercesc_3_2@@SAPAVXSerializable@2@PAVMemoryManager@2@@Z 100357d0 f i xerces-c_3:XMLAttDef.cpp.obj
 0001:000347d0       ?PreRunnableSearch@VirtualProcessor@details@Concurrency@@UAEPAVInternalContextBase@23@XZ 100357d0 f i libconcrt:VirtualProcessor.obj
 0001:000347d0       ?createObject@XMLGrammarDescription@xercesc_3_2@@SAPAVXSerializable@2@PAVMemoryManager@2@@Z 100357d0 f i xerces-c_3:XMLGrammarDescription.cpp.obj
 0001:000347d0       ?size@Token@xercesc_3_2@@UBEIXZ 100357d0 f i xerces-c_3:RangeToken.cpp.obj
 0001:000347d0       ?getEntityDeclPool@WFXMLScanner@xercesc_3_2@@UBEPBV?$NameIdPool@VDTDEntityDecl@xercesc_3_2@@@2@XZ 100357d0 f i xerces-c_3:WFXMLScanner.cpp.obj
 0001:000347d0       ?createObject@XMLSchemaDescription@xercesc_3_2@@SAPAVXSerializable@2@PAVMemoryManager@2@@Z 100357d0 f i xerces-c_3:XMLSchemaDescription.cpp.obj
 0001:000347d0       ?getEntityDeclPool@SGXMLScanner@xercesc_3_2@@UBEPBV?$NameIdPool@VDTDEntityDecl@xercesc_3_2@@@2@XZ 100357d0 f i xerces-c_3:SGXMLScanner.cpp.obj
 0001:000347d0       ?getParentNode@DOMNodeImpl@xercesc_3_2@@QBEPAVDOMNode@2@XZ 100357d0 f i xerces-c_3:DOMNodeImpl.cpp.obj
 0001:000347d0       ?createObject@XMLNumber@xercesc_3_2@@SAPAVXSerializable@2@PAVMemoryManager@2@@Z 100357d0 f i xerces-c_3:XMLNumber.cpp.obj
 0001:000347d0       ?createObject@AbstractNumericFacetValidator@xercesc_3_2@@SAPAVXSerializable@2@PAVMemoryManager@2@@Z 100357d0 f i xerces-c_3:AbstractNumericFacetValidator.cpp.obj
 0001:000347d0       ?getContentLeafNameTypeVector@AllContentModel@xercesc_3_2@@UBEPAVContentLeafNameTypeVector@2@XZ 100357d0 f i xerces-c_3:AllContentModel.cpp.obj
 0001:000347d0       ?createObject@XMLEntityDecl@xercesc_3_2@@SAPAVXSerializable@2@PAVMemoryManager@2@@Z 100357d0 f i xerces-c_3:XMLEntityDecl.cpp.obj
 0001:000347d0       ?createObject@DatatypeValidator@xercesc_3_2@@SAPAVXSerializable@2@PAVMemoryManager@2@@Z 100357d0 f i xerces-c_3:DatatypeValidator.cpp.obj
 0001:000347e0       ?getExpandEntityReferences@DOMNodeIteratorImpl@xercesc_3_2@@UAE_NXZ 100357e0 f i xerces-c_3:DOMNodeIteratorImpl.cpp.obj
 0001:000347e0       ?getExpandEntityReferences@DOMTreeWalkerImpl@xercesc_3_2@@UAE_NXZ 100357e0 f i xerces-c_3:DOMTreeWalkerImpl.cpp.obj
 0001:000347e0       ?getIssueFatalErrorIfNotFound@InputSource@xercesc_3_2@@UBE_NXZ 100357e0 f i colorer:LocalFileXmlInputSource.cpp.obj
 0001:000347f0       ?makeStream@LocalFileXmlInputSource@@UBEPAVBinInputStream@xercesc_3_2@@XZ 100357f0 f   colorer:LocalFileXmlInputSource.cpp.obj
 0001:000348e0       ?setIssueFatalErrorIfNotFound@InputSource@xercesc_3_2@@UAEX_N@Z 100358e0 f i colorer:LocalFileXmlInputSource.cpp.obj
 0001:000348f0       ??0UnZip@@QAE@PBEIPBVString@@@Z 100358f0 f   colorer:ZipXmlInputSource.cpp.obj
 0001:00034bf0       ??0ZipXmlInputSource@@QAE@PB_W0@Z 10035bf0 f   colorer:ZipXmlInputSource.cpp.obj
 0001:00034c60       ??0ZipXmlInputSource@@QAE@PB_WPAVXmlInputSource@@@Z 10035c60 f   colorer:ZipXmlInputSource.cpp.obj
 0001:00034ce0       ??_GUnZip@@UAEPAXI@Z       10035ce0 f i colorer:ZipXmlInputSource.cpp.obj
 0001:00034ce0       ??_EUnZip@@UAEPAXI@Z       10035ce0 f i colorer:ZipXmlInputSource.cpp.obj
 0001:00034d30       ??_EZipXmlInputSource@@UAEPAXI@Z 10035d30 f i colorer:ZipXmlInputSource.cpp.obj
 0001:00034d30       ??_GZipXmlInputSource@@UAEPAXI@Z 10035d30 f i colorer:ZipXmlInputSource.cpp.obj
 0001:00034dd0       ?create@ZipXmlInputSource@@AAEXPB_W0@Z 10035dd0 f   colorer:ZipXmlInputSource.cpp.obj
 0001:00035240       ?createRelative@ZipXmlInputSource@@UBE?AV?$unique_ptr@VXmlInputSource@@U?$default_delete@VXmlInputSource@@@std@@@std@@PB_W@Z 10036240 f   colorer:ZipXmlInputSource.cpp.obj
 0001:000352f0       ?curPos@UnZip@@UBE_KXZ     100362f0 f   colorer:ZipXmlInputSource.cpp.obj
 0001:00035300       ?makeStream@ZipXmlInputSource@@UBEPAVBinInputStream@xercesc_3_2@@XZ 10036300 f   colorer:ZipXmlInputSource.cpp.obj
 0001:00035380       ?readBytes@UnZip@@UAEIQAEI@Z 10036380 f   colorer:ZipXmlInputSource.cpp.obj
 0001:000353c0       ??0CharacterClass@@QAE@XZ  100363c0 f   colorer:CharacterClass.cpp.obj
 0001:000353f0       ??1CharacterClass@@QAE@XZ  100363f0 f   colorer:CharacterClass.cpp.obj
 0001:00035410       ?addCategory@CharacterClass@@QAEXABVString@@@Z 10036410 f   colorer:CharacterClass.cpp.obj
 0001:00035540       ?addCategory@CharacterClass@@QAEXW4ECharCategory@@@Z 10036540 f   colorer:CharacterClass.cpp.obj
 0001:00035600       ?addChar@CharacterClass@@QAEX_W@Z 10036600 f   colorer:CharacterClass.cpp.obj
 0001:00035690       ?addClass@CharacterClass@@QAEXABV1@@Z 10036690 f   colorer:CharacterClass.cpp.obj
 0001:00035730       ?clear@CharacterClass@@QAEXXZ 10036730 f   colorer:CharacterClass.cpp.obj
 0001:00035770       ?clearCategory@CharacterClass@@QAEXPBD@Z 10036770 f   colorer:CharacterClass.cpp.obj
 0001:00035840       ?clearCategory@CharacterClass@@QAEXW4ECharCategory@@@Z 10036840 f   colorer:CharacterClass.cpp.obj
 0001:00035900       ?createCharClass@CharacterClass@@SAPAV1@ABVString@@HPAH_N@Z 10036900 f   colorer:CharacterClass.cpp.obj
 0001:00036710       ?fill@CharacterClass@@QAEXXZ 10037710 f   colorer:CharacterClass.cpp.obj
 0001:000367b0       ?inClass@CharacterClass@@QBE_N_W@Z 100377b0 f   colorer:CharacterClass.cpp.obj
 0001:000367e0       ??0KeywordList@@QAE@XZ     100377e0 f   colorer:KeywordList.cpp.obj
 0001:00036890       ??1?$unique_ptr@VCharacterClass@@U?$default_delete@VCharacterClass@@@std@@@std@@QAE@XZ 10037890 f i colorer:KeywordList.cpp.obj
 0001:000368b0       ??1KeywordList@@QAE@XZ     100378b0 f   colorer:KeywordList.cpp.obj
 0001:00036940       ?kwCompare@@YAHPBX0@Z      10037940 f   colorer:KeywordList.cpp.obj
 0001:00036960       ?kwCompareI@@YAHPBX0@Z     10037960 f   colorer:KeywordList.cpp.obj
 0001:00036980       ?sortList@KeywordList@@QAEXXZ 10037980 f   colorer:KeywordList.cpp.obj
 0001:000369c0       ?substrIndex@KeywordList@@QAEXXZ 100379c0 f   colorer:KeywordList.cpp.obj
 0001:00036b40       ??0SchemeNode@@QAE@XZ      10037b40 f   colorer:SchemeNode.cpp.obj
 0001:00036cb0       ??1SchemeNode@@QAE@XZ      10037cb0 f   colorer:SchemeNode.cpp.obj
 0001:00036dd0       ?_Reallocate_exactly@?$vector@PAVVirtualEntry@@V?$allocator@PAVVirtualEntry@@@std@@@std@@AAEXI@Z 10037dd0 f i colorer:SchemeNode.cpp.obj
 0001:00036ea0       ??0ParseCache@@QAE@XZ      10037ea0 f   colorer:TextParserHelpers.cpp.obj
 0001:00036ee0       ??0VTList@@QAE@XZ          10037ee0 f   colorer:TextParserHelpers.cpp.obj
 0001:00036f10       ??1ParseCache@@QAE@XZ      10037f10 f   colorer:TextParserHelpers.cpp.obj
 0001:00036ff0       ??1VTList@@QAE@XZ          10037ff0 f   colorer:TextParserHelpers.cpp.obj
 0001:00037040       ?clear@VTList@@QAEXXZ      10038040 f   colorer:TextParserHelpers.cpp.obj
 0001:000370d0       ?deltree@VTList@@QAEXXZ    100380d0 f   colorer:TextParserHelpers.cpp.obj
 0001:00037140       ?pop@VTList@@QAE_NXZ       10038140 f   colorer:TextParserHelpers.cpp.obj
 0001:000371c0       ?popvirt@VTList@@QAEXXZ    100381c0 f   colorer:TextParserHelpers.cpp.obj
 0001:000371e0       ?push@VTList@@QAE_NPAVSchemeNode@@@Z 100381e0 f   colorer:TextParserHelpers.cpp.obj
 0001:00037280       ?pushvirt@VTList@@QAEPAVSchemeImpl@@PAV2@@Z 10038280 f   colorer:TextParserHelpers.cpp.obj
 0001:00037310       ?restore@VTList@@QAE_NPAPAV?$vector@PAVVirtualEntry@@V?$allocator@PAVVirtualEntry@@@std@@@std@@@Z 10038310 f   colorer:TextParserHelpers.cpp.obj
 0001:000373d0       ?searchLine@ParseCache@@QAEPAV1@HPAPAV1@@Z 100383d0 f   colorer:TextParserHelpers.cpp.obj
 0001:00037450       ?store@VTList@@QAEPAPAV?$vector@PAVVirtualEntry@@V?$allocator@PAVVirtualEntry@@@std@@@std@@XZ 10038450 f   colorer:TextParserHelpers.cpp.obj
 0001:000374b0       ??0FileInputSource@@QAE@PBVString@@PAV0@@Z 100384b0 f   colorer:FileInputSource.cpp.obj
 0001:00037800       ??1InputSource@colorer@@UAE@XZ 10038800 f i colorer:FileInputSource.cpp.obj
 0001:00037810       ??_GFileInputSource@@UAEPAXI@Z 10038810 f i colorer:FileInputSource.cpp.obj
 0001:00037810       ??_EFileInputSource@@UAEPAXI@Z 10038810 f i colorer:FileInputSource.cpp.obj
 0001:00037850       ??_EInputSource@colorer@@UAEPAXI@Z 10038850 f i colorer:FileInputSource.cpp.obj
 0001:00037850       ??_GInputSource@colorer@@UAEPAXI@Z 10038850 f i colorer:FileInputSource.cpp.obj
 0001:00037880       ?closeStream@FileInputSource@@UAEXXZ 10038880 f   colorer:FileInputSource.cpp.obj
 0001:00037900       ?createRelative@FileInputSource@@MAEPAVInputSource@colorer@@PBVString@@@Z 10038900 f   colorer:FileInputSource.cpp.obj
 0001:00037970       ?length@FileInputSource@@UBEHXZ 10038970 f   colorer:FileInputSource.cpp.obj
 0001:000379e0       ?openStream@FileInputSource@@UAEPBEXZ 100389e0 f   colorer:FileInputSource.cpp.obj
 0001:00037b30       ??0JARInputSource@@QAE@PBVString@@PAVInputSource@colorer@@@Z 10038b30 f   colorer:JARInputSource.cpp.obj
 0001:00037cf0       ??_GJARInputSource@@UAEPAXI@Z 10038cf0 f i colorer:JARInputSource.cpp.obj
 0001:00037cf0       ??_EJARInputSource@@UAEPAXI@Z 10038cf0 f i colorer:JARInputSource.cpp.obj
 0001:00037e40       ?closeStream@JARInputSource@@UAEXXZ 10038e40 f   colorer:JARInputSource.cpp.obj
 0001:00037ee0       ?createRelative@JARInputSource@@MAEPAVInputSource@colorer@@PBVString@@@Z 10038ee0 f   colorer:JARInputSource.cpp.obj
 0001:00038050       ?length@JARInputSource@@UBEHXZ 10039050 f   colorer:JARInputSource.cpp.obj
 0001:000380c0       ?openStream@JARInputSource@@UAEPBEXZ 100390c0 f   colorer:JARInputSource.cpp.obj
 0001:000383f0       ??$emplace@U?$pair@VCString@@PAVSharedXmlInputSource@@@std@@@?$_Hash@V?$_Umap_traits@VSString@@PAVSharedXmlInputSource@@V?$_Uhash_compare@VSString@@U?$hash@VSString@@@std@@U?$equal_to@VSString@@@3@@std@@V?$allocator@U?$pair@$$CBVSString@@PAVSharedXmlInputSource@@@std@@@4@$0A@@std@@@std@@QAE?AU?$pair@V?$_List_iterator@V?$_List_val@U?$_List_simple_types@U?$pair@$$CBVSString@@PAVSharedXmlInputSource@@@std@@@std@@@std@@@std@@_N@1@$$QAU?$pair@VCString@@PAVSharedXmlInputSource@@@1@@Z 100393f0 f i colorer:SharedXmlInputSource.cpp.obj
 0001:000385f0       ??1?$pair@VCString@@PAVSharedXmlInputSource@@@std@@QAE@XZ 100395f0 f i colorer:SharedXmlInputSource.cpp.obj
 0001:00038600       ??_GSharedXmlInputSource@@AAEPAXI@Z 10039600 f i colorer:SharedXmlInputSource.cpp.obj
 0001:00038760       ?delref@SharedXmlInputSource@@QAEHXZ 10039760 f   colorer:SharedXmlInputSource.cpp.obj
 0001:00038780       ?getInputSource@SharedXmlInputSource@@QBEPAVInputSource@xercesc_3_2@@XZ 10039780 f   colorer:SharedXmlInputSource.cpp.obj
 0001:00038790       ?getSharedInputSource@SharedXmlInputSource@@SAPAV1@PB_W0@Z 10039790 f   colorer:SharedXmlInputSource.cpp.obj
 0001:00038a50       ?fill_mem_filefunc@@YAXPAUzlib_filefunc_def_s@@PAUMemoryFile@@@Z 10039a50 f   colorer:MemoryFile.cpp.obj
 0001:00038a90       ?mem_error_file_func@@YAHPAX0@Z 10039a90 f   colorer:MemoryFile.cpp.obj
 0001:00038aa0       ?mem_open_file_func@@YAPAXPAXPBDH@Z 10039aa0 f   colorer:MemoryFile.cpp.obj
 0001:00038ac0       ?mem_read_file_func@@YAKPAX00K@Z 10039ac0 f   colorer:MemoryFile.cpp.obj
 0001:00038b00       ?mem_seek_file_func@@YAJPAX0KH@Z 10039b00 f   colorer:MemoryFile.cpp.obj
 0001:00038b50       ?mem_tell_file_func@@YAJPAX0@Z 10039b50 f   colorer:MemoryFile.cpp.obj
 0001:00038b60       ??0BitArray@@QAE@H@Z       10039b60 f   colorer:BitArray.cpp.obj
 0001:00038bc0       ??1BitArray@@QAE@XZ        10039bc0 f   colorer:BitArray.cpp.obj
 0001:00038be0       ?addBitArray@BitArray@@QAEXPADH@Z 10039be0 f   colorer:BitArray.cpp.obj
 0001:00038c50       ?addBitArray@BitArray@@QAEXPAV1@@Z 10039c50 f   colorer:BitArray.cpp.obj
 0001:00038cd0       ?addRange@BitArray@@QAEXHH@Z 10039cd0 f   colorer:BitArray.cpp.obj
 0001:00038dc0       ?clearBit@BitArray@@QAEXH@Z 10039dc0 f   colorer:BitArray.cpp.obj
 0001:00038e20       ?clearBitArray@BitArray@@QAEXPADH@Z 10039e20 f   colorer:BitArray.cpp.obj
 0001:00038e90       ?clearBitArray@BitArray@@QAEXPAV1@@Z 10039e90 f   colorer:BitArray.cpp.obj
 0001:00038f30       ?getBit@BitArray@@QAE_NH@Z 10039f30 f   colorer:BitArray.cpp.obj
 0001:00038f70       ?intersectBitArray@BitArray@@QAEXPAV1@@Z 10039f70 f   colorer:BitArray.cpp.obj
 0001:00039000       ?setBit@BitArray@@QAEXH@Z  1003a000 f   colorer:BitArray.cpp.obj
 0001:00039060       ??_GSharedInputSource@@EAEPAXI@Z 1003a060 f i colorer:SharedInputSource.cpp.obj
 0001:00039060       ??_ESharedInputSource@@EAEPAXI@Z 1003a060 f i colorer:SharedInputSource.cpp.obj
 0001:000391a0       ?closeStream@SharedInputSource@@UAEXXZ 1003a1a0 f i colorer:SharedInputSource.cpp.obj
 0001:000391b0       ?getInputSource@SharedInputSource@@SAPAV1@PBVString@@PAVInputSource@colorer@@@Z 1003a1b0 f   colorer:SharedInputSource.cpp.obj
 0001:00039380       ?getLocation@SharedInputSource@@UBEPBVString@@XZ 1003a380 f i colorer:SharedInputSource.cpp.obj
 0001:00039390       ?length@SharedInputSource@@UBEHXZ 1003a390 f i colorer:SharedInputSource.cpp.obj
 0001:000393a0       ?openStream@SharedInputSource@@UAEPBEXZ 1003a3a0 f i colorer:SharedInputSource.cpp.obj
 0001:000393b0       ??0RuntimeException@xercesc_3_2@@QAE@ABV01@@Z 1003a3b0 f i xerces-c_3:PlatformUtils.cpp.obj
 0001:000393d0       ??0RuntimeException@xercesc_3_2@@QAE@QBD_KW4Codes@XMLExcepts@1@PAVMemoryManager@1@@Z 1003a3d0 f i xerces-c_3:PlatformUtils.cpp.obj
 0001:00039440       ??0XMLPlatformUtilsException@xercesc_3_2@@QAE@ABV01@@Z 1003a440 f i xerces-c_3:PlatformUtils.cpp.obj
 0001:00039460       ??0XMLPlatformUtilsException@xercesc_3_2@@QAE@QBD_KW4Codes@XMLExcepts@1@PAVMemoryManager@1@@Z 1003a460 f i xerces-c_3:PlatformUtils.cpp.obj
 0001:000394d0       ??1RuntimeException@xercesc_3_2@@UAE@XZ 1003a4d0 f i xerces-c_3:PlatformUtils.cpp.obj
 0001:000394e0       ??1XMLPlatformUtilsException@xercesc_3_2@@UAE@XZ 1003a4e0 f i xerces-c_3:PlatformUtils.cpp.obj
 0001:000394f0       ??_GDefaultPanicHandler@xercesc_3_2@@UAEPAXI@Z 1003a4f0 f i xerces-c_3:PlatformUtils.cpp.obj
 0001:000394f0       ??_EDefaultPanicHandler@xercesc_3_2@@UAEPAXI@Z 1003a4f0 f i xerces-c_3:PlatformUtils.cpp.obj
 0001:00039530       ??_EMemoryManager@xercesc_3_2@@UAEPAXI@Z 1003a530 f i xerces-c_3:PlatformUtils.cpp.obj
 0001:00039530       ??_GMemoryManager@xercesc_3_2@@UAEPAXI@Z 1003a530 f i xerces-c_3:PlatformUtils.cpp.obj
 0001:00039530       ??_GMemoryManagerImpl@xercesc_3_2@@UAEPAXI@Z 1003a530 f i xerces-c_3:PlatformUtils.cpp.obj
 0001:00039530       ??_EMemoryManagerImpl@xercesc_3_2@@UAEPAXI@Z 1003a530 f i xerces-c_3:PlatformUtils.cpp.obj
 0001:00039560       ??_EPanicHandler@xercesc_3_2@@UAEPAXI@Z 1003a560 f i xerces-c_3:PlatformUtils.cpp.obj
 0001:00039560       ??_GPanicHandler@xercesc_3_2@@UAEPAXI@Z 1003a560 f i xerces-c_3:PlatformUtils.cpp.obj
 0001:00039590       ??_GRuntimeException@xercesc_3_2@@UAEPAXI@Z 1003a590 f i xerces-c_3:PlatformUtils.cpp.obj
 0001:00039590       ??_ERuntimeException@xercesc_3_2@@UAEPAXI@Z 1003a590 f i xerces-c_3:PlatformUtils.cpp.obj
 0001:000395d0       ??_EXMLPlatformUtilsException@xercesc_3_2@@UAEPAXI@Z 1003a5d0 f i xerces-c_3:PlatformUtils.cpp.obj
 0001:000395d0       ??_GXMLPlatformUtilsException@xercesc_3_2@@UAEPAXI@Z 1003a5d0 f i xerces-c_3:PlatformUtils.cpp.obj
 0001:00039610       ?Initialize@XMLPlatformUtils@xercesc_3_2@@SAXQBD0QAVPanicHandler@2@QAVMemoryManager@2@@Z 1003a610 f   xerces-c_3:PlatformUtils.cpp.obj
 0001:000398b0       ?Terminate@XMLPlatformUtils@xercesc_3_2@@SAXXZ 1003a8b0 f   xerces-c_3:PlatformUtils.cpp.obj
 0001:00039a00       ?closeFile@XMLPlatformUtils@xercesc_3_2@@SAXPAXQAVMemoryManager@2@@Z 1003aa00 f   xerces-c_3:PlatformUtils.cpp.obj
 0001:00039a50       ?closeMutex@XMLPlatformUtils@xercesc_3_2@@SAXQAXQAVMemoryManager@2@@Z 1003aa50 f   xerces-c_3:PlatformUtils.cpp.obj
 0001:00039a90       ?curFilePos@XMLPlatformUtils@xercesc_3_2@@SA_KPAXQAVMemoryManager@2@@Z 1003aa90 f   xerces-c_3:PlatformUtils.cpp.obj
 0001:00039ae0       ?duplicate@RuntimeException@xercesc_3_2@@UBEPAVXMLException@2@XZ 1003aae0 f i xerces-c_3:PlatformUtils.cpp.obj
 0001:00039b60       ?duplicate@XMLPlatformUtilsException@xercesc_3_2@@UBEPAVXMLException@2@XZ 1003ab60 f i xerces-c_3:PlatformUtils.cpp.obj
 0001:00039be0       ?fileSize@XMLPlatformUtils@xercesc_3_2@@SA_KPAXQAVMemoryManager@2@@Z 1003abe0 f   xerces-c_3:PlatformUtils.cpp.obj
 0001:00039c30       ?getCurrentDirectory@XMLPlatformUtils@xercesc_3_2@@SAPA_WQAVMemoryManager@2@@Z 1003ac30 f   xerces-c_3:PlatformUtils.cpp.obj
 0001:00039c80       ?getType@RuntimeException@xercesc_3_2@@UBEPB_WXZ 1003ac80 f i xerces-c_3:PlatformUtils.cpp.obj
 0001:00039c90       ?getType@XMLPlatformUtilsException@xercesc_3_2@@UBEPB_WXZ 1003ac90 f i xerces-c_3:PlatformUtils.cpp.obj
 0001:00039ca0       ?isRelative@XMLPlatformUtils@xercesc_3_2@@SA_NQB_WQAVMemoryManager@2@@Z 1003aca0 f   xerces-c_3:PlatformUtils.cpp.obj
 0001:00039cf0       ?loadAMsgSet@XMLPlatformUtils@xercesc_3_2@@CAPAVXMLMsgLoader@2@QB_W@Z 1003acf0 f   xerces-c_3:PlatformUtils.cpp.obj
 0001:00039da0       ?loadMsgSet@XMLPlatformUtils@xercesc_3_2@@SAPAVXMLMsgLoader@2@QB_W@Z 1003ada0 f   xerces-c_3:PlatformUtils.cpp.obj
 0001:00039db0       ?lockMutex@XMLPlatformUtils@xercesc_3_2@@SAXQAX@Z 1003adb0 f   xerces-c_3:PlatformUtils.cpp.obj
 0001:00039df0       ?makeMutex@XMLPlatformUtils@xercesc_3_2@@SAPAXQAVMemoryManager@2@@Z 1003adf0 f   xerces-c_3:PlatformUtils.cpp.obj
 0001:00039e30       ?openFile@XMLPlatformUtils@xercesc_3_2@@SAPAXQB_WQAVMemoryManager@2@@Z 1003ae30 f   xerces-c_3:PlatformUtils.cpp.obj
 0001:00039e80       ?openFileToWrite@XMLPlatformUtils@xercesc_3_2@@SAPAXQB_WQAVMemoryManager@2@@Z 1003ae80 f   xerces-c_3:PlatformUtils.cpp.obj
 0001:00039ed0       ?panic@XMLPlatformUtils@xercesc_3_2@@SAXW4PanicReasons@PanicHandler@2@@Z 1003aed0 f   xerces-c_3:PlatformUtils.cpp.obj
 0001:00039ef0       ?readFileBuffer@XMLPlatformUtils@xercesc_3_2@@SAIPAXIQAEQAVMemoryManager@2@@Z 1003aef0 f   xerces-c_3:PlatformUtils.cpp.obj
 0001:00039f40       ?removeDotDotSlash@XMLPlatformUtils@xercesc_3_2@@SAXQA_WQAVMemoryManager@2@@Z 1003af40 f   xerces-c_3:PlatformUtils.cpp.obj
 0001:0003a120       ?removeDotSlash@XMLPlatformUtils@xercesc_3_2@@SAXQA_WQAVMemoryManager@2@@Z 1003b120 f   xerces-c_3:PlatformUtils.cpp.obj
 0001:0003a250       ?unlockMutex@XMLPlatformUtils@xercesc_3_2@@SAXQAX@Z 1003b250 f   xerces-c_3:PlatformUtils.cpp.obj
 0001:0003a290       ?weavePaths@XMLPlatformUtils@xercesc_3_2@@SAPA_WQB_W0QAVMemoryManager@2@@Z 1003b290 f   xerces-c_3:PlatformUtils.cpp.obj
 0001:0003a4c0       ?writeBufferToFile@XMLPlatformUtils@xercesc_3_2@@SAXQAXIQBEQAVMemoryManager@2@@Z 1003b4c0 f   xerces-c_3:PlatformUtils.cpp.obj
 0001:0003a510       ??0IOException@xercesc_3_2@@QAE@ABV01@@Z 1003b510 f i xerces-c_3:XercesDOMParser.cpp.obj
 0001:0003a530       ??0IOException@xercesc_3_2@@QAE@QBD_KW4Codes@XMLExcepts@1@PAVMemoryManager@1@@Z 1003b530 f i xerces-c_3:XercesDOMParser.cpp.obj
 0001:0003a5a0       ??0SAXException@xercesc_3_2@@QAE@ABV01@@Z 1003b5a0 f i xerces-c_3:XercesDOMParser.cpp.obj
 0001:0003a610       ??0XercesDOMParser@xercesc_3_2@@QAE@QAVXMLValidator@1@QAVMemoryManager@1@QAVXMLGrammarPool@1@@Z 1003b610 f   xerces-c_3:XercesDOMParser.cpp.obj
 0001:0003a670       ??1IOException@xercesc_3_2@@UAE@XZ 1003b670 f i xerces-c_3:XercesDOMParser.cpp.obj
 0001:0003a680       ??1SAXException@xercesc_3_2@@UAE@XZ 1003b680 f i xerces-c_3:XercesDOMParser.cpp.obj
 0001:0003a6d0       ??1XercesDOMParser@xercesc_3_2@@UAE@XZ 1003b6d0 f   xerces-c_3:XercesDOMParser.cpp.obj
 0001:0003a6f7       ??_EXercesDOMParser@xercesc_3_2@@W3AEPAXI@Z 1003b6f7 f i xerces-c_3:XercesDOMParser.cpp.obj
 0001:0003a6ff       ??_EXercesDOMParser@xercesc_3_2@@W7AEPAXI@Z 1003b6ff f i xerces-c_3:XercesDOMParser.cpp.obj
 0001:0003a707       ??_EXercesDOMParser@xercesc_3_2@@WBA@AEPAXI@Z 1003b707 f i xerces-c_3:XercesDOMParser.cpp.obj
 0001:0003a70f       ??_EXercesDOMParser@xercesc_3_2@@WM@AEPAXI@Z 1003b70f f i xerces-c_3:XercesDOMParser.cpp.obj
 0001:0003a720       ??_EIOException@xercesc_3_2@@UAEPAXI@Z 1003b720 f i xerces-c_3:XercesDOMParser.cpp.obj
 0001:0003a720       ??_GIOException@xercesc_3_2@@UAEPAXI@Z 1003b720 f i xerces-c_3:XercesDOMParser.cpp.obj
 0001:0003a760       ??_GSAXException@xercesc_3_2@@UAEPAXI@Z 1003b760 f i xerces-c_3:XercesDOMParser.cpp.obj
 0001:0003a760       ??_ESAXException@xercesc_3_2@@UAEPAXI@Z 1003b760 f i xerces-c_3:XercesDOMParser.cpp.obj
 0001:0003a7f0       ??_EXercesDOMParser@xercesc_3_2@@UAEPAXI@Z 1003b7f0 f i xerces-c_3:XercesDOMParser.cpp.obj
 0001:0003a7f0       ??_GXercesDOMParser@xercesc_3_2@@UAEPAXI@Z 1003b7f0 f i xerces-c_3:XercesDOMParser.cpp.obj
 0001:0003a850       ?duplicate@IOException@xercesc_3_2@@UBEPAVXMLException@2@XZ 1003b850 f i xerces-c_3:XercesDOMParser.cpp.obj
 0001:0003a8d0       ?error@XercesDOMParser@xercesc_3_2@@UAEXIQB_WW4ErrTypes@XMLErrorReporter@2@000_K2@Z 1003b8d0 f   xerces-c_3:XercesDOMParser.cpp.obj
 0001:0003a990       ?customNodeSerialize@DOMLSSerializerImpl@xercesc_3_2@@MAE_NQBVDOMNode@2@H@Z 1003b990 f i xerces-c_3:DOMLSSerializerImpl.cpp.obj
 0001:0003a990       ?expandSystemId@DOMLSParserImpl@xercesc_3_2@@UAE_NQB_WAAVXMLBuffer@2@@Z 1003b990 f i xerces-c_3:DOMLSParserImpl.cpp.obj
 0001:0003a990       ?expandSystemId@XercesDOMParser@xercesc_3_2@@UAE_NQB_WAAVXMLBuffer@2@@Z 1003b990 f i xerces-c_3:XercesDOMParser.cpp.obj
 0001:0003a9a0       ?getType@IOException@xercesc_3_2@@UBEPB_WXZ 1003b9a0 f i xerces-c_3:XercesDOMParser.cpp.obj
 0001:0003a9b0       ?getURIText@XercesDOMParser@xercesc_3_2@@QBEPB_WI@Z 1003b9b0 f   xerces-c_3:XercesDOMParser.cpp.obj
 0001:0003a9c0       ?resolveEntity@XercesDOMParser@xercesc_3_2@@UAEPAVInputSource@2@PAVXMLResourceIdentifier@2@@Z 1003b9c0 f   xerces-c_3:XercesDOMParser.cpp.obj
 0001:0003a9f0       ?setErrorHandler@XercesDOMParser@xercesc_3_2@@QAEXQAVErrorHandler@2@@Z 1003b9f0 f   xerces-c_3:XercesDOMParser.cpp.obj
 0001:0003aa20       ?setXMLEntityResolver@XercesDOMParser@xercesc_3_2@@QAEXQAVXMLEntityResolver@2@@Z 1003ba20 f   xerces-c_3:XercesDOMParser.cpp.obj
 0001:0003aa60       ??0AbstractDOMParser@xercesc_3_2@@IAE@QAVXMLValidator@1@QAVMemoryManager@1@QAVXMLGrammarPool@1@@Z 1003ba60 f   xerces-c_3:AbstractDOMParser.cpp.obj
 0001:0003adb0       ??0ArrayIndexOutOfBoundsException@xercesc_3_2@@QAE@ABV01@@Z 1003bdb0 f i xerces-c_3:AbstractDOMParser.cpp.obj
 0001:0003add0       ??0ArrayIndexOutOfBoundsException@xercesc_3_2@@QAE@QBD_KW4Codes@XMLExcepts@1@PAVMemoryManager@1@@Z 1003bdd0 f i xerces-c_3:AbstractDOMParser.cpp.obj
 0001:0003ae40       ??1?$JanitorMemFunCall@VDOMLSParserImpl@xercesc_3_2@@@xercesc_3_2@@QAE@XZ 1003be40 f i xerces-c_3:DOMLSParserImpl.cpp.obj
 0001:0003ae40       ??1?$JanitorMemFunCall@VSchemaGrammar@xercesc_3_2@@@xercesc_3_2@@QAE@XZ 1003be40 f i xerces-c_3:SchemaGrammar.cpp.obj
 0001:0003ae40       ??1?$JanitorMemFunCall@VXMLUri@xercesc_3_2@@@xercesc_3_2@@QAE@XZ 1003be40 f i xerces-c_3:XMLUri.cpp.obj
 0001:0003ae40       ??1?$JanitorMemFunCall@VXMLScanner@xercesc_3_2@@@xercesc_3_2@@QAE@XZ 1003be40 f i xerces-c_3:XMLScanner.cpp.obj
 0001:0003ae40       ??1?$JanitorMemFunCall@VUnionDatatypeValidator@xercesc_3_2@@@xercesc_3_2@@QAE@XZ 1003be40 f i xerces-c_3:UnionDatatypeValidator.cpp.obj
 0001:0003ae40       ??1?$JanitorMemFunCall@VIdentityConstraint@xercesc_3_2@@@xercesc_3_2@@QAE@XZ 1003be40 f i xerces-c_3:IdentityConstraint.cpp.obj
 0001:0003ae40       ??1?$JanitorMemFunCall@VXMLGrammarPoolImpl@xercesc_3_2@@@xercesc_3_2@@QAE@XZ 1003be40 f i xerces-c_3:XMLGrammarPoolImpl.cpp.obj
 0001:0003ae40       ??1?$JanitorMemFunCall@VDOMXPathExpressionImpl@xercesc_3_2@@@xercesc_3_2@@QAE@XZ 1003be40 f i xerces-c_3:DOMXPathExpressionImpl.cpp.obj
 0001:0003ae40       ??1?$JanitorMemFunCall@VAbstractDOMParser@xercesc_3_2@@@xercesc_3_2@@QAE@XZ 1003be40 f i xerces-c_3:AbstractDOMParser.cpp.obj
 0001:0003ae40       ??1?$JanitorMemFunCall@VDGXMLScanner@xercesc_3_2@@@xercesc_3_2@@QAE@XZ 1003be40 f i xerces-c_3:DGXMLScanner.cpp.obj
 0001:0003ae40       ??1?$JanitorMemFunCall@VReaderMgr@xercesc_3_2@@@xercesc_3_2@@QAE@XZ 1003be40 f i xerces-c_3:XMLScanner.cpp.obj
 0001:0003ae40       ??1?$JanitorMemFunCall@VQName@xercesc_3_2@@@xercesc_3_2@@QAE@XZ 1003be40 f i xerces-c_3:QName.cpp.obj
 0001:0003ae40       ??1?$JanitorMemFunCall@VIGXMLScanner@xercesc_3_2@@@xercesc_3_2@@QAE@XZ 1003be40 f i xerces-c_3:IGXMLScanner.cpp.obj
 0001:0003ae40       ??1?$JanitorMemFunCall@VXPathMatcher@xercesc_3_2@@@xercesc_3_2@@QAE@XZ 1003be40 f i xerces-c_3:XPathMatcher.cpp.obj
 0001:0003ae40       ??1?$JanitorMemFunCall@VXercesXPath@xercesc_3_2@@@xercesc_3_2@@QAE@XZ 1003be40 f i xerces-c_3:XercesXPath.cpp.obj
 0001:0003ae40       ??1?$JanitorMemFunCall@VXMLURL@xercesc_3_2@@@xercesc_3_2@@QAE@XZ 1003be40 f i xerces-c_3:XMLURL.cpp.obj
 0001:0003ae40       ??1?$JanitorMemFunCall@VIdentityConstraintHandler@xercesc_3_2@@@xercesc_3_2@@QAE@XZ 1003be40 f i xerces-c_3:IdentityConstraintHandler.cpp.obj
 0001:0003ae40       ??1?$JanitorMemFunCall@VWFXMLScanner@xercesc_3_2@@@xercesc_3_2@@QAE@XZ 1003be40 f i xerces-c_3:WFXMLScanner.cpp.obj
 0001:0003ae40       ??1?$JanitorMemFunCall@VXMLAttDef@xercesc_3_2@@@xercesc_3_2@@QAE@XZ 1003be40 f i xerces-c_3:XMLAttDef.cpp.obj
 0001:0003ae40       ??1?$JanitorMemFunCall@VRegularExpression@xercesc_3_2@@@xercesc_3_2@@QAE@XZ 1003be40 f i xerces-c_3:RegularExpression.cpp.obj
 0001:0003ae40       ??1?$JanitorMemFunCall@VXMLEntityDecl@xercesc_3_2@@@xercesc_3_2@@QAE@XZ 1003be40 f i xerces-c_3:XMLEntityDecl.cpp.obj
 0001:0003ae40       ??1?$JanitorMemFunCall@VXMLBigDecimal@xercesc_3_2@@@xercesc_3_2@@QAE@XZ 1003be40 f i xerces-c_3:XMLBigDecimal.cpp.obj
 0001:0003ae40       ??1?$JanitorMemFunCall@VDOMXPathResultImpl@xercesc_3_2@@@xercesc_3_2@@QAE@XZ 1003be40 f i xerces-c_3:DOMXPathExpressionImpl.cpp.obj
 0001:0003ae40       ??1?$JanitorMemFunCall@VSGXMLScanner@xercesc_3_2@@@xercesc_3_2@@QAE@XZ 1003be40 f i xerces-c_3:SGXMLScanner.cpp.obj
 0001:0003ae40       ??1?$JanitorMemFunCall@VXMLNotationDecl@xercesc_3_2@@@xercesc_3_2@@QAE@XZ 1003be40 f i xerces-c_3:XMLNotationDecl.cpp.obj
 0001:0003ae90       ??1AbstractDOMParser@xercesc_3_2@@UAE@XZ 1003be90 f   xerces-c_3:AbstractDOMParser.cpp.obj
 0001:0003af20       ??1ArrayIndexOutOfBoundsException@xercesc_3_2@@UAE@XZ 1003bf20 f i xerces-c_3:AbstractDOMParser.cpp.obj
 0001:0003af30       ??1DocTypeHandler@xercesc_3_2@@UAE@XZ 1003bf30 f i xerces-c_3:AbstractDOMParser.cpp.obj
 0001:0003af40       ??1PSVIHandler@xercesc_3_2@@UAE@XZ 1003bf40 f i xerces-c_3:AbstractDOMParser.cpp.obj
 0001:0003af50       ??1XMLBufBid@xercesc_3_2@@QAE@XZ 1003bf50 f i xerces-c_3:AbstractDOMParser.cpp.obj
 0001:0003af90       ??1XMLDocumentHandler@xercesc_3_2@@UAE@XZ 1003bf90 f i xerces-c_3:AbstractDOMParser.cpp.obj
 0001:0003afa0       ??1XMLEntityHandler@xercesc_3_2@@UAE@XZ 1003bfa0 f i xerces-c_3:AbstractDOMParser.cpp.obj
 0001:0003afb0       ??1AnnotationErrorReporter@xercesc_3_2@@UAE@XZ 1003bfb0 f i xerces-c_3:TraverseSchema.cpp.obj
 0001:0003afb0       ??1XMLErrorReporter@xercesc_3_2@@UAE@XZ 1003bfb0 f i xerces-c_3:AbstractDOMParser.cpp.obj
 0001:0003afc0       ??2@YAPAXIPAVDOMDocument@xercesc_3_2@@@Z 1003bfc0 f i xerces-c_3:AbstractDOMParser.cpp.obj
 0001:0003afe9       ??_EAbstractDOMParser@xercesc_3_2@@W3AEPAXI@Z 1003bfe9 f i xerces-c_3:AbstractDOMParser.cpp.obj
 0001:0003aff1       ??_EAbstractDOMParser@xercesc_3_2@@W7AEPAXI@Z 1003bff1 f i xerces-c_3:AbstractDOMParser.cpp.obj
 0001:0003aff9       ??_EAbstractDOMParser@xercesc_3_2@@WBA@AEPAXI@Z 1003bff9 f i xerces-c_3:AbstractDOMParser.cpp.obj
 0001:0003b001       ??_EAbstractDOMParser@xercesc_3_2@@WM@AEPAXI@Z 1003c001 f i xerces-c_3:AbstractDOMParser.cpp.obj
 0001:0003b010       ??_E?$BaseRefVectorOf@VDOMDocumentImpl@xercesc_3_2@@@xercesc_3_2@@UAEPAXI@Z 1003c010 f i xerces-c_3:AbstractDOMParser.cpp.obj
 0001:0003b010       ??_G?$BaseRefVectorOf@VDOMDocumentImpl@xercesc_3_2@@@xercesc_3_2@@UAEPAXI@Z 1003c010 f i xerces-c_3:AbstractDOMParser.cpp.obj
 0001:0003b050       ??_G?$RefVectorOf@VDOMDocumentImpl@xercesc_3_2@@@xercesc_3_2@@UAEPAXI@Z 1003c050 f i xerces-c_3:AbstractDOMParser.cpp.obj
 0001:0003b050       ??_E?$RefVectorOf@VDOMDocumentImpl@xercesc_3_2@@@xercesc_3_2@@UAEPAXI@Z 1003c050 f i xerces-c_3:AbstractDOMParser.cpp.obj
 0001:0003b0f0       ??_EAbstractDOMParser@xercesc_3_2@@UAEPAXI@Z 1003c0f0 f i xerces-c_3:AbstractDOMParser.cpp.obj
 0001:0003b0f0       ??_GAbstractDOMParser@xercesc_3_2@@UAEPAXI@Z 1003c0f0 f i xerces-c_3:AbstractDOMParser.cpp.obj
 0001:0003b1c0       ??_EArrayIndexOutOfBoundsException@xercesc_3_2@@UAEPAXI@Z 1003c1c0 f i xerces-c_3:AbstractDOMParser.cpp.obj
 0001:0003b1c0       ??_GArrayIndexOutOfBoundsException@xercesc_3_2@@UAEPAXI@Z 1003c1c0 f i xerces-c_3:AbstractDOMParser.cpp.obj
 0001:0003b200       ??_GDocTypeHandler@xercesc_3_2@@UAEPAXI@Z 1003c200 f i xerces-c_3:AbstractDOMParser.cpp.obj
 0001:0003b200       ??_EDocTypeHandler@xercesc_3_2@@UAEPAXI@Z 1003c200 f i xerces-c_3:AbstractDOMParser.cpp.obj
 0001:0003b230       ??_GPSVIHandler@xercesc_3_2@@UAEPAXI@Z 1003c230 f i xerces-c_3:AbstractDOMParser.cpp.obj
 0001:0003b230       ??_EPSVIHandler@xercesc_3_2@@UAEPAXI@Z 1003c230 f i xerces-c_3:AbstractDOMParser.cpp.obj
 0001:0003b260       ??_GXMLDocumentHandler@xercesc_3_2@@UAEPAXI@Z 1003c260 f i xerces-c_3:AbstractDOMParser.cpp.obj
 0001:0003b260       ??_EXMLDocumentHandler@xercesc_3_2@@UAEPAXI@Z 1003c260 f i xerces-c_3:AbstractDOMParser.cpp.obj
 0001:0003b290       ??_EXMLEntityHandler@xercesc_3_2@@UAEPAXI@Z 1003c290 f i xerces-c_3:AbstractDOMParser.cpp.obj
 0001:0003b290       ??_GXMLEntityHandler@xercesc_3_2@@UAEPAXI@Z 1003c290 f i xerces-c_3:AbstractDOMParser.cpp.obj
 0001:0003b2c0       ??_GXMLErrorReporter@xercesc_3_2@@UAEPAXI@Z 1003c2c0 f i xerces-c_3:AbstractDOMParser.cpp.obj
 0001:0003b2c0       ??_EXMLErrorReporter@xercesc_3_2@@UAEPAXI@Z 1003c2c0 f i xerces-c_3:AbstractDOMParser.cpp.obj
 0001:0003b2f0       ?TextDecl@AbstractDOMParser@xercesc_3_2@@UAEXQB_W0@Z 1003c2f0 f   xerces-c_3:AbstractDOMParser.cpp.obj
 0001:0003b320       ?XMLDecl@AbstractDOMParser@xercesc_3_2@@UAEXQB_W000@Z 1003c320 f   xerces-c_3:AbstractDOMParser.cpp.obj
 0001:0003b3c0       ?adoptDocument@AbstractDOMParser@xercesc_3_2@@QAEPAVDOMDocument@2@XZ 1003c3c0 f   xerces-c_3:AbstractDOMParser.cpp.obj
 0001:0003b3e0       ?append@XMLBuffer@xercesc_3_2@@QAEXQB_W@Z 1003c3e0 f i xerces-c_3:AbstractDOMParser.cpp.obj
 0001:0003b430       ?append@XMLBuffer@xercesc_3_2@@QAEXQB_WI@Z 1003c430 f i xerces-c_3:AbstractDOMParser.cpp.obj
 0001:0003b4c0       ?append@XMLBuffer@xercesc_3_2@@QAEX_W@Z 1003c4c0 f i xerces-c_3:AbstractDOMParser.cpp.obj
 0001:0003b4f0       ?attDef@AbstractDOMParser@xercesc_3_2@@UAEXABVDTDElementDecl@2@ABVDTDAttDef@2@_N@Z 1003c4f0 f   xerces-c_3:AbstractDOMParser.cpp.obj
 0001:0003b8d0       ?cleanUp@AbstractDOMParser@xercesc_3_2@@AAEXXZ 1003c8d0 f   xerces-c_3:AbstractDOMParser.cpp.obj
 0001:0003b940       ?cleanup@?$BaseRefVectorOf@VXMLEntityDecl@xercesc_3_2@@@xercesc_3_2@@UAEXXZ 1003c940 f i xerces-c_3:ReaderMgr.cpp.obj
 0001:0003b940       ?cleanup@?$BaseRefVectorOf@VXSMultiValueFacet@xercesc_3_2@@@xercesc_3_2@@UAEXXZ 1003c940 f i xerces-c_3:XSObjectFactory.cpp.obj
 0001:0003b940       ?cleanup@?$BaseRefVectorOf@VXSFacet@xercesc_3_2@@@xercesc_3_2@@UAEXXZ 1003c940 f i xerces-c_3:XSObjectFactory.cpp.obj
 0001:0003b940       ?cleanup@?$BaseRefVectorOf@VDOMImplementationSource@xercesc_3_2@@@xercesc_3_2@@UAEXXZ 1003c940 f i xerces-c_3:DOMImplementationRegistry.cpp.obj
 0001:0003b940       ?cleanup@?$BaseRefVectorOf@VXSIDCDefinition@xercesc_3_2@@@xercesc_3_2@@UAEXXZ 1003c940 f i xerces-c_3:XSObjectFactory.cpp.obj
 0001:0003b940       ?cleanup@?$BaseRefVectorOf@VXercesStep@xercesc_3_2@@@xercesc_3_2@@UAEXXZ 1003c940 f i xerces-c_3:XTemplateSerializer.cpp.obj
 0001:0003b940       ?cleanup@?$BaseRefVectorOf@VDOMDocumentImpl@xercesc_3_2@@@xercesc_3_2@@UAEXXZ 1003c940 f i xerces-c_3:AbstractDOMParser.cpp.obj
 0001:0003b940       ?cleanup@?$BaseRefVectorOf@VXSSimpleTypeDefinition@xercesc_3_2@@@xercesc_3_2@@UAEXXZ 1003c940 f i xerces-c_3:XSObjectFactory.cpp.obj
 0001:0003b940       ?cleanup@?$BaseRefVectorOf@VXMLElementDecl@xercesc_3_2@@@xercesc_3_2@@UAEXXZ 1003c940 f i xerces-c_3:WFXMLScanner.cpp.obj
 0001:0003b940       ?cleanup@?$BaseRefVectorOf@VSchemaElementDecl@xercesc_3_2@@@xercesc_3_2@@UAEXXZ 1003c940 f i xerces-c_3:XTemplateSerializer.cpp.obj
 0001:0003b940       ?cleanup@?$BaseRefVectorOf@VKVStringPair@xercesc_3_2@@@xercesc_3_2@@UAEXXZ 1003c940 f i xerces-c_3:SGXMLScanner.cpp.obj
 0001:0003b940       ?cleanup@?$BaseRefVectorOf@VXSAttributeUse@xercesc_3_2@@@xercesc_3_2@@UAEXXZ 1003c940 f i xerces-c_3:XSObjectFactory.cpp.obj
 0001:0003b940       ?cleanup@?$BaseRefVectorOf@VDOMRangeImpl@xercesc_3_2@@@xercesc_3_2@@UAEXXZ 1003c940 f i xerces-c_3:DOMDocumentImpl.cpp.obj
 0001:0003b940       ?cleanup@?$BaseRefVectorOf@VIC_Field@xercesc_3_2@@@xercesc_3_2@@UAEXXZ 1003c940 f i xerces-c_3:XTemplateSerializer.cpp.obj
 0001:0003b940       ?cleanup@?$BaseRefVectorOf@VDOMNode@xercesc_3_2@@@xercesc_3_2@@UAEXXZ 1003c940 f i xerces-c_3:DOMDocumentImpl.cpp.obj
 0001:0003b940       ?cleanup@?$BaseRefVectorOf@VDatatypeValidator@xercesc_3_2@@@xercesc_3_2@@UAEXXZ 1003c940 f i xerces-c_3:XTemplateSerializer.cpp.obj
 0001:0003b940       ?cleanup@?$BaseRefVectorOf@VXSParticle@xercesc_3_2@@@xercesc_3_2@@UAEXXZ 1003c940 f i xerces-c_3:XSObjectFactory.cpp.obj
 0001:0003b940       ?cleanup@?$BaseRefVectorOf@VXPathMatcher@xercesc_3_2@@@xercesc_3_2@@UAEXXZ 1003c940 f i xerces-c_3:XPathMatcherStack.cpp.obj
 0001:0003b940       ?cleanup@?$BaseRefVectorOf@VXSObject@xercesc_3_2@@@xercesc_3_2@@UAEXXZ 1003c940 f i xerces-c_3:XSModel.cpp.obj
 0001:0003b940       ?cleanup@?$BaseRefVectorOf@VSchemaAttDef@xercesc_3_2@@@xercesc_3_2@@UAEXXZ 1003c940 f i xerces-c_3:XTemplateSerializer.cpp.obj
 0001:0003b940       ?cleanup@?$BaseRefVectorOf@VXMLNumber@xercesc_3_2@@@xercesc_3_2@@UAEXXZ 1003c940 f i xerces-c_3:XTemplateSerializer.cpp.obj
 0001:0003b940       ?cleanup@?$BaseRefVectorOf@VXSAnnotation@xercesc_3_2@@@xercesc_3_2@@UAEXXZ 1003c940 f i xerces-c_3:XSModel.cpp.obj
 0001:0003b940       ?cleanup@?$BaseRefVectorOf@VToken@xercesc_3_2@@@xercesc_3_2@@UAEXXZ 1003c940 f i xerces-c_3:TokenFactory.cpp.obj
 0001:0003b940       ?cleanup@?$BaseRefVectorOf@VXercesLocationPath@xercesc_3_2@@@xercesc_3_2@@UAEXXZ 1003c940 f i xerces-c_3:XTemplateSerializer.cpp.obj
 0001:0003b940       ?cleanup@?$BaseRefVectorOf@VDOMNodeIteratorImpl@xercesc_3_2@@@xercesc_3_2@@UAEXXZ 1003c940 f i xerces-c_3:DOMDocumentImpl.cpp.obj
 0001:0003b940       ?cleanup@?$BaseRefVectorOf@VDOMImplementation@xercesc_3_2@@@xercesc_3_2@@UAEXXZ 1003c940 f i xerces-c_3:DOMImplementationListImpl.cpp.obj
 0001:0003b940       ?cleanup@?$BaseRefVectorOf@VENameMap@xercesc_3_2@@@xercesc_3_2@@UAEXXZ 1003c940 f i xerces-c_3:TransService.cpp.obj
 0001:0003b940       ?cleanup@?$BaseRefVectorOf@VIdentityConstraint@xercesc_3_2@@@xercesc_3_2@@UAEXXZ 1003c940 f i xerces-c_3:XTemplateSerializer.cpp.obj
 0001:0003b940       ?cleanup@?$BaseRefVectorOf@VOp@xercesc_3_2@@@xercesc_3_2@@UAEXXZ 1003c940 f i xerces-c_3:Op.cpp.obj
 0001:0003b980       ?createAttr@AbstractDOMParser@xercesc_3_2@@MAEPAVDOMAttr@2@PB_W@Z 1003c980 f   xerces-c_3:AbstractDOMParser.cpp.obj
 0001:0003ba10       ?createAttrNS@AbstractDOMParser@xercesc_3_2@@MAEPAVDOMAttr@2@PB_W000@Z 1003ca10 f   xerces-c_3:AbstractDOMParser.cpp.obj
 0001:0003baa0       ?createCDATASection@AbstractDOMParser@xercesc_3_2@@MAEPAVDOMCDATASection@2@PB_WI@Z 1003caa0 f   xerces-c_3:AbstractDOMParser.cpp.obj
 0001:0003bb30       ?createElement@AbstractDOMParser@xercesc_3_2@@MAEPAVDOMElement@2@PB_W@Z 1003cb30 f   xerces-c_3:AbstractDOMParser.cpp.obj
 0001:0003bbc0       ?createElementNS@AbstractDOMParser@xercesc_3_2@@MAEPAVDOMElement@2@PB_W000@Z 1003cbc0 f   xerces-c_3:AbstractDOMParser.cpp.obj
 0001:0003bc50       ?createText@AbstractDOMParser@xercesc_3_2@@MAEPAVDOMText@2@PB_WI@Z 1003cc50 f   xerces-c_3:AbstractDOMParser.cpp.obj
 0001:0003bce0       ?docCharacters@AbstractDOMParser@xercesc_3_2@@UAEXQB_WI_N@Z 1003cce0 f   xerces-c_3:AbstractDOMParser.cpp.obj
 0001:0003bd50       ?docComment@AbstractDOMParser@xercesc_3_2@@UAEXQB_W@Z 1003cd50 f   xerces-c_3:AbstractDOMParser.cpp.obj
 0001:0003bd90       ?docPI@AbstractDOMParser@xercesc_3_2@@UAEXQB_W0@Z 1003cd90 f   xerces-c_3:AbstractDOMParser.cpp.obj
 0001:0003bdd0       ?doctypeComment@AbstractDOMParser@xercesc_3_2@@UAEXQB_W@Z 1003cdd0 f   xerces-c_3:AbstractDOMParser.cpp.obj
 0001:0003bf30       ?doctypeDecl@AbstractDOMParser@xercesc_3_2@@UAEXABVDTDElementDecl@2@QB_W1_N2@Z 1003cf30 f   xerces-c_3:AbstractDOMParser.cpp.obj
 0001:0003bf70       ?doctypePI@AbstractDOMParser@xercesc_3_2@@UAEXQB_W0@Z 1003cf70 f   xerces-c_3:AbstractDOMParser.cpp.obj
 0001:0003c0d0       ?doctypeWhitespace@AbstractDOMParser@xercesc_3_2@@UAEXQB_WI@Z 1003d0d0 f   xerces-c_3:AbstractDOMParser.cpp.obj
 0001:0003c100       ?duplicate@ArrayIndexOutOfBoundsException@xercesc_3_2@@UBEPAVXMLException@2@XZ 1003d100 f i xerces-c_3:AbstractDOMParser.cpp.obj
 0001:0003c180       ?elementDecl@AbstractDOMParser@xercesc_3_2@@UAEXABVDTDElementDecl@2@_N@Z 1003d180 f   xerces-c_3:AbstractDOMParser.cpp.obj
 0001:0003c340       ?endAttList@AbstractDOMParser@xercesc_3_2@@UAEXABVDTDElementDecl@2@@Z 1003d340 f   xerces-c_3:AbstractDOMParser.cpp.obj
 0001:0003c750       ?endDocument@AbstractDOMParser@xercesc_3_2@@UAEXXZ 1003d750 f   xerces-c_3:AbstractDOMParser.cpp.obj
 0001:0003c780       ?endElement@AbstractDOMParser@xercesc_3_2@@UAEXABVXMLElementDecl@2@I_NQB_W@Z 1003d780 f   xerces-c_3:AbstractDOMParser.cpp.obj
 0001:0003c8d0       ?endEntityReference@AbstractDOMParser@xercesc_3_2@@UAEXABVXMLEntityDecl@2@@Z 1003d8d0 f   xerces-c_3:AbstractDOMParser.cpp.obj
 0001:0003c930       ?endIntSubset@AbstractDOMParser@xercesc_3_2@@UAEXXZ 1003d930 f   xerces-c_3:AbstractDOMParser.cpp.obj
 0001:0003c960       ?entityDecl@AbstractDOMParser@xercesc_3_2@@UAEXABVDTDEntityDecl@2@_N1@Z 1003d960 f   xerces-c_3:AbstractDOMParser.cpp.obj
 0001:0003cf20       ?getDoNamespaces@AbstractDOMParser@xercesc_3_2@@QBE_NXZ 1003df20 f   xerces-c_3:AbstractDOMParser.cpp.obj
 0001:0003cf30       ?getDoSchema@AbstractDOMParser@xercesc_3_2@@QBE_NXZ 1003df30 f   xerces-c_3:AbstractDOMParser.cpp.obj
 0001:0003cf40       ?getDocument@AbstractDOMParser@xercesc_3_2@@QAEPAVDOMDocument@2@XZ 1003df40 f   xerces-c_3:AbstractDOMParser.cpp.obj
 0001:0003cf50       ?getErrorCount@AbstractDOMParser@xercesc_3_2@@QBEIXZ 1003df50 f   xerces-c_3:AbstractDOMParser.cpp.obj
 0001:0003cf60       ?getExitOnFirstFatalError@AbstractDOMParser@xercesc_3_2@@QBE_NXZ 1003df60 f   xerces-c_3:AbstractDOMParser.cpp.obj
 0001:0003cf70       ?getExternalNoNamespaceSchemaLocation@AbstractDOMParser@xercesc_3_2@@QBEPA_WXZ 1003df70 f   xerces-c_3:AbstractDOMParser.cpp.obj
 0001:0003cf80       ?getExternalSchemaLocation@AbstractDOMParser@xercesc_3_2@@QBEPA_WXZ 1003df80 f   xerces-c_3:AbstractDOMParser.cpp.obj
 0001:0003cf90       ?getIdentityConstraintChecking@AbstractDOMParser@xercesc_3_2@@QBE_NXZ 1003df90 f   xerces-c_3:AbstractDOMParser.cpp.obj
 0001:0003cfa0       ?getLoadExternalDTD@AbstractDOMParser@xercesc_3_2@@QBE_NXZ 1003dfa0 f   xerces-c_3:AbstractDOMParser.cpp.obj
 0001:0003cfb0       ?getLoadSchema@AbstractDOMParser@xercesc_3_2@@QBE_NXZ 1003dfb0 f   xerces-c_3:AbstractDOMParser.cpp.obj
 0001:0003cfc0       ?getLowWaterMark@AbstractDOMParser@xercesc_3_2@@QBEABIXZ 1003dfc0 f   xerces-c_3:AbstractDOMParser.cpp.obj
 0001:0003cfd0       ?getPooledString@DOMDocumentImpl@xercesc_3_2@@QAEPB_WPB_W@Z 1003dfd0 f i xerces-c_3:AbstractDOMParser.cpp.obj
 0001:0003d100       ?getSecurityManager@AbstractDOMParser@xercesc_3_2@@QBEPAVSecurityManager@2@XZ 1003e100 f   xerces-c_3:AbstractDOMParser.cpp.obj
 0001:0003d110       ?getType@ArrayIndexOutOfBoundsException@xercesc_3_2@@UBEPB_WXZ 1003e110 f i xerces-c_3:AbstractDOMParser.cpp.obj
 0001:0003d120       ?getValidationConstraintFatal@AbstractDOMParser@xercesc_3_2@@QBE_NXZ 1003e120 f   xerces-c_3:AbstractDOMParser.cpp.obj
 0001:0003d130       ?getValidationSchemaFullChecking@AbstractDOMParser@xercesc_3_2@@QBE_NXZ 1003e130 f   xerces-c_3:AbstractDOMParser.cpp.obj
 0001:0003d140       ?getValidationScheme@AbstractDOMParser@xercesc_3_2@@QBE?AW4ValSchemes@12@XZ 1003e140 f   xerces-c_3:AbstractDOMParser.cpp.obj
 0001:0003d160       ?handleAttributesPSVI@AbstractDOMParser@xercesc_3_2@@UAEXQB_W0PAVPSVIAttributeList@2@@Z 1003e160 f   xerces-c_3:AbstractDOMParser.cpp.obj
 0001:0003d640       ?handleElementPSVI@AbstractDOMParser@xercesc_3_2@@UAEXQB_W0PAVPSVIElement@2@@Z 1003e640 f   xerces-c_3:AbstractDOMParser.cpp.obj
 0001:0003d8b0       ?handlePartialElementPSVI@AbstractDOMParser@xercesc_3_2@@UAEXQB_W0PAVPSVIElement@2@@Z 1003e8b0 f   xerces-c_3:AbstractDOMParser.cpp.obj
 0001:0003d8c0       ?matched@XPathMatcher@xercesc_3_2@@MAEXQB_WQAVDatatypeValidator@2@_N@Z 1003e8c0 f i xerces-c_3:XPathMatcher.cpp.obj
 0001:0003d8c0       ?handlePartialElementPSVI@PSVIHandler@xercesc_3_2@@UAEXQB_W0PAVPSVIElement@2@@Z 1003e8c0 f i xerces-c_3:AbstractDOMParser.cpp.obj
 0001:0003d8c0       ?validate@AnySimpleTypeDatatypeValidator@xercesc_3_2@@UAEXQB_WQAVValidationContext@2@QAVMemoryManager@2@@Z 1003e8c0 f i xerces-c_3:AnySimpleTypeDatatypeValidator.cpp.obj
 0001:0003d8d0       ?hash@XMLString@xercesc_3_2@@SAIQB_WI@Z 1003e8d0 f i xerces-c_3:AbstractDOMParser.cpp.obj
 0001:0003d920       ?ignorableWhitespace@AbstractDOMParser@xercesc_3_2@@UAEXQB_WI_N@Z 1003e920 f   xerces-c_3:AbstractDOMParser.cpp.obj
 0001:0003d990       ?notationDecl@AbstractDOMParser@xercesc_3_2@@UAEXABVXMLNotationDecl@2@_N@Z 1003e990 f   xerces-c_3:AbstractDOMParser.cpp.obj
 0001:0003ddb0       ?parse@AbstractDOMParser@xercesc_3_2@@QAEXABVInputSource@2@@Z 1003edb0 f   xerces-c_3:AbstractDOMParser.cpp.obj
 0001:0003dea0       ?parse@AbstractDOMParser@xercesc_3_2@@QAEXQBD@Z 1003eea0 f   xerces-c_3:AbstractDOMParser.cpp.obj
 0001:0003df90       ?parse@AbstractDOMParser@xercesc_3_2@@QAEXQB_W@Z 1003ef90 f   xerces-c_3:AbstractDOMParser.cpp.obj
 0001:0003e080       ?release@?$JanitorMemFunCall@VWFXMLScanner@xercesc_3_2@@@xercesc_3_2@@QAEPAVWFXMLScanner@2@XZ 1003f080 f i xerces-c_3:WFXMLScanner.cpp.obj
 0001:0003e080       ?release@?$JanitorMemFunCall@VDOMLSParserImpl@xercesc_3_2@@@xercesc_3_2@@QAEPAVDOMLSParserImpl@2@XZ 1003f080 f i xerces-c_3:DOMLSParserImpl.cpp.obj
 0001:0003e080       ?release@?$Janitor@VBinInputStream@xercesc_3_2@@@xercesc_3_2@@QAEPAVBinInputStream@2@XZ 1003f080 f i xerces-c_3:ReaderMgr.cpp.obj
 0001:0003e080       ?release@?$JanitorMemFunCall@VXMLBigDecimal@xercesc_3_2@@@xercesc_3_2@@QAEPAVXMLBigDecimal@2@XZ 1003f080 f i xerces-c_3:XMLBigDecimal.cpp.obj
 0001:0003e080       ?release@?$JanitorMemFunCall@VXMLNotationDecl@xercesc_3_2@@@xercesc_3_2@@QAEPAVXMLNotationDecl@2@XZ 1003f080 f i xerces-c_3:XMLNotationDecl.cpp.obj
 0001:0003e080       ?release@?$JanitorMemFunCall@VSGXMLScanner@xercesc_3_2@@@xercesc_3_2@@QAEPAVSGXMLScanner@2@XZ 1003f080 f i xerces-c_3:SGXMLScanner.cpp.obj
 0001:0003e080       ?release@?$Janitor@V?$BaseRefVectorOf@_W@xercesc_3_2@@@xercesc_3_2@@QAEPAV?$BaseRefVectorOf@_W@2@XZ 1003f080 f i xerces-c_3:ListDatatypeValidator.cpp.obj
 0001:0003e080       ?release@?$JanitorMemFunCall@VIGXMLScanner@xercesc_3_2@@@xercesc_3_2@@QAEPAVIGXMLScanner@2@XZ 1003f080 f i xerces-c_3:IGXMLScanner.cpp.obj
 0001:0003e080       ?release@?$JanitorMemFunCall@VXMLScanner@xercesc_3_2@@@xercesc_3_2@@QAEPAVXMLScanner@2@XZ 1003f080 f i xerces-c_3:XMLScanner.cpp.obj
 0001:0003e080       ?release@?$JanitorMemFunCall@VXMLUri@xercesc_3_2@@@xercesc_3_2@@QAEPAVXMLUri@2@XZ 1003f080 f i xerces-c_3:XMLUri.cpp.obj
 0001:0003e080       ?release@?$JanitorMemFunCall@VXMLGrammarPoolImpl@xercesc_3_2@@@xercesc_3_2@@QAEPAVXMLGrammarPoolImpl@2@XZ 1003f080 f i xerces-c_3:XMLGrammarPoolImpl.cpp.obj
 0001:0003e080       ?release@?$JanitorMemFunCall@VRegularExpression@xercesc_3_2@@@xercesc_3_2@@QAEPAVRegularExpression@2@XZ 1003f080 f i xerces-c_3:RegularExpression.cpp.obj
 0001:0003e080       ?release@?$JanitorMemFunCall@VFieldValueMap@xercesc_3_2@@@xercesc_3_2@@QAEPAVFieldValueMap@2@XZ 1003f080 f i xerces-c_3:FieldValueMap.cpp.obj
 0001:0003e080       ?release@?$JanitorMemFunCall@VRangeTokenMap@xercesc_3_2@@@xercesc_3_2@@QAEPAVRangeTokenMap@2@XZ 1003f080 f i xerces-c_3:RangeTokenMap.cpp.obj
 0001:0003e080       ?release@?$Janitor@VXMLDateTime@xercesc_3_2@@@xercesc_3_2@@QAEPAVXMLDateTime@2@XZ 1003f080 f i xerces-c_3:DateTimeDatatypeValidator.cpp.obj
 0001:0003e080       ?release@?$JanitorMemFunCall@VXMLEntityDecl@xercesc_3_2@@@xercesc_3_2@@QAEPAVXMLEntityDecl@2@XZ 1003f080 f i xerces-c_3:XMLEntityDecl.cpp.obj
 0001:0003e080       ?release@?$JanitorMemFunCall@VXPathMatcherStack@xercesc_3_2@@@xercesc_3_2@@QAEPAVXPathMatcherStack@2@XZ 1003f080 f i xerces-c_3:XPathMatcherStack.cpp.obj
 0001:0003e080       ?release@?$JanitorMemFunCall@VIdentityConstraint@xercesc_3_2@@@xercesc_3_2@@QAEPAVIdentityConstraint@2@XZ 1003f080 f i xerces-c_3:IdentityConstraint.cpp.obj
 0001:0003e080       ?release@?$JanitorMemFunCall@VXMLAttDef@xercesc_3_2@@@xercesc_3_2@@QAEPAVXMLAttDef@2@XZ 1003f080 f i xerces-c_3:XMLAttDef.cpp.obj
 0001:0003e080       ?release@?$JanitorMemFunCall@VDGXMLScanner@xercesc_3_2@@@xercesc_3_2@@QAEPAVDGXMLScanner@2@XZ 1003f080 f i xerces-c_3:DGXMLScanner.cpp.obj
 0001:0003e080       ?release@?$JanitorMemFunCall@VIdentityConstraintHandler@xercesc_3_2@@@xercesc_3_2@@QAEPAVIdentityConstraintHandler@2@XZ 1003f080 f i xerces-c_3:IdentityConstraintHandler.cpp.obj
 0001:0003e080       ?release@?$ArrayJanitor@_W@xercesc_3_2@@QAEPA_WXZ 1003f080 f i xerces-c_3:JanitorExports.cpp.obj
 0001:0003e080       ?release@?$ArrayJanitor@E@xercesc_3_2@@QAEPAEXZ 1003f080 f i xerces-c_3:JanitorExports.cpp.obj
 0001:0003e080       ?release@?$JanitorMemFunCall@VValueStoreCache@xercesc_3_2@@@xercesc_3_2@@QAEPAVValueStoreCache@2@XZ 1003f080 f i xerces-c_3:ValueStoreCache.cpp.obj
 0001:0003e080       ?release@?$JanitorMemFunCall@VXercesXPath@xercesc_3_2@@@xercesc_3_2@@QAEPAVXercesXPath@2@XZ 1003f080 f i xerces-c_3:XercesXPath.cpp.obj
 0001:0003e080       ?release@?$JanitorMemFunCall@VDOMXPathExpressionImpl@xercesc_3_2@@@xercesc_3_2@@QAEPAVDOMXPathExpressionImpl@2@XZ 1003f080 f i xerces-c_3:DOMXPathExpressionImpl.cpp.obj
 0001:0003e080       ?release@?$JanitorMemFunCall@VUnionDatatypeValidator@xercesc_3_2@@@xercesc_3_2@@QAEPAVUnionDatatypeValidator@2@XZ 1003f080 f i xerces-c_3:UnionDatatypeValidator.cpp.obj
 0001:0003e080       ?release@?$JanitorMemFunCall@VBMPattern@xercesc_3_2@@@xercesc_3_2@@QAEPAVBMPattern@2@XZ 1003f080 f i xerces-c_3:BMPattern.cpp.obj
 0001:0003e080       ?release@?$JanitorMemFunCall@VQName@xercesc_3_2@@@xercesc_3_2@@QAEPAVQName@2@XZ 1003f080 f i xerces-c_3:QName.cpp.obj
 0001:0003e080       ?release@?$JanitorMemFunCall@VSchemaGrammar@xercesc_3_2@@@xercesc_3_2@@QAEPAVSchemaGrammar@2@XZ 1003f080 f i xerces-c_3:SchemaGrammar.cpp.obj
 0001:0003e080       ?release@?$JanitorMemFunCall@VXMLAttr@xercesc_3_2@@@xercesc_3_2@@QAEPAVXMLAttr@2@XZ 1003f080 f i xerces-c_3:XMLAttr.cpp.obj
 0001:0003e080       ?release@?$JanitorMemFunCall@VTraverseSchema@xercesc_3_2@@@xercesc_3_2@@QAEPAVTraverseSchema@2@XZ 1003f080 f i xerces-c_3:TraverseSchema.cpp.obj
 0001:0003e080       ?release@?$JanitorMemFunCall@VXPathMatcher@xercesc_3_2@@@xercesc_3_2@@QAEPAVXPathMatcher@2@XZ 1003f080 f i xerces-c_3:XPathMatcher.cpp.obj
 0001:0003e080       ?release@?$JanitorMemFunCall@VXMLURL@xercesc_3_2@@@xercesc_3_2@@QAEPAVXMLURL@2@XZ 1003f080 f i xerces-c_3:XMLURL.cpp.obj
 0001:0003e080       ?release@?$JanitorMemFunCall@VXMLStringTokenizer@xercesc_3_2@@@xercesc_3_2@@QAEPAVXMLStringTokenizer@2@XZ 1003f080 f i xerces-c_3:XMLStringTokenizer.cpp.obj
 0001:0003e080       ?release@?$JanitorMemFunCall@VReaderMgr@xercesc_3_2@@@xercesc_3_2@@QAEPAVReaderMgr@2@XZ 1003f080 f i xerces-c_3:XMLScanner.cpp.obj
 0001:0003e080       ?release@?$JanitorMemFunCall@VAbstractDOMParser@xercesc_3_2@@@xercesc_3_2@@QAEPAVAbstractDOMParser@2@XZ 1003f080 f i xerces-c_3:AbstractDOMParser.cpp.obj
 0001:0003e090       ?removeAllElements@?$BaseRefVectorOf@VXSMultiValueFacet@xercesc_3_2@@@xercesc_3_2@@UAEXXZ 1003f090 f i xerces-c_3:XSObjectFactory.cpp.obj
 0001:0003e090       ?removeAllElements@?$BaseRefVectorOf@VIC_Field@xercesc_3_2@@@xercesc_3_2@@UAEXXZ 1003f090 f i xerces-c_3:XTemplateSerializer.cpp.obj
 0001:0003e090       ?removeAllElements@?$BaseRefVectorOf@VXercesStep@xercesc_3_2@@@xercesc_3_2@@UAEXXZ 1003f090 f i xerces-c_3:XTemplateSerializer.cpp.obj
 0001:0003e090       ?removeAllElements@?$BaseRefVectorOf@VDOMDocumentImpl@xercesc_3_2@@@xercesc_3_2@@UAEXXZ 1003f090 f i xerces-c_3:AbstractDOMParser.cpp.obj
 0001:0003e090       ?removeAllElements@?$BaseRefVectorOf@VXSObject@xercesc_3_2@@@xercesc_3_2@@UAEXXZ 1003f090 f i xerces-c_3:XSModel.cpp.obj
 0001:0003e090       ?removeAllElements@?$BaseRefVectorOf@VSchemaAttDef@xercesc_3_2@@@xercesc_3_2@@UAEXXZ 1003f090 f i xerces-c_3:XTemplateSerializer.cpp.obj
 0001:0003e090       ?removeAllElements@?$BaseRefVectorOf@VXSSimpleTypeDefinition@xercesc_3_2@@@xercesc_3_2@@UAEXXZ 1003f090 f i xerces-c_3:XSObjectFactory.cpp.obj
 0001:0003e090       ?removeAllElements@?$BaseRefVectorOf@VDOMRangeImpl@xercesc_3_2@@@xercesc_3_2@@UAEXXZ 1003f090 f i xerces-c_3:DOMDocumentImpl.cpp.obj
 0001:0003e090       ?removeAllElements@?$BaseRefVectorOf@VXMLElementDecl@xercesc_3_2@@@xercesc_3_2@@UAEXXZ 1003f090 f i xerces-c_3:WFXMLScanner.cpp.obj
 0001:0003e090       ?removeAllElements@?$BaseRefVectorOf@VSchemaElementDecl@xercesc_3_2@@@xercesc_3_2@@UAEXXZ 1003f090 f i xerces-c_3:XTemplateSerializer.cpp.obj
 0001:0003e090       ?removeAllElements@?$BaseRefVectorOf@VOp@xercesc_3_2@@@xercesc_3_2@@UAEXXZ 1003f090 f i xerces-c_3:Op.cpp.obj
 0001:0003e090       ?removeAllElements@?$BaseRefVectorOf@VXPathMatcher@xercesc_3_2@@@xercesc_3_2@@UAEXXZ 1003f090 f i xerces-c_3:XPathMatcherStack.cpp.obj
 0001:0003e090       ?removeAllElements@?$BaseRefVectorOf@VXSAnnotation@xercesc_3_2@@@xercesc_3_2@@UAEXXZ 1003f090 f i xerces-c_3:XSModel.cpp.obj
 0001:0003e090       ?removeAllElements@?$BaseRefVectorOf@VDOMImplementation@xercesc_3_2@@@xercesc_3_2@@UAEXXZ 1003f090 f i xerces-c_3:DOMImplementationListImpl.cpp.obj
 0001:0003e090       ?removeAllElements@?$BaseRefVectorOf@VENameMap@xercesc_3_2@@@xercesc_3_2@@UAEXXZ 1003f090 f i xerces-c_3:TransService.cpp.obj
 0001:0003e090       ?removeAllElements@?$BaseRefVectorOf@VXSIDCDefinition@xercesc_3_2@@@xercesc_3_2@@UAEXXZ 1003f090 f i xerces-c_3:XSObjectFactory.cpp.obj
 0001:0003e090       ?removeAllElements@?$BaseRefVectorOf@VXMLNumber@xercesc_3_2@@@xercesc_3_2@@UAEXXZ 1003f090 f i xerces-c_3:XTemplateSerializer.cpp.obj
 0001:0003e090       ?removeAllElements@?$BaseRefVectorOf@VXSParticle@xercesc_3_2@@@xercesc_3_2@@UAEXXZ 1003f090 f i xerces-c_3:XSObjectFactory.cpp.obj
 0001:0003e090       ?removeAllElements@?$BaseRefVectorOf@VKVStringPair@xercesc_3_2@@@xercesc_3_2@@UAEXXZ 1003f090 f i xerces-c_3:SGXMLScanner.cpp.obj
 0001:0003e090       ?removeAllElements@?$BaseRefVectorOf@VXSFacet@xercesc_3_2@@@xercesc_3_2@@UAEXXZ 1003f090 f i xerces-c_3:XSObjectFactory.cpp.obj
 0001:0003e090       ?removeAllElements@?$BaseRefVectorOf@VXMLEntityDecl@xercesc_3_2@@@xercesc_3_2@@UAEXXZ 1003f090 f i xerces-c_3:ReaderMgr.cpp.obj
 0001:0003e090       ?removeAllElements@?$BaseRefVectorOf@VIdentityConstraint@xercesc_3_2@@@xercesc_3_2@@UAEXXZ 1003f090 f i xerces-c_3:XTemplateSerializer.cpp.obj
 0001:0003e090       ?removeAllElements@?$BaseRefVectorOf@VXSAttributeUse@xercesc_3_2@@@xercesc_3_2@@UAEXXZ 1003f090 f i xerces-c_3:XSObjectFactory.cpp.obj
 0001:0003e090       ?removeAllElements@?$BaseRefVectorOf@VToken@xercesc_3_2@@@xercesc_3_2@@UAEXXZ 1003f090 f i xerces-c_3:TokenFactory.cpp.obj
 0001:0003e090       ?removeAllElements@?$BaseRefVectorOf@VDOMNodeIteratorImpl@xercesc_3_2@@@xercesc_3_2@@UAEXXZ 1003f090 f i xerces-c_3:DOMDocumentImpl.cpp.obj
 0001:0003e090       ?removeAllElements@?$BaseRefVectorOf@VDatatypeValidator@xercesc_3_2@@@xercesc_3_2@@UAEXXZ 1003f090 f i xerces-c_3:XTemplateSerializer.cpp.obj
 0001:0003e090       ?removeAllElements@?$BaseRefVectorOf@VDOMNode@xercesc_3_2@@@xercesc_3_2@@UAEXXZ 1003f090 f i xerces-c_3:DOMDocumentImpl.cpp.obj
 0001:0003e090       ?removeAllElements@?$BaseRefVectorOf@VDOMImplementationSource@xercesc_3_2@@@xercesc_3_2@@UAEXXZ 1003f090 f i xerces-c_3:DOMImplementationRegistry.cpp.obj
 0001:0003e090       ?removeAllElements@?$BaseRefVectorOf@VXercesLocationPath@xercesc_3_2@@@xercesc_3_2@@UAEXXZ 1003f090 f i xerces-c_3:XTemplateSerializer.cpp.obj
 0001:0003e0e0       ?removeElementAt@?$BaseRefVectorOf@VIC_Field@xercesc_3_2@@@xercesc_3_2@@UAEXI@Z 1003f0e0 f i xerces-c_3:XTemplateSerializer.cpp.obj
 0001:0003e0e0       ?removeElementAt@?$BaseRefVectorOf@VSchemaAttDef@xercesc_3_2@@@xercesc_3_2@@UAEXI@Z 1003f0e0 f i xerces-c_3:XTemplateSerializer.cpp.obj
 0001:0003e0e0       ?removeElementAt@?$BaseRefVectorOf@VXMLElementDecl@xercesc_3_2@@@xercesc_3_2@@UAEXI@Z 1003f0e0 f i xerces-c_3:WFXMLScanner.cpp.obj
 0001:0003e0e0       ?removeElementAt@?$BaseRefVectorOf@VSchemaElementDecl@xercesc_3_2@@@xercesc_3_2@@UAEXI@Z 1003f0e0 f i xerces-c_3:XTemplateSerializer.cpp.obj
 0001:0003e0e0       ?removeElementAt@?$BaseRefVectorOf@VDOMDocumentImpl@xercesc_3_2@@@xercesc_3_2@@UAEXI@Z 1003f0e0 f i xerces-c_3:AbstractDOMParser.cpp.obj
 0001:0003e0e0       ?removeElementAt@?$BaseRefVectorOf@VOp@xercesc_3_2@@@xercesc_3_2@@UAEXI@Z 1003f0e0 f i xerces-c_3:Op.cpp.obj
 0001:0003e0e0       ?removeElementAt@?$BaseRefVectorOf@VKVStringPair@xercesc_3_2@@@xercesc_3_2@@UAEXI@Z 1003f0e0 f i xerces-c_3:SGXMLScanner.cpp.obj
 0001:0003e0e0       ?removeElementAt@?$BaseRefVectorOf@VXSFacet@xercesc_3_2@@@xercesc_3_2@@UAEXI@Z 1003f0e0 f i xerces-c_3:XSObjectFactory.cpp.obj
 0001:0003e0e0       ?removeElementAt@?$BaseRefVectorOf@VENameMap@xercesc_3_2@@@xercesc_3_2@@UAEXI@Z 1003f0e0 f i xerces-c_3:TransService.cpp.obj
 0001:0003e0e0       ?removeElementAt@?$BaseRefVectorOf@VXPathMatcher@xercesc_3_2@@@xercesc_3_2@@UAEXI@Z 1003f0e0 f i xerces-c_3:XPathMatcherStack.cpp.obj
 0001:0003e0e0       ?removeElementAt@?$BaseRefVectorOf@VIdentityConstraint@xercesc_3_2@@@xercesc_3_2@@UAEXI@Z 1003f0e0 f i xerces-c_3:XTemplateSerializer.cpp.obj
 0001:0003e0e0       ?removeElementAt@?$BaseRefVectorOf@VDOMNodeIteratorImpl@xercesc_3_2@@@xercesc_3_2@@UAEXI@Z 1003f0e0 f i xerces-c_3:DOMDocumentImpl.cpp.obj
 0001:0003e0e0       ?removeElementAt@?$BaseRefVectorOf@VDOMImplementation@xercesc_3_2@@@xercesc_3_2@@UAEXI@Z 1003f0e0 f i xerces-c_3:DOMImplementationListImpl.cpp.obj
 0001:0003e0e0       ?removeElementAt@?$BaseRefVectorOf@VDOMNode@xercesc_3_2@@@xercesc_3_2@@UAEXI@Z 1003f0e0 f i xerces-c_3:DOMDocumentImpl.cpp.obj
 0001:0003e0e0       ?removeElementAt@?$BaseRefVectorOf@VXercesStep@xercesc_3_2@@@xercesc_3_2@@UAEXI@Z 1003f0e0 f i xerces-c_3:XTemplateSerializer.cpp.obj
 0001:0003e0e0       ?removeElementAt@?$BaseRefVectorOf@VXSAttributeUse@xercesc_3_2@@@xercesc_3_2@@UAEXI@Z 1003f0e0 f i xerces-c_3:XSObjectFactory.cpp.obj
 0001:0003e0e0       ?removeElementAt@?$BaseRefVectorOf@VXercesLocationPath@xercesc_3_2@@@xercesc_3_2@@UAEXI@Z 1003f0e0 f i xerces-c_3:XTemplateSerializer.cpp.obj
 0001:0003e0e0       ?removeElementAt@?$BaseRefVectorOf@VDOMImplementationSource@xercesc_3_2@@@xercesc_3_2@@UAEXI@Z 1003f0e0 f i xerces-c_3:DOMImplementationRegistry.cpp.obj
 0001:0003e0e0       ?removeElementAt@?$BaseRefVectorOf@VXSAnnotation@xercesc_3_2@@@xercesc_3_2@@UAEXI@Z 1003f0e0 f i xerces-c_3:XSModel.cpp.obj
 0001:0003e0e0       ?removeElementAt@?$BaseRefVectorOf@VXSSimpleTypeDefinition@xercesc_3_2@@@xercesc_3_2@@UAEXI@Z 1003f0e0 f i xerces-c_3:XSObjectFactory.cpp.obj
 0001:0003e0e0       ?removeElementAt@?$BaseRefVectorOf@VXSIDCDefinition@xercesc_3_2@@@xercesc_3_2@@UAEXI@Z 1003f0e0 f i xerces-c_3:XSObjectFactory.cpp.obj
 0001:0003e0e0       ?removeElementAt@?$BaseRefVectorOf@VToken@xercesc_3_2@@@xercesc_3_2@@UAEXI@Z 1003f0e0 f i xerces-c_3:TokenFactory.cpp.obj
 0001:0003e0e0       ?removeElementAt@?$BaseRefVectorOf@VXSParticle@xercesc_3_2@@@xercesc_3_2@@UAEXI@Z 1003f0e0 f i xerces-c_3:XSObjectFactory.cpp.obj
 0001:0003e0e0       ?removeElementAt@?$BaseRefVectorOf@VDOMRangeImpl@xercesc_3_2@@@xercesc_3_2@@UAEXI@Z 1003f0e0 f i xerces-c_3:DOMDocumentImpl.cpp.obj
 0001:0003e0e0       ?removeElementAt@?$BaseRefVectorOf@VXMLNumber@xercesc_3_2@@@xercesc_3_2@@UAEXI@Z 1003f0e0 f i xerces-c_3:XTemplateSerializer.cpp.obj
 0001:0003e0e0       ?removeElementAt@?$BaseRefVectorOf@VXSObject@xercesc_3_2@@@xercesc_3_2@@UAEXI@Z 1003f0e0 f i xerces-c_3:XSModel.cpp.obj
 0001:0003e0e0       ?removeElementAt@?$BaseRefVectorOf@VXSMultiValueFacet@xercesc_3_2@@@xercesc_3_2@@UAEXI@Z 1003f0e0 f i xerces-c_3:XSObjectFactory.cpp.obj
 0001:0003e0e0       ?removeElementAt@?$BaseRefVectorOf@VXMLEntityDecl@xercesc_3_2@@@xercesc_3_2@@UAEXI@Z 1003f0e0 f i xerces-c_3:ReaderMgr.cpp.obj
 0001:0003e0e0       ?removeElementAt@?$BaseRefVectorOf@VDatatypeValidator@xercesc_3_2@@@xercesc_3_2@@UAEXI@Z 1003f0e0 f i xerces-c_3:XTemplateSerializer.cpp.obj
 0001:0003e190       ?removeLastElement@?$BaseRefVectorOf@VXSMultiValueFacet@xercesc_3_2@@@xercesc_3_2@@UAEXXZ 1003f190 f i xerces-c_3:XSObjectFactory.cpp.obj
 0001:0003e190       ?removeLastElement@?$BaseRefVectorOf@VXSObject@xercesc_3_2@@@xercesc_3_2@@UAEXXZ 1003f190 f i xerces-c_3:XSModel.cpp.obj
 0001:0003e190       ?removeLastElement@?$BaseRefVectorOf@VDOMDocumentImpl@xercesc_3_2@@@xercesc_3_2@@UAEXXZ 1003f190 f i xerces-c_3:AbstractDOMParser.cpp.obj
 0001:0003e190       ?removeLastElement@?$BaseRefVectorOf@VSchemaAttDef@xercesc_3_2@@@xercesc_3_2@@UAEXXZ 1003f190 f i xerces-c_3:XTemplateSerializer.cpp.obj
 0001:0003e190       ?removeLastElement@?$BaseRefVectorOf@VToken@xercesc_3_2@@@xercesc_3_2@@UAEXXZ 1003f190 f i xerces-c_3:TokenFactory.cpp.obj
 0001:0003e190       ?removeLastElement@?$BaseRefVectorOf@VXSParticle@xercesc_3_2@@@xercesc_3_2@@UAEXXZ 1003f190 f i xerces-c_3:XSObjectFactory.cpp.obj
 0001:0003e190       ?removeLastElement@?$BaseRefVectorOf@VXMLNumber@xercesc_3_2@@@xercesc_3_2@@UAEXXZ 1003f190 f i xerces-c_3:XTemplateSerializer.cpp.obj
 0001:0003e190       ?removeLastElement@?$BaseRefVectorOf@VDOMRangeImpl@xercesc_3_2@@@xercesc_3_2@@UAEXXZ 1003f190 f i xerces-c_3:DOMDocumentImpl.cpp.obj
 0001:0003e190       ?removeLastElement@?$BaseRefVectorOf@VKVStringPair@xercesc_3_2@@@xercesc_3_2@@UAEXXZ 1003f190 f i xerces-c_3:SGXMLScanner.cpp.obj
 0001:0003e190       ?removeLastElement@?$BaseRefVectorOf@VXSAttributeUse@xercesc_3_2@@@xercesc_3_2@@UAEXXZ 1003f190 f i xerces-c_3:XSObjectFactory.cpp.obj
 0001:0003e190       ?removeLastElement@?$BaseRefVectorOf@VIC_Field@xercesc_3_2@@@xercesc_3_2@@UAEXXZ 1003f190 f i xerces-c_3:XTemplateSerializer.cpp.obj
 0001:0003e190       ?removeLastElement@?$BaseRefVectorOf@VXercesStep@xercesc_3_2@@@xercesc_3_2@@UAEXXZ 1003f190 f i xerces-c_3:XTemplateSerializer.cpp.obj
 0001:0003e190       ?removeLastElement@?$BaseRefVectorOf@VDOMNodeIteratorImpl@xercesc_3_2@@@xercesc_3_2@@UAEXXZ 1003f190 f i xerces-c_3:DOMDocumentImpl.cpp.obj
 0001:0003e190       ?removeLastElement@?$BaseRefVectorOf@VDOMImplementationSource@xercesc_3_2@@@xercesc_3_2@@UAEXXZ 1003f190 f i xerces-c_3:DOMImplementationRegistry.cpp.obj
 0001:0003e190       ?removeLastElement@?$BaseRefVectorOf@VSchemaElementDecl@xercesc_3_2@@@xercesc_3_2@@UAEXXZ 1003f190 f i xerces-c_3:XTemplateSerializer.cpp.obj
 0001:0003e190       ?removeLastElement@?$BaseRefVectorOf@VXPathMatcher@xercesc_3_2@@@xercesc_3_2@@UAEXXZ 1003f190 f i xerces-c_3:XPathMatcherStack.cpp.obj
 0001:0003e190       ?removeLastElement@?$BaseRefVectorOf@VXMLElementDecl@xercesc_3_2@@@xercesc_3_2@@UAEXXZ 1003f190 f i xerces-c_3:WFXMLScanner.cpp.obj
 0001:0003e190       ?removeLastElement@?$BaseRefVectorOf@VXSFacet@xercesc_3_2@@@xercesc_3_2@@UAEXXZ 1003f190 f i xerces-c_3:XSObjectFactory.cpp.obj
 0001:0003e190       ?removeLastElement@?$BaseRefVectorOf@VIdentityConstraint@xercesc_3_2@@@xercesc_3_2@@UAEXXZ 1003f190 f i xerces-c_3:XTemplateSerializer.cpp.obj
 0001:0003e190       ?removeLastElement@?$BaseRefVectorOf@VXSSimpleTypeDefinition@xercesc_3_2@@@xercesc_3_2@@UAEXXZ 1003f190 f i xerces-c_3:XSObjectFactory.cpp.obj
 0001:0003e190       ?removeLastElement@?$BaseRefVectorOf@VDOMNode@xercesc_3_2@@@xercesc_3_2@@UAEXXZ 1003f190 f i xerces-c_3:DOMDocumentImpl.cpp.obj
 0001:0003e190       ?removeLastElement@?$BaseRefVectorOf@VXMLEntityDecl@xercesc_3_2@@@xercesc_3_2@@UAEXXZ 1003f190 f i xerces-c_3:ReaderMgr.cpp.obj
 0001:0003e190       ?removeLastElement@?$BaseRefVectorOf@VXSIDCDefinition@xercesc_3_2@@@xercesc_3_2@@UAEXXZ 1003f190 f i xerces-c_3:XSObjectFactory.cpp.obj
 0001:0003e190       ?removeLastElement@?$BaseRefVectorOf@VOp@xercesc_3_2@@@xercesc_3_2@@UAEXXZ 1003f190 f i xerces-c_3:Op.cpp.obj
 0001:0003e190       ?removeLastElement@?$BaseRefVectorOf@VDatatypeValidator@xercesc_3_2@@@xercesc_3_2@@UAEXXZ 1003f190 f i xerces-c_3:XTemplateSerializer.cpp.obj
 0001:0003e190       ?removeLastElement@?$BaseRefVectorOf@VXercesLocationPath@xercesc_3_2@@@xercesc_3_2@@UAEXXZ 1003f190 f i xerces-c_3:XTemplateSerializer.cpp.obj
 0001:0003e190       ?removeLastElement@?$BaseRefVectorOf@VXSAnnotation@xercesc_3_2@@@xercesc_3_2@@UAEXXZ 1003f190 f i xerces-c_3:XSModel.cpp.obj
 0001:0003e190       ?removeLastElement@?$BaseRefVectorOf@VDOMImplementation@xercesc_3_2@@@xercesc_3_2@@UAEXXZ 1003f190 f i xerces-c_3:DOMImplementationListImpl.cpp.obj
 0001:0003e190       ?removeLastElement@?$BaseRefVectorOf@VENameMap@xercesc_3_2@@@xercesc_3_2@@UAEXXZ 1003f190 f i xerces-c_3:TransService.cpp.obj
 0001:0003e1c0       ?reset@AbstractDOMParser@xercesc_3_2@@QAEXXZ 1003f1c0 f   xerces-c_3:AbstractDOMParser.cpp.obj
 0001:0003e3b0       ?resetDocType@AbstractDOMParser@xercesc_3_2@@UAEXXZ 1003f3b0 f   xerces-c_3:AbstractDOMParser.cpp.obj
 0001:0003e3c0       ?resetDocument@AbstractDOMParser@xercesc_3_2@@UAEXXZ 1003f3c0 f   xerces-c_3:AbstractDOMParser.cpp.obj
 0001:0003e3d0       ?resetInProgress@AbstractDOMParser@xercesc_3_2@@AAEXXZ 1003f3d0 f   xerces-c_3:AbstractDOMParser.cpp.obj
 0001:0003e3e0       ?resetPool@AbstractDOMParser@xercesc_3_2@@IAEXXZ 1003f3e0 f   xerces-c_3:AbstractDOMParser.cpp.obj
 0001:0003e450       ?set@XMLBuffer@xercesc_3_2@@QAEXQB_WI@Z 1003f450 f i xerces-c_3:AbstractDOMParser.cpp.obj
 0001:0003e460       ?setCreateSchemaInfo@AbstractDOMParser@xercesc_3_2@@QAEX_N@Z 1003f460 f   xerces-c_3:AbstractDOMParser.cpp.obj
 0001:0003e490       ?setDoNamespaces@AbstractDOMParser@xercesc_3_2@@QAEX_N@Z 1003f490 f   xerces-c_3:AbstractDOMParser.cpp.obj
 0001:0003e4a0       ?setDoSchema@AbstractDOMParser@xercesc_3_2@@QAEX_N@Z 1003f4a0 f   xerces-c_3:AbstractDOMParser.cpp.obj
 0001:0003e4b0       ?setElementAt@?$BaseRefVectorOf@VXMLNumber@xercesc_3_2@@@xercesc_3_2@@UAEXQAVXMLNumber@2@I@Z 1003f4b0 f i xerces-c_3:XTemplateSerializer.cpp.obj
 0001:0003e4b0       ?setElementAt@?$BaseRefVectorOf@VSchemaAttDef@xercesc_3_2@@@xercesc_3_2@@UAEXQAVSchemaAttDef@2@I@Z 1003f4b0 f i xerces-c_3:XTemplateSerializer.cpp.obj
 0001:0003e4b0       ?setElementAt@?$BaseRefVectorOf@VIdentityConstraint@xercesc_3_2@@@xercesc_3_2@@UAEXQAVIdentityConstraint@2@I@Z 1003f4b0 f i xerces-c_3:XTemplateSerializer.cpp.obj
 0001:0003e4b0       ?setElementAt@?$BaseRefVectorOf@VXSMultiValueFacet@xercesc_3_2@@@xercesc_3_2@@UAEXQAVXSMultiValueFacet@2@I@Z 1003f4b0 f i xerces-c_3:XSObjectFactory.cpp.obj
 0001:0003e4b0       ?setElementAt@?$BaseRefVectorOf@VDOMDocumentImpl@xercesc_3_2@@@xercesc_3_2@@UAEXQAVDOMDocumentImpl@2@I@Z 1003f4b0 f i xerces-c_3:AbstractDOMParser.cpp.obj
 0001:0003e4b0       ?setElementAt@?$BaseRefVectorOf@VDOMImplementationSource@xercesc_3_2@@@xercesc_3_2@@UAEXQAVDOMImplementationSource@2@I@Z 1003f4b0 f i xerces-c_3:DOMImplementationRegistry.cpp.obj
 0001:0003e4b0       ?setElementAt@?$BaseRefVectorOf@VXMLEntityDecl@xercesc_3_2@@@xercesc_3_2@@UAEXQAVXMLEntityDecl@2@I@Z 1003f4b0 f i xerces-c_3:ReaderMgr.cpp.obj
 0001:0003e4b0       ?setElementAt@?$BaseRefVectorOf@VOp@xercesc_3_2@@@xercesc_3_2@@UAEXQAVOp@2@I@Z 1003f4b0 f i xerces-c_3:Op.cpp.obj
 0001:0003e4b0       ?setElementAt@?$BaseRefVectorOf@VXercesLocationPath@xercesc_3_2@@@xercesc_3_2@@UAEXQAVXercesLocationPath@2@I@Z 1003f4b0 f i xerces-c_3:XTemplateSerializer.cpp.obj
 0001:0003e4b0       ?setElementAt@?$BaseRefVectorOf@VXPathMatcher@xercesc_3_2@@@xercesc_3_2@@UAEXQAVXPathMatcher@2@I@Z 1003f4b0 f i xerces-c_3:XPathMatcherStack.cpp.obj
 0001:0003e4b0       ?setElementAt@?$BaseRefVectorOf@VXSIDCDefinition@xercesc_3_2@@@xercesc_3_2@@UAEXQAVXSIDCDefinition@2@I@Z 1003f4b0 f i xerces-c_3:XSObjectFactory.cpp.obj
 0001:0003e4b0       ?setElementAt@?$BaseRefVectorOf@VXMLElementDecl@xercesc_3_2@@@xercesc_3_2@@UAEXQAVXMLElementDecl@2@I@Z 1003f4b0 f i xerces-c_3:WFXMLScanner.cpp.obj
 0001:0003e4b0       ?setElementAt@?$BaseRefVectorOf@VXSSimpleTypeDefinition@xercesc_3_2@@@xercesc_3_2@@UAEXQAVXSSimpleTypeDefinition@2@I@Z 1003f4b0 f i xerces-c_3:XSObjectFactory.cpp.obj
 0001:0003e4b0       ?setElementAt@?$BaseRefVectorOf@VENameMap@xercesc_3_2@@@xercesc_3_2@@UAEXQAVENameMap@2@I@Z 1003f4b0 f i xerces-c_3:TransService.cpp.obj
 0001:0003e4b0       ?setElementAt@?$BaseRefVectorOf@VXSAttributeUse@xercesc_3_2@@@xercesc_3_2@@UAEXQAVXSAttributeUse@2@I@Z 1003f4b0 f i xerces-c_3:XSObjectFactory.cpp.obj
 0001:0003e4b0       ?setElementAt@?$BaseRefVectorOf@VKVStringPair@xercesc_3_2@@@xercesc_3_2@@UAEXQAVKVStringPair@2@I@Z 1003f4b0 f i xerces-c_3:SGXMLScanner.cpp.obj
 0001:0003e4b0       ?setElementAt@?$BaseRefVectorOf@VXSObject@xercesc_3_2@@@xercesc_3_2@@UAEXQAVXSObject@2@I@Z 1003f4b0 f i xerces-c_3:XSModel.cpp.obj
 0001:0003e4b0       ?setElementAt@?$BaseRefVectorOf@VXSFacet@xercesc_3_2@@@xercesc_3_2@@UAEXQAVXSFacet@2@I@Z 1003f4b0 f i xerces-c_3:XSObjectFactory.cpp.obj
 0001:0003e4b0       ?setElementAt@?$BaseRefVectorOf@VXercesStep@xercesc_3_2@@@xercesc_3_2@@UAEXQAVXercesStep@2@I@Z 1003f4b0 f i xerces-c_3:XTemplateSerializer.cpp.obj
 0001:0003e4b0       ?setElementAt@?$BaseRefVectorOf@VXSParticle@xercesc_3_2@@@xercesc_3_2@@UAEXQAVXSParticle@2@I@Z 1003f4b0 f i xerces-c_3:XSObjectFactory.cpp.obj
 0001:0003e4b0       ?setElementAt@?$BaseRefVectorOf@VDOMRangeImpl@xercesc_3_2@@@xercesc_3_2@@UAEXQAVDOMRangeImpl@2@I@Z 1003f4b0 f i xerces-c_3:DOMDocumentImpl.cpp.obj
 0001:0003e4b0       ?setElementAt@?$BaseRefVectorOf@VDOMNodeIteratorImpl@xercesc_3_2@@@xercesc_3_2@@UAEXQAVDOMNodeIteratorImpl@2@I@Z 1003f4b0 f i xerces-c_3:DOMDocumentImpl.cpp.obj
 0001:0003e4b0       ?setElementAt@?$BaseRefVectorOf@VDatatypeValidator@xercesc_3_2@@@xercesc_3_2@@UAEXQAVDatatypeValidator@2@I@Z 1003f4b0 f i xerces-c_3:XTemplateSerializer.cpp.obj
 0001:0003e4b0       ?setElementAt@?$BaseRefVectorOf@VDOMImplementation@xercesc_3_2@@@xercesc_3_2@@UAEXQAVDOMImplementation@2@I@Z 1003f4b0 f i xerces-c_3:DOMImplementationListImpl.cpp.obj
 0001:0003e4b0       ?setElementAt@?$BaseRefVectorOf@VDOMNode@xercesc_3_2@@@xercesc_3_2@@UAEXQAVDOMNode@2@I@Z 1003f4b0 f i xerces-c_3:DOMDocumentImpl.cpp.obj
 0001:0003e4b0       ?setElementAt@?$BaseRefVectorOf@VXSAnnotation@xercesc_3_2@@@xercesc_3_2@@UAEXQAVXSAnnotation@2@I@Z 1003f4b0 f i xerces-c_3:XSModel.cpp.obj
 0001:0003e4b0       ?setElementAt@?$BaseRefVectorOf@VSchemaElementDecl@xercesc_3_2@@@xercesc_3_2@@UAEXQAVSchemaElementDecl@2@I@Z 1003f4b0 f i xerces-c_3:XTemplateSerializer.cpp.obj
 0001:0003e4b0       ?setElementAt@?$BaseRefVectorOf@VIC_Field@xercesc_3_2@@@xercesc_3_2@@UAEXQAVIC_Field@2@I@Z 1003f4b0 f i xerces-c_3:XTemplateSerializer.cpp.obj
 0001:0003e4b0       ?setElementAt@?$BaseRefVectorOf@VToken@xercesc_3_2@@@xercesc_3_2@@UAEXQAVToken@2@I@Z 1003f4b0 f i xerces-c_3:TokenFactory.cpp.obj
 0001:0003e510       ?setExitOnFirstFatalError@AbstractDOMParser@xercesc_3_2@@QAEX_N@Z 1003f510 f   xerces-c_3:AbstractDOMParser.cpp.obj
 0001:0003e520       ?setExternalNoNamespaceSchemaLocation@AbstractDOMParser@xercesc_3_2@@QAEXQB_W@Z 1003f520 f   xerces-c_3:AbstractDOMParser.cpp.obj
 0001:0003e590       ?setExternalSchemaLocation@AbstractDOMParser@xercesc_3_2@@QAEXQB_W@Z 1003f590 f   xerces-c_3:AbstractDOMParser.cpp.obj
 0001:0003e600       ?setLoadExternalDTD@AbstractDOMParser@xercesc_3_2@@QAEX_N@Z 1003f600 f   xerces-c_3:AbstractDOMParser.cpp.obj
 0001:0003e610       ?setLoadSchema@AbstractDOMParser@xercesc_3_2@@QAEX_N@Z 1003f610 f   xerces-c_3:AbstractDOMParser.cpp.obj
 0001:0003e620       ?setLowWaterMark@AbstractDOMParser@xercesc_3_2@@QAEXI@Z 1003f620 f   xerces-c_3:AbstractDOMParser.cpp.obj
 0001:0003e630       ?setPSVIHandler@AbstractDOMParser@xercesc_3_2@@UAEXQAVPSVIHandler@2@@Z 1003f630 f   xerces-c_3:AbstractDOMParser.cpp.obj
 0001:0003e660       ?setSecurityManager@AbstractDOMParser@xercesc_3_2@@QAEXQAVSecurityManager@2@@Z 1003f660 f   xerces-c_3:AbstractDOMParser.cpp.obj
 0001:0003e6c0       ?setSkipDTDValidation@AbstractDOMParser@xercesc_3_2@@QAEX_N@Z 1003f6c0 f   xerces-c_3:AbstractDOMParser.cpp.obj
 0001:0003e6d0       ?setValidationConstraintFatal@AbstractDOMParser@xercesc_3_2@@QAEX_N@Z 1003f6d0 f   xerces-c_3:AbstractDOMParser.cpp.obj
 0001:0003e6e0       ?setValidationSchemaFullChecking@AbstractDOMParser@xercesc_3_2@@QAEX_N@Z 1003f6e0 f   xerces-c_3:AbstractDOMParser.cpp.obj
 0001:0003e6f0       ?setValidationScheme@AbstractDOMParser@xercesc_3_2@@QAEXW4ValSchemes@12@@Z 1003f6f0 f   xerces-c_3:AbstractDOMParser.cpp.obj
 0001:0003e730       ?startAttList@AbstractDOMParser@xercesc_3_2@@UAEXABVDTDElementDecl@2@@Z 1003f730 f   xerces-c_3:AbstractDOMParser.cpp.obj
 0001:0003e860       ?startDocument@AbstractDOMParser@xercesc_3_2@@UAEXXZ 1003f860 f   xerces-c_3:AbstractDOMParser.cpp.obj
 0001:0003e8f0       ?startElement@AbstractDOMParser@xercesc_3_2@@UAEXABVXMLElementDecl@2@IQB_WABV?$RefVectorOf@VXMLAttr@xercesc_3_2@@@2@I_N3@Z 1003f8f0 f   xerces-c_3:AbstractDOMParser.cpp.obj
 0001:0003efc0       ?startEntityReference@AbstractDOMParser@xercesc_3_2@@UAEXABVXMLEntityDecl@2@@Z 1003ffc0 f   xerces-c_3:AbstractDOMParser.cpp.obj
 0001:0003f050       ?startIntSubset@AbstractDOMParser@xercesc_3_2@@UAEXXZ 10040050 f   xerces-c_3:AbstractDOMParser.cpp.obj
 0001:0003f060       ?useScanner@AbstractDOMParser@xercesc_3_2@@QAEXQB_W@Z 10040060 f   xerces-c_3:AbstractDOMParser.cpp.obj
 0001:0003f0b0       ??0SAXParseException@xercesc_3_2@@QAE@ABV01@@Z 100400b0 f   xerces-c_3:SAXParseException.cpp.obj
 0001:0003f210       ??0SAXParseException@xercesc_3_2@@QAE@QB_W00_K1QAVMemoryManager@1@@Z 10040210 f   xerces-c_3:SAXParseException.cpp.obj
 0001:0003f350       ??1SAXParseException@xercesc_3_2@@UAE@XZ 10040350 f   xerces-c_3:SAXParseException.cpp.obj
 0001:0003f3c0       ??_GSAXParseException@xercesc_3_2@@UAEPAXI@Z 100403c0 f i xerces-c_3:SAXParseException.cpp.obj
 0001:0003f3c0       ??_ESAXParseException@xercesc_3_2@@UAEPAXI@Z 100403c0 f i xerces-c_3:SAXParseException.cpp.obj
 0001:0003f470       ?getColumnNumber@SAXParseException@xercesc_3_2@@QBE_KXZ 10040470 f   xerces-c_3:SAXParseException.cpp.obj
 0001:0003f470       ?getColumnNumber@DOMLocatorImpl@xercesc_3_2@@UBE_KXZ 10040470 f   xerces-c_3:DOMLocatorImpl.cpp.obj
 0001:0003f470       ?getColumnNumber@XSDLocator@xercesc_3_2@@UBE_KXZ 10040470 f   xerces-c_3:XSDLocator.cpp.obj
 0001:0003f480       ?getLineNumber@SAXParseException@xercesc_3_2@@QBE_KXZ 10040480 f   xerces-c_3:SAXParseException.cpp.obj
 0001:0003f480       ?getByteOffset@DOMLocatorImpl@xercesc_3_2@@UBE_KXZ 10040480 f   xerces-c_3:DOMLocatorImpl.cpp.obj
 0001:0003f490       ?getTypeDefinition@PSVIElement@xercesc_3_2@@UAEPAVXSTypeDefinition@2@XZ 10040490 f   xerces-c_3:PSVIElement.cpp.obj
 0001:0003f490       ?getMemoryManager@XMLAbstractDoubleFloat@xercesc_3_2@@QBEPAVMemoryManager@2@XZ 10040490 f   xerces-c_3:DoubleDatatypeValidator.cpp.obj
 0001:0003f490       ?getTypeDefinition@PSVIAttribute@xercesc_3_2@@UAEPAVXSTypeDefinition@2@XZ 10040490 f   xerces-c_3:PSVIAttribute.cpp.obj
 0001:0003f490       ?getOwnerDocument@DOMDocumentTypeImpl@xercesc_3_2@@UBEPAVDOMDocument@2@XZ 10040490 f   xerces-c_3:DOMDocumentTypeImpl.cpp.obj
 0001:0003f490       ?getContentSpec@DTDElementDecl@xercesc_3_2@@UBEPBVContentSpecNode@2@XZ 10040490 f   xerces-c_3:DTDElementDecl.cpp.obj
 0001:0003f490       ?getInitialDepth@SelectorMatcher@xercesc_3_2@@UBEHXZ 10040490 f   xerces-c_3:IC_Selector.cpp.obj
 0001:0003f490       ?getContentSpec@DTDElementDecl@xercesc_3_2@@UAEPAVContentSpecNode@2@XZ 10040490 f   xerces-c_3:DTDElementDecl.cpp.obj
 0001:0003f490       ?getOwnerDocument@DOMEntityReferenceImpl@xercesc_3_2@@UBEPAVDOMDocument@2@XZ 10040490 f   xerces-c_3:DOMEntityReferenceImpl.cpp.obj
 0001:0003f490       ?getSystemId@SAXParseException@xercesc_3_2@@QBEPB_WXZ 10040490 f   xerces-c_3:SAXParseException.cpp.obj
 0001:0003f490       ?GetNodeId@ExecutionResource@details@Concurrency@@UBEIXZ 10040490 f   libconcrt:ExecutionResource.obj
 0001:0003f490       ?getOwnerDocument@DOMElementImpl@xercesc_3_2@@UBEPAVDOMDocument@2@XZ 10040490 f   xerces-c_3:DOMElementImpl.cpp.obj
 0001:0003f4a0       ??2XMemory@xercesc_3_2@@SAPAXI@Z 100404a0 f   xerces-c_3:XMemory.cpp.obj
 0001:0003f4c0       ??2XMemory@xercesc_3_2@@SAPAXIPAVMemoryManager@1@@Z 100404c0 f   xerces-c_3:XMemory.cpp.obj
 0001:0003f4e0       ??3XMemory@xercesc_3_2@@SAXPAX@Z 100404e0 f   xerces-c_3:XMemory.cpp.obj
 0001:0003f4e0       ??3XMemory@xercesc_3_2@@SAXPAXPAVMemoryManager@1@@Z 100404e0 f   xerces-c_3:XMemory.cpp.obj
 0001:0003f530       ??0?$RefArrayVectorOf@_W@xercesc_3_2@@QAE@I_NQAVMemoryManager@1@@Z 10040530 f i xerces-c_3:XMLString.cpp.obj
 0001:0003f5a0       ??0IllegalArgumentException@xercesc_3_2@@QAE@ABV01@@Z 100405a0 f i xerces-c_3:XMLString.cpp.obj
 0001:0003f5c0       ??0IllegalArgumentException@xercesc_3_2@@QAE@QBD_KW4Codes@XMLExcepts@1@PAVMemoryManager@1@@Z 100405c0 f i xerces-c_3:XMLString.cpp.obj
 0001:0003f630       ??0NumberFormatException@xercesc_3_2@@QAE@ABV01@@Z 10040630 f i xerces-c_3:XMLString.cpp.obj
 0001:0003f650       ??0NumberFormatException@xercesc_3_2@@QAE@QBD_KW4Codes@XMLExcepts@1@PAVMemoryManager@1@@Z 10040650 f i xerces-c_3:XMLString.cpp.obj
 0001:0003f6c0       ??1?$ArrayJanitor@PAU?$RefHashTableBucketElem@VXMLRefInfo@xercesc_3_2@@@xercesc_3_2@@@xercesc_3_2@@QAE@XZ 100406c0 f i xerces-c_3:ValidationContextImpl.cpp.obj
 0001:0003f6c0       ??1?$ArrayJanitor@PAU?$RefHashTableBucketElem@VXMLNotationDecl@xercesc_3_2@@@xercesc_3_2@@@xercesc_3_2@@QAE@XZ 100406c0 f i xerces-c_3:DTDGrammar.cpp.obj
 0001:0003f6c0       ??1?$ArrayJanitor@H@xercesc_3_2@@QAE@XZ 100406c0 f i xerces-c_3:XMLRangeFactory.cpp.obj
 0001:0003f6c0       ??1?$ArrayJanitor@PAU?$RefHash2KeysTableBucketElem@V?$KeyRefPair@XVDOMUserDataHandler@xercesc_3_2@@@xercesc_3_2@@@xercesc_3_2@@@xercesc_3_2@@QAE@XZ 100406c0 f i xerces-c_3:DOMDocumentImpl.cpp.obj
 0001:0003f6c0       ??1?$ArrayJanitor@PAU?$RefHashTableBucketElem@VKVStringPair@xercesc_3_2@@@xercesc_3_2@@@xercesc_3_2@@QAE@XZ 100406c0 f i xerces-c_3:DatatypeValidatorFactory.cpp.obj
 0001:0003f6c0       ??1?$ArrayJanitor@PAU?$ValueHashTableBucketElem@W4FilterAction@DOMLSParserFilter@xercesc_3_2@@@xercesc_3_2@@@xercesc_3_2@@QAE@XZ 100406c0 f i xerces-c_3:DOMLSParserImpl.cpp.obj
 0001:0003f6c0       ??1?$ArrayJanitor@PAU?$RefHashTableBucketElem@VXSerializedObjectId@xercesc_3_2@@@xercesc_3_2@@@xercesc_3_2@@QAE@XZ 100406c0 f i xerces-c_3:XSerializeEngine.cpp.obj
 0001:0003f6c0       ??1?$ArrayJanitor@PAU?$RefHashTableBucketElem@UPoolElem@XMLStringPool@xercesc_3_2@@@xercesc_3_2@@@xercesc_3_2@@QAE@XZ 100406c0 f i xerces-c_3:StringPool.cpp.obj
 0001:0003f6c0       ??1?$ArrayJanitor@PAU?$RefHashTableBucketElem@VXercesGroupInfo@xercesc_3_2@@@xercesc_3_2@@@xercesc_3_2@@QAE@XZ 100406c0 f i xerces-c_3:XTemplateSerializer.cpp.obj
 0001:0003f6c0       ??1?$ArrayJanitor@PAU?$RefHashTableBucketElem@VGrammar@xercesc_3_2@@@xercesc_3_2@@@xercesc_3_2@@QAE@XZ 100406c0 f i xerces-c_3:GrammarResolver.cpp.obj
 0001:0003f6c0       ??1?$ArrayJanitor@PAU?$ValueHashTableBucketElem@_W@xercesc_3_2@@@xercesc_3_2@@QAE@XZ 100406c0 f i xerces-c_3:WFXMLScanner.cpp.obj
 0001:0003f6c0       ??1?$ArrayJanitor@PAUHash2KeysSetBucketElem@xercesc_3_2@@@xercesc_3_2@@QAE@XZ 100406c0 f i xerces-c_3:DGXMLScanner.cpp.obj
 0001:0003f6c0       ??1?$ArrayJanitor@E@xercesc_3_2@@QAE@XZ 100406c0 f i xerces-c_3:JanitorExports.cpp.obj
 0001:0003f6c0       ??1?$ArrayJanitor@PAU?$RefHashTableBucketElem@VDTDEntityDecl@xercesc_3_2@@@xercesc_3_2@@@xercesc_3_2@@QAE@XZ 100406c0 f i xerces-c_3:DTDGrammar.cpp.obj
 0001:0003f6c0       ??1?$ArrayJanitor@_W@xercesc_3_2@@QAE@XZ 100406c0 f i xerces-c_3:JanitorExports.cpp.obj
 0001:0003f6c0       ??1?$ArrayJanitor@PAU?$RefHashTableBucketElem@VComplexTypeInfo@xercesc_3_2@@@xercesc_3_2@@@xercesc_3_2@@QAE@XZ 100406c0 f i xerces-c_3:XTemplateSerializer.cpp.obj
 0001:0003f6c0       ??1?$ArrayJanitor@PAU?$RefHashTableBucketElem@VDTDAttDef@xercesc_3_2@@@xercesc_3_2@@@xercesc_3_2@@QAE@XZ 100406c0 f i xerces-c_3:DTDElementDecl.cpp.obj
 0001:0003f6c0       ??1?$ArrayJanitor@PAU?$RefHash2KeysTableBucketElem@VIdentityConstraint@xercesc_3_2@@@xercesc_3_2@@@xercesc_3_2@@QAE@XZ 100406c0 f i xerces-c_3:TraverseSchema.cpp.obj
 0001:0003f6c0       ??1?$ArrayJanitor@PAU?$RefHashTableBucketElem@VXMLElementDecl@xercesc_3_2@@@xercesc_3_2@@@xercesc_3_2@@QAE@XZ 100406c0 f i xerces-c_3:WFXMLScanner.cpp.obj
 0001:0003f6c0       ??1?$ArrayJanitor@PAU?$RefHashTableBucketElem@VXercesAttGroupInfo@xercesc_3_2@@@xercesc_3_2@@@xercesc_3_2@@QAE@XZ 100406c0 f i xerces-c_3:XTemplateSerializer.cpp.obj
 0001:0003f6c0       ??1?$ArrayJanitor@PAU?$RefHashTableBucketElem@_W@xercesc_3_2@@@xercesc_3_2@@QAE@XZ 100406c0 f i xerces-c_3:DOMNormalizer.cpp.obj
 0001:0003f6c0       ??1?$ArrayJanitor@PAU?$RefHashTableBucketElem@VXSObject@xercesc_3_2@@@xercesc_3_2@@@xercesc_3_2@@QAE@XZ 100406c0 f i xerces-c_3:XSModel.cpp.obj
 0001:0003f6c0       ??1?$ArrayJanitor@PAU?$ValueHashTableBucketElem@I@xercesc_3_2@@@xercesc_3_2@@QAE@XZ 100406c0 f i xerces-c_3:DOMLSParserImpl.cpp.obj
 0001:0003f6c0       ??1?$ArrayJanitor@PAU?$RefHash2KeysTableBucketElem@VXMLAttr@xercesc_3_2@@@xercesc_3_2@@@xercesc_3_2@@QAE@XZ 100406c0 f i xerces-c_3:WFXMLScanner.cpp.obj
 0001:0003f6c0       ??1?$ArrayJanitor@PAU?$RefHash2KeysTableBucketElem@VSchemaAttDef@xercesc_3_2@@@xercesc_3_2@@@xercesc_3_2@@QAE@XZ 100406c0 f i xerces-c_3:ComplexTypeInfo.cpp.obj
 0001:0003f6c0       ??1?$ArrayJanitor@PAU?$RefHashTableBucketElem@VENameMap@xercesc_3_2@@@xercesc_3_2@@@xercesc_3_2@@QAE@XZ 100406c0 f i xerces-c_3:TransService.cpp.obj
 0001:0003f6c0       ??1?$ArrayJanitor@PAU?$ValueHashTableBucketElem@_N@xercesc_3_2@@@xercesc_3_2@@QAE@XZ 100406c0 f i xerces-c_3:EncodingValidator.cpp.obj
 0001:0003f6c0       ??1?$ArrayJanitor@PAU?$RefHashTableBucketElem@VXSAnnotation@xercesc_3_2@@@xercesc_3_2@@@xercesc_3_2@@QAE@XZ 100406c0 f i xerces-c_3:XTemplateSerializer.cpp.obj
 0001:0003f6c0       ??1?$ArrayJanitor@PAU?$RefHash2KeysTableBucketElem@VXSObject@xercesc_3_2@@@xercesc_3_2@@@xercesc_3_2@@QAE@XZ 100406c0 f i xerces-c_3:XSModel.cpp.obj
 0001:0003f6c0       ??1?$ArrayJanitor@PAU?$RefHashTableBucketElem@VCPMapEntry@xercesc_3_2@@@xercesc_3_2@@@xercesc_3_2@@QAE@XZ 100406c0 f i xerces-c_3:Win32TransService.cpp.obj
 0001:0003f6c0       ??1?$ArrayJanitor@PAU?$RefHashTableBucketElem@V?$ValueVectorOf@PAVDOMElement@xercesc_3_2@@@xercesc_3_2@@@xercesc_3_2@@@xercesc_3_2@@QAE@XZ 100406c0 f i xerces-c_3:TraverseSchema.cpp.obj
 0001:0003f6c0       ??1?$ArrayJanitor@PAU?$RefHashTableBucketElem@VFieldValueMap@xercesc_3_2@@@xercesc_3_2@@@xercesc_3_2@@QAE@XZ 100406c0 f i xerces-c_3:ValueStore.cpp.obj
 0001:0003f6c0       ??1?$ArrayJanitor@PAU?$RefHashTableBucketElem@VValueStore@xercesc_3_2@@@xercesc_3_2@@@xercesc_3_2@@QAE@XZ 100406c0 f i xerces-c_3:ValueStoreCache.cpp.obj
 0001:0003f6c0       ??1?$ArrayJanitor@PAU?$RefHashTableBucketElem@VRangeTokenElemMap@xercesc_3_2@@@xercesc_3_2@@@xercesc_3_2@@QAE@XZ 100406c0 f i xerces-c_3:RangeTokenMap.cpp.obj
 0001:0003f6c0       ??1?$ArrayJanitor@D@xercesc_3_2@@QAE@XZ 100406c0 f i xerces-c_3:XMLString.cpp.obj
 0001:0003f6c0       ??1?$ArrayJanitor@PAU?$RefHash2KeysTableBucketElem@_W@xercesc_3_2@@@xercesc_3_2@@QAE@XZ 100406c0 f i xerces-c_3:TraverseSchema.cpp.obj
 0001:0003f6c0       ??1?$ArrayJanitor@PAU?$RefHashTableBucketElem@VDOMElement@xercesc_3_2@@@xercesc_3_2@@@xercesc_3_2@@QAE@XZ 100406c0 f i xerces-c_3:SchemaInfo.cpp.obj
 0001:0003f6c0       ??1?$ArrayJanitor@PAU?$RefHashTableBucketElem@VSchemaInfo@xercesc_3_2@@@xercesc_3_2@@@xercesc_3_2@@QAE@XZ 100406c0 f i xerces-c_3:TraverseSchema.cpp.obj
 0001:0003f6c0       ??1?$ArrayJanitor@PAU?$RefHashTableBucketElem@VXSNamespaceItem@xercesc_3_2@@@xercesc_3_2@@@xercesc_3_2@@QAE@XZ 100406c0 f i xerces-c_3:XSModel.cpp.obj
 0001:0003f6c0       ??1?$ArrayJanitor@PAU?$RefHashTableBucketElem@VDTDElementDecl@xercesc_3_2@@@xercesc_3_2@@@xercesc_3_2@@QAE@XZ 100406c0 f i xerces-c_3:DTDGrammar.cpp.obj
 0001:0003f6c0       ??1?$ArrayJanitor@PAU?$RefHashTableBucketElem@VXMLCanRepGroup@xercesc_3_2@@@xercesc_3_2@@@xercesc_3_2@@QAE@XZ 100406c0 f i xerces-c_3:DatatypeValidatorFactory.cpp.obj
 0001:0003f6c0       ??1?$ArrayJanitor@_N@xercesc_3_2@@QAE@XZ 100406c0 f i xerces-c_3:AllContentModel.cpp.obj
 0001:0003f6c0       ??1?$ArrayJanitor@PAU?$RefHash2KeysTableBucketElem@V?$ValueVectorOf@PAVSchemaElementDecl@xercesc_3_2@@@xercesc_3_2@@@xercesc_3_2@@@xercesc_3_2@@QAE@XZ 100406c0 f i xerces-c_3:XTemplateSerializer.cpp.obj
 0001:0003f6c0       ??1?$ArrayJanitor@PAU?$ValueHashTableBucketElem@W4DataType@XSValue@xercesc_3_2@@@xercesc_3_2@@@xercesc_3_2@@QAE@XZ 100406c0 f i xerces-c_3:XSValue.cpp.obj
 0001:0003f6c0       ??1?$ArrayJanitor@PAU?$RefHashTableBucketElem@VDatatypeValidator@xercesc_3_2@@@xercesc_3_2@@@xercesc_3_2@@QAE@XZ 100406c0 f i xerces-c_3:DatatypeValidatorFactory.cpp.obj
 0001:0003f6c0       ??1?$ArrayJanitor@PAU?$ValueHashTableBucketElem@G@xercesc_3_2@@@xercesc_3_2@@QAE@XZ 100406c0 f i xerces-c_3:GeneralAttributeCheck.cpp.obj
 0001:0003f6c0       ??1?$ArrayJanitor@PAU?$RefHash2KeysTableBucketElem@VSchemaInfo@xercesc_3_2@@@xercesc_3_2@@@xercesc_3_2@@QAE@XZ 100406c0 f i xerces-c_3:TraverseSchema.cpp.obj
 0001:0003f6c0       ??1?$ArrayJanitor@PAU?$RefHashTableBucketElem@VRangeFactory@xercesc_3_2@@@xercesc_3_2@@@xercesc_3_2@@QAE@XZ 100406c0 f i xerces-c_3:RangeTokenMap.cpp.obj
 0001:0003f6c0       ??1?$ArrayJanitor@PAU?$RefHashTableBucketElem@I@xercesc_3_2@@@xercesc_3_2@@QAE@XZ 100406c0 f i xerces-c_3:DGXMLScanner.cpp.obj
 0001:0003f6c0       ??1?$ArrayJanitor@PAU?$RefHash2KeysTableBucketElem@VValueStore@xercesc_3_2@@@xercesc_3_2@@@xercesc_3_2@@QAE@XZ 100406c0 f i xerces-c_3:ValueStoreCache.cpp.obj
 0001:0003f6c0       ??1?$ArrayJanitor@PAU?$RefHashTableBucketElem@VXMLInteger@xercesc_3_2@@@xercesc_3_2@@@xercesc_3_2@@QAE@XZ 100406c0 f i xerces-c_3:DFAContentModel.cpp.obj
 0001:0003f6c0       ??1?$ArrayJanitor@PAU?$RefHashTableBucketElem@VXMLAttDef@xercesc_3_2@@@xercesc_3_2@@@xercesc_3_2@@QAE@XZ 100406c0 f i xerces-c_3:XTemplateSerializer.cpp.obj
 0001:0003f6c0       ??1?$ArrayJanitor@PAU?$RefHashTableBucketElem@V?$ValueVectorOf@PAVSchemaElementDecl@xercesc_3_2@@@xercesc_3_2@@@xercesc_3_2@@@xercesc_3_2@@QAE@XZ 100406c0 f i xerces-c_3:TraverseSchema.cpp.obj
 0001:0003f6c0       ??1?$ArrayJanitor@PAU?$RefHash2KeysTableBucketElem@VXSIDCDefinition@xercesc_3_2@@@xercesc_3_2@@@xercesc_3_2@@QAE@XZ 100406c0 f i xerces-c_3:XSObjectFactory.cpp.obj
 0001:0003f720       ??1IllegalArgumentException@xercesc_3_2@@UAE@XZ 10040720 f i xerces-c_3:XMLString.cpp.obj
 0001:0003f730       ??1NumberFormatException@xercesc_3_2@@UAE@XZ 10040730 f i xerces-c_3:XMLString.cpp.obj
 0001:0003f740       ??_E?$BaseRefVectorOf@_W@xercesc_3_2@@UAEPAXI@Z 10040740 f i xerces-c_3:XMLString.cpp.obj
 0001:0003f740       ??_G?$BaseRefVectorOf@_W@xercesc_3_2@@UAEPAXI@Z 10040740 f i xerces-c_3:XMLString.cpp.obj
 0001:0003f780       ??_E?$RefArrayVectorOf@_W@xercesc_3_2@@UAEPAXI@Z 10040780 f i xerces-c_3:XMLString.cpp.obj
 0001:0003f780       ??_G?$RefArrayVectorOf@_W@xercesc_3_2@@UAEPAXI@Z 10040780 f i xerces-c_3:XMLString.cpp.obj
 0001:0003f820       ??_EIllegalArgumentException@xercesc_3_2@@UAEPAXI@Z 10040820 f i xerces-c_3:XMLString.cpp.obj
 0001:0003f820       ??_GIllegalArgumentException@xercesc_3_2@@UAEPAXI@Z 10040820 f i xerces-c_3:XMLString.cpp.obj
 0001:0003f860       ??_GNumberFormatException@xercesc_3_2@@UAEPAXI@Z 10040860 f i xerces-c_3:XMLString.cpp.obj
 0001:0003f860       ??_ENumberFormatException@xercesc_3_2@@UAEPAXI@Z 10040860 f i xerces-c_3:XMLString.cpp.obj
 0001:0003f8a0       ?addElement@?$BaseRefVectorOf@VToken@xercesc_3_2@@@xercesc_3_2@@QAEXQAVToken@2@@Z 100408a0 f i xerces-c_3:TokenFactory.cpp.obj
 0001:0003f8a0       ?addElement@?$BaseRefVectorOf@VDOMImplementationSource@xercesc_3_2@@@xercesc_3_2@@QAEXQAVDOMImplementationSource@2@@Z 100408a0 f i xerces-c_3:DOMImplementationRegistry.cpp.obj
 0001:0003f8a0       ?addElement@?$BaseRefVectorOf@VDOMNode@xercesc_3_2@@@xercesc_3_2@@QAEXQAVDOMNode@2@@Z 100408a0 f i xerces-c_3:DOMDocumentImpl.cpp.obj
 0001:0003f8a0       ?addElement@?$BaseRefVectorOf@V?$RefHashTableOf@_WUStringHasher@xercesc_3_2@@@xercesc_3_2@@@xercesc_3_2@@QAEXQAV?$RefHashTableOf@_WUStringHasher@xercesc_3_2@@@2@@Z 100408a0 f i xerces-c_3:DOMLSSerializerImpl.cpp.obj
 0001:0003f8a0       ?addElement@?$BaseRefVectorOf@VSchemaElementDecl@xercesc_3_2@@@xercesc_3_2@@QAEXQAVSchemaElementDecl@2@@Z 100408a0 f i xerces-c_3:XTemplateSerializer.cpp.obj
 0001:0003f8a0       ?addElement@?$BaseRefVectorOf@VXSParticle@xercesc_3_2@@@xercesc_3_2@@QAEXQAVXSParticle@2@@Z 100408a0 f i xerces-c_3:XSObjectFactory.cpp.obj
 0001:0003f8a0       ?addElement@?$BaseRefVectorOf@VXSFacet@xercesc_3_2@@@xercesc_3_2@@QAEXQAVXSFacet@2@@Z 100408a0 f i xerces-c_3:XSObjectFactory.cpp.obj
 0001:0003f8a0       ?addElement@?$BaseRefVectorOf@VXMLAttr@xercesc_3_2@@@xercesc_3_2@@QAEXQAVXMLAttr@2@@Z 100408a0 f i xerces-c_3:DOMXPathExpressionImpl.cpp.obj
 0001:0003f8a0       ?addElement@?$BaseRefVectorOf@VOp@xercesc_3_2@@@xercesc_3_2@@QAEXQAVOp@2@@Z 100408a0 f i xerces-c_3:Op.cpp.obj
 0001:0003f8a0       ?addElement@?$BaseRefVectorOf@VXercesLocationPath@xercesc_3_2@@@xercesc_3_2@@QAEXQAVXercesLocationPath@2@@Z 100408a0 f i xerces-c_3:XTemplateSerializer.cpp.obj
 0001:0003f8a0       ?addElement@?$BaseRefVectorOf@VSchemaInfo@xercesc_3_2@@@xercesc_3_2@@QAEXQAVSchemaInfo@2@@Z 100408a0 f i xerces-c_3:TraverseSchema.cpp.obj
 0001:0003f8a0       ?addElement@?$BaseRefVectorOf@VXSAttributeUse@xercesc_3_2@@@xercesc_3_2@@QAEXQAVXSAttributeUse@2@@Z 100408a0 f i xerces-c_3:XSObjectFactory.cpp.obj
 0001:0003f8a0       ?addElement@?$BaseRefVectorOf@VSchemaAttDef@xercesc_3_2@@@xercesc_3_2@@QAEXQAVSchemaAttDef@2@@Z 100408a0 f i xerces-c_3:XTemplateSerializer.cpp.obj
 0001:0003f8a0       ?addElement@?$BaseRefVectorOf@VDatatypeValidator@xercesc_3_2@@@xercesc_3_2@@QAEXQAVDatatypeValidator@2@@Z 100408a0 f i xerces-c_3:XTemplateSerializer.cpp.obj
 0001:0003f8a0       ?addElement@?$BaseRefVectorOf@VXMLElementDecl@xercesc_3_2@@@xercesc_3_2@@QAEXQAVXMLElementDecl@2@@Z 100408a0 f i xerces-c_3:WFXMLScanner.cpp.obj
 0001:0003f8a0       ?addElement@?$BaseRefVectorOf@VXSMultiValueFacet@xercesc_3_2@@@xercesc_3_2@@QAEXQAVXSMultiValueFacet@2@@Z 100408a0 f i xerces-c_3:XSObjectFactory.cpp.obj
 0001:0003f8a0       ?addElement@?$BaseRefVectorOf@VXSObject@xercesc_3_2@@@xercesc_3_2@@QAEXQAVXSObject@2@@Z 100408a0 f i xerces-c_3:XSModel.cpp.obj
 0001:0003f8a0       ?addElement@?$BaseRefVectorOf@VXSNamespaceItem@xercesc_3_2@@@xercesc_3_2@@QAEXQAVXSNamespaceItem@2@@Z 100408a0 f i xerces-c_3:XSModel.cpp.obj
 0001:0003f8a0       ?addElement@?$BaseRefVectorOf@VXSAnnotation@xercesc_3_2@@@xercesc_3_2@@QAEXQAVXSAnnotation@2@@Z 100408a0 f i xerces-c_3:XSModel.cpp.obj
 0001:0003f8a0       ?addElement@?$BaseRefVectorOf@_W@xercesc_3_2@@QAEXQA_W@Z 100408a0 f i xerces-c_3:XMLString.cpp.obj
 0001:0003f940       ?binToText@XMLString@xercesc_3_2@@SAXHQA_WIIQAVMemoryManager@2@@Z 10040940 f   xerces-c_3:XMLString.cpp.obj
 0001:0003f980       ?binToText@XMLString@xercesc_3_2@@SAXIQA_WIIQAVMemoryManager@2@@Z 10040980 f   xerces-c_3:XMLString.cpp.obj
 0001:0003f990       ?binToText@XMLString@xercesc_3_2@@SAXKQA_WIIQAVMemoryManager@2@@Z 10040990 f   xerces-c_3:XMLString.cpp.obj
 0001:0003fb30       ?catString@XMLString@xercesc_3_2@@SAXQA_WQB_W@Z 10040b30 f   xerces-c_3:XMLString.cpp.obj
 0001:0003fb80       ?cleanup@?$BaseRefVectorOf@_W@xercesc_3_2@@UAEXXZ 10040b80 f i xerces-c_3:XMLString.cpp.obj
 0001:0003fbc0       ?cleanup@?$RefArrayVectorOf@_W@xercesc_3_2@@UAEXXZ 10040bc0 f i xerces-c_3:XMLString.cpp.obj
 0001:0003fc00       ?collapseWS@XMLString@xercesc_3_2@@SAXPA_WQAVMemoryManager@2@@Z 10040c00 f   xerces-c_3:XMLString.cpp.obj
 0001:0003fda0       ?compareIStringASCII@XMLString@xercesc_3_2@@SAHQB_W0@Z 10040da0 f   xerces-c_3:XMLString.cpp.obj
 0001:0003fe40       ?compareNIString@XMLString@xercesc_3_2@@SAHQB_W0I@Z 10040e40 f   xerces-c_3:XMLString.cpp.obj
 0001:0003fe60       ?compareNString@XMLString@xercesc_3_2@@SAHQBD0I@Z 10040e60 f   xerces-c_3:XMLString.cpp.obj
 0001:0003fe80       ?compareNString@XMLString@xercesc_3_2@@SAHQB_W0I@Z 10040e80 f   xerces-c_3:XMLString.cpp.obj
 0001:0003fed0       ?compareString@XMLString@xercesc_3_2@@SAHQB_W0@Z 10040ed0 f   xerces-c_3:XMLString.cpp.obj
 0001:0003ff70       ?copyNString@XMLString@xercesc_3_2@@SA_NQA_WQB_WI@Z 10040f70 f   xerces-c_3:XMLString.cpp.obj
 0001:0003ffd0       ?copyString@XMLString@xercesc_3_2@@SAXQA_WQB_W@Z 10040fd0 f   xerces-c_3:XMLString.cpp.obj
 0001:00040000       ?cut@XMLString@xercesc_3_2@@SAXQA_WI@Z 10041000 f   xerces-c_3:XMLString.cpp.obj
 0001:00040040       ?duplicate@IllegalArgumentException@xercesc_3_2@@UBEPAVXMLException@2@XZ 10041040 f i xerces-c_3:XMLString.cpp.obj
 0001:000400c0       ?duplicate@NumberFormatException@xercesc_3_2@@UBEPAVXMLException@2@XZ 100410c0 f i xerces-c_3:XMLString.cpp.obj
 0001:00040140       ?findAny@XMLString@xercesc_3_2@@SAPB_WQB_W0@Z 10041140 f   xerces-c_3:XMLString.cpp.obj
 0001:00040140       ?findAny@XMLString@xercesc_3_2@@SAPA_WQA_WQB_W@Z 10041140 f   xerces-c_3:XMLString.cpp.obj
 0001:000401a0       ?fixURI@XMLString@xercesc_3_2@@SAXQB_WQA_W@Z 100411a0 f   xerces-c_3:XMLString.cpp.obj
 0001:00040310       ?getType@IllegalArgumentException@xercesc_3_2@@UBEPB_WXZ 10041310 f i xerces-c_3:XMLString.cpp.obj
 0001:00040320       ?getType@NumberFormatException@xercesc_3_2@@UBEPB_WXZ 10041320 f i xerces-c_3:XMLString.cpp.obj
 0001:00040330       ?indexOf@XMLString@xercesc_3_2@@SAHQB_W_W@Z 10041330 f   xerces-c_3:XMLString.cpp.obj
 0001:00040370       ?indexOf@XMLString@xercesc_3_2@@SAHQB_W_WIQAVMemoryManager@2@@Z 10041370 f   xerces-c_3:XMLString.cpp.obj
 0001:00040410       ?initString@XMLString@xercesc_3_2@@CAXQAVXMLLCPTranscoder@2@QAVMemoryManager@2@@Z 10041410 f   xerces-c_3:XMLString.cpp.obj
 0001:00040430       ?isAlpha@XMLString@xercesc_3_2@@SA_N_W@Z 10041430 f   xerces-c_3:XMLString.cpp.obj
 0001:00040450       ?isAlphaNum@XMLString@xercesc_3_2@@SA_N_W@Z 10041450 f   xerces-c_3:XMLString.cpp.obj
 0001:00040480       ?isDigit@XMLString@xercesc_3_2@@SA_N_W@Z 10041480 f   xerces-c_3:XMLString.cpp.obj
 0001:00040490       ?isHex@XMLString@xercesc_3_2@@SA_N_W@Z 10041490 f   xerces-c_3:XMLString.cpp.obj
 0001:000404c0       ?isInList@XMLString@xercesc_3_2@@SA_NQB_W0@Z 100414c0 f   xerces-c_3:XMLString.cpp.obj
 0001:00040560       ?isValidEncName@XMLString@xercesc_3_2@@SA_NQB_W@Z 10041560 f   xerces-c_3:XMLString.cpp.obj
 0001:000405e0       ?isValidNOTATION@XMLString@xercesc_3_2@@SA_NQB_WQAVMemoryManager@2@@Z 100415e0 f   xerces-c_3:XMLString.cpp.obj
 0001:00040770       ?isWSCollapsed@XMLString@xercesc_3_2@@SA_NQB_W@Z 10041770 f   xerces-c_3:XMLString.cpp.obj
 0001:00040800       ?isWSReplaced@XMLString@xercesc_3_2@@SA_NQB_W@Z 10041800 f   xerces-c_3:XMLString.cpp.obj
 0001:00040840       ?lastIndexOf@XMLString@xercesc_3_2@@SAH_WQB_WI@Z 10041840 f   xerces-c_3:XMLString.cpp.obj
 0001:00040880       ?lowerCase@XMLString@xercesc_3_2@@SAXQA_W@Z 10041880 f   xerces-c_3:XMLString.cpp.obj
 0001:00040890       ?moveChars@XMLString@xercesc_3_2@@SAXQA_WQB_WI@Z 10041890 f i xerces-c_3:XMLString.cpp.obj
 0001:000408a0       ?parseInt@XMLString@xercesc_3_2@@SAHQB_WQAVMemoryManager@2@@Z 100418a0 f   xerces-c_3:XMLString.cpp.obj
 0001:00040a30       ?patternMatch@XMLString@xercesc_3_2@@SAHQB_W0@Z 10041a30 f   xerces-c_3:XMLString.cpp.obj
 0001:00040ad0       ?regionIMatches@XMLString@xercesc_3_2@@SA_NQB_WH0HI@Z 10041ad0 f   xerces-c_3:XMLString.cpp.obj
 0001:00040b60       ?regionMatches@XMLString@xercesc_3_2@@SA_NQB_WH0HI@Z 10041b60 f   xerces-c_3:XMLString.cpp.obj
 0001:00040c30       ?release@XMLString@xercesc_3_2@@SAXPAPA_WQAVMemoryManager@2@@Z 10041c30 f   xerces-c_3:XMLString.cpp.obj
 0001:00040c50       ?removeAllElements@?$BaseRefVectorOf@_W@xercesc_3_2@@UAEXXZ 10041c50 f i xerces-c_3:XMLString.cpp.obj
 0001:00040ca0       ?removeAllElements@?$RefArrayVectorOf@_W@xercesc_3_2@@UAEXXZ 10041ca0 f i xerces-c_3:XMLString.cpp.obj
 0001:00040cf0       ?removeChar@XMLString@xercesc_3_2@@SAXQB_WAB_WAAVXMLBuffer@2@@Z 10041cf0 f   xerces-c_3:XMLString.cpp.obj
 0001:00040d50       ?removeElementAt@?$BaseRefVectorOf@_W@xercesc_3_2@@UAEXI@Z 10041d50 f i xerces-c_3:XMLString.cpp.obj
 0001:00040e00       ?removeElementAt@?$RefArrayVectorOf@_W@xercesc_3_2@@UAEXI@Z 10041e00 f i xerces-c_3:XMLString.cpp.obj
 0001:00040ea0       ?removeLastElement@?$BaseRefVectorOf@_W@xercesc_3_2@@UAEXXZ 10041ea0 f i xerces-c_3:XMLString.cpp.obj
 0001:00040ed0       ?removeLastElement@?$RefArrayVectorOf@_W@xercesc_3_2@@UAEXXZ 10041ed0 f i xerces-c_3:XMLString.cpp.obj
 0001:00040f00       ?removeWS@XMLString@xercesc_3_2@@SAXPA_WQAVMemoryManager@2@@Z 10041f00 f   xerces-c_3:XMLString.cpp.obj
 0001:00040f50       ?replaceTokens@XMLString@xercesc_3_2@@SAIQA_WIQB_W111QAVMemoryManager@2@@Z 10041f50 f   xerces-c_3:XMLString.cpp.obj
 0001:00041090       ?replaceWS@XMLString@xercesc_3_2@@SAXPA_WQAVMemoryManager@2@@Z 10042090 f   xerces-c_3:XMLString.cpp.obj
 0001:000410d0       ?replicate@XMLString@xercesc_3_2@@SAPADQBDQAVMemoryManager@2@@Z 100420d0 f   xerces-c_3:XMLString.cpp.obj
 0001:00041110       ?setElementAt@?$BaseRefVectorOf@_W@xercesc_3_2@@UAEXQA_WI@Z 10042110 f i xerces-c_3:XMLString.cpp.obj
 0001:00041170       ?setElementAt@?$RefArrayVectorOf@_W@xercesc_3_2@@UAEXQA_WI@Z 10042170 f i xerces-c_3:XMLString.cpp.obj
 0001:000411d0       ?sizeToText@XMLString@xercesc_3_2@@SAXIQA_WIIQAVMemoryManager@2@@Z 100421d0 f   xerces-c_3:XMLString.cpp.obj
 0001:00041370       ?stringLen@XMLString@xercesc_3_2@@SAIQBD@Z 10042370 f   xerces-c_3:XMLString.cpp.obj
 0001:00041390       ?subString@XMLString@xercesc_3_2@@SAXQA_WQB_WIIIQAVMemoryManager@2@@Z 10042390 f   xerces-c_3:XMLString.cpp.obj
 0001:00041440       ?subString@XMLString@xercesc_3_2@@SAXQA_WQB_WIIQAVMemoryManager@2@@Z 10042440 f   xerces-c_3:XMLString.cpp.obj
 0001:00041480       ?termString@XMLString@xercesc_3_2@@CAXXZ 10042480 f   xerces-c_3:XMLString.cpp.obj
 0001:000414b0       ?textToBin@XMLString@xercesc_3_2@@SA_NQB_WAAIQAVMemoryManager@2@@Z 100424b0 f   xerces-c_3:XMLString.cpp.obj
 0001:000416c0       ?tokenizeString@XMLString@xercesc_3_2@@SAPAV?$BaseRefVectorOf@_W@2@QB_WQAVMemoryManager@2@@Z 100426c0 f   xerces-c_3:XMLString.cpp.obj
 0001:00041900       ?transcode@XMLString@xercesc_3_2@@SAPADQB_WQAVMemoryManager@2@@Z 10042900 f   xerces-c_3:XMLString.cpp.obj
 0001:00041920       ?transcode@XMLString@xercesc_3_2@@SAPA_WQBDQAVMemoryManager@2@@Z 10042920 f   xerces-c_3:XMLString.cpp.obj
 0001:00041940       ?transcode@XMLString@xercesc_3_2@@SA_NQB_WQADIQAVMemoryManager@2@@Z 10042940 f   xerces-c_3:XMLString.cpp.obj
 0001:00041960       ?trim@XMLString@xercesc_3_2@@SAXQA_W@Z 10042960 f   xerces-c_3:XMLString.cpp.obj
 0001:00041a00       ?upperCase@XMLString@xercesc_3_2@@SAXQA_W@Z 10042a00 f   xerces-c_3:XMLString.cpp.obj
 0001:00041a10       ?upperCaseASCII@XMLString@xercesc_3_2@@SAXQA_W@Z 10042a10 f   xerces-c_3:XMLString.cpp.obj
 0001:00041a40       ??0InputSource@xercesc_3_2@@IAE@QAVMemoryManager@1@@Z 10042a40 f   xerces-c_3:InputSource.cpp.obj
 0001:00041a70       ??0InputSource@xercesc_3_2@@IAE@QBDQAVMemoryManager@1@@Z 10042a70 f   xerces-c_3:InputSource.cpp.obj
 0001:00041ab0       ??0InputSource@xercesc_3_2@@IAE@QB_WQAVMemoryManager@1@@Z 10042ab0 f   xerces-c_3:InputSource.cpp.obj
 0001:00041b30       ??1InputSource@xercesc_3_2@@UAE@XZ 10042b30 f   xerces-c_3:InputSource.cpp.obj
 0001:00041b90       ??_EInputSource@xercesc_3_2@@UAEPAXI@Z 10042b90 f i xerces-c_3:InputSource.cpp.obj
 0001:00041b90       ??_GInputSource@xercesc_3_2@@UAEPAXI@Z 10042b90 f i xerces-c_3:InputSource.cpp.obj
 0001:00041c30       ?setEncoding@InputSource@xercesc_3_2@@UAEXQB_W@Z 10042c30 f   xerces-c_3:InputSource.cpp.obj
 0001:00041ca0       ?setPublicId@InputSource@xercesc_3_2@@UAEXQB_W@Z 10042ca0 f   xerces-c_3:InputSource.cpp.obj
 0001:00041d10       ?setSystemId@InputSource@xercesc_3_2@@UAEXQB_W@Z 10042d10 f   xerces-c_3:InputSource.cpp.obj
 0001:00041d80       ??0LocalFileInputSource@xercesc_3_2@@QAE@QB_W0QAVMemoryManager@1@@Z 10042d80 f   xerces-c_3:LocalFileInputSource.cpp.obj
 0001:00041e70       ??0LocalFileInputSource@xercesc_3_2@@QAE@QB_WQAVMemoryManager@1@@Z 10042e70 f   xerces-c_3:LocalFileInputSource.cpp.obj
 0001:00042000       ??1LocalFileInputSource@xercesc_3_2@@UAE@XZ 10043000 f   xerces-c_3:LocalFileInputSource.cpp.obj
 0001:00042010       ??_ELocalFileInputSource@xercesc_3_2@@UAEPAXI@Z 10043010 f i xerces-c_3:LocalFileInputSource.cpp.obj
 0001:00042010       ??_GLocalFileInputSource@xercesc_3_2@@UAEPAXI@Z 10043010 f i xerces-c_3:LocalFileInputSource.cpp.obj
 0001:00042050       ?makeStream@LocalFileInputSource@xercesc_3_2@@UBEPAVBinInputStream@2@XZ 10043050 f   xerces-c_3:LocalFileInputSource.cpp.obj
 0001:000420f0       ??0BinFileInputStream@xercesc_3_2@@QAE@QB_WQAVMemoryManager@1@@Z 100430f0 f   xerces-c_3:BinFileInputStream.cpp.obj
 0001:00042160       ??1BinFileInputStream@xercesc_3_2@@UAE@XZ 10043160 f   xerces-c_3:BinFileInputStream.cpp.obj
 0001:000421e0       ??_GBinFileInputStream@xercesc_3_2@@UAEPAXI@Z 100431e0 f i xerces-c_3:BinFileInputStream.cpp.obj
 0001:000421e0       ??_EBinFileInputStream@xercesc_3_2@@UAEPAXI@Z 100431e0 f i xerces-c_3:BinFileInputStream.cpp.obj
 0001:00042220       ?curPos@BinFileInputStream@xercesc_3_2@@UBE_KXZ 10043220 f   xerces-c_3:BinFileInputStream.cpp.obj
 0001:00042230       ?getSize@BinFileInputStream@xercesc_3_2@@QBE_KXZ 10043230 f   xerces-c_3:BinFileInputStream.cpp.obj
 0001:00042240       ?readBytes@BinFileInputStream@xercesc_3_2@@UAEIQAEI@Z 10043240 f   xerces-c_3:BinFileInputStream.cpp.obj
 0001:00042260       ??0BinInputStream@xercesc_3_2@@IAE@XZ 10043260 f   xerces-c_3:BinInputStream.cpp.obj
 0001:00042270       ??1BinInputStream@xercesc_3_2@@UAE@XZ 10043270 f   xerces-c_3:BinInputStream.cpp.obj
 0001:00042280       ??_GBinInputStream@xercesc_3_2@@UAEPAXI@Z 10043280 f i xerces-c_3:BinInputStream.cpp.obj
 0001:00042280       ??_EBinInputStream@xercesc_3_2@@UAEPAXI@Z 10043280 f i xerces-c_3:BinInputStream.cpp.obj
 0001:000422c0       ??0XMLException@xercesc_3_2@@QAE@ABV01@@Z 100432c0 f   xerces-c_3:XMLException.cpp.obj
 0001:00042350       ??0XMLException@xercesc_3_2@@QAE@QBD_KQAVMemoryManager@1@@Z 10043350 f   xerces-c_3:XMLException.cpp.obj
 0001:000423b0       ??1XMLException@xercesc_3_2@@UAE@XZ 100433b0 f   xerces-c_3:XMLException.cpp.obj
 0001:00042410       ??_EXMLException@xercesc_3_2@@UAEPAXI@Z 10043410 f i xerces-c_3:XMLException.cpp.obj
 0001:00042410       ??_GXMLException@xercesc_3_2@@UAEPAXI@Z 10043410 f i xerces-c_3:XMLException.cpp.obj
 0001:000424a0       ?initializeXMLException@XMLInitializer@xercesc_3_2@@CAXXZ 100434a0 f   xerces-c_3:XMLException.cpp.obj
 0001:000424c0       ?loadExceptText@XMLException@xercesc_3_2@@IAEXW4Codes@XMLExcepts@2@@Z 100434c0 f   xerces-c_3:XMLException.cpp.obj
 0001:000425a0       ?loadExceptText@XMLException@xercesc_3_2@@IAEXW4Codes@XMLExcepts@2@QBD111@Z 100435a0 f   xerces-c_3:XMLException.cpp.obj
 0001:000426c0       ?loadExceptText@XMLException@xercesc_3_2@@IAEXW4Codes@XMLExcepts@2@QB_W111@Z 100436c0 f   xerces-c_3:XMLException.cpp.obj
 0001:000427e0       ?terminateXMLException@XMLInitializer@xercesc_3_2@@CAXXZ 100437e0 f   xerces-c_3:XMLException.cpp.obj
 0001:00042800       ??0XMLMutex@xercesc_3_2@@QAE@QAVMemoryManager@1@@Z 10043800 f   xerces-c_3:Mutexes.cpp.obj
 0001:00042830       ??0XMLMutexLock@xercesc_3_2@@QAE@QAVXMLMutex@1@@Z 10043830 f   xerces-c_3:Mutexes.cpp.obj
 0001:00042850       ??1XMLMutex@xercesc_3_2@@QAE@XZ 10043850 f   xerces-c_3:Mutexes.cpp.obj
 0001:000428a0       ??1XMLMutexLock@xercesc_3_2@@QAE@XZ 100438a0 f   xerces-c_3:Mutexes.cpp.obj
 0001:000428e0       ?isAllSpaces@XMLChar1_0@xercesc_3_2@@SA_NQB_WI@Z 100438e0 f   xerces-c_3:XMLChar.cpp.obj
 0001:00042910       ?isAllSpaces@XMLChar1_1@xercesc_3_2@@SA_NQB_WI@Z 10043910 f   xerces-c_3:XMLChar.cpp.obj
 0001:00042940       ?isPublicIdChar@XMLChar1_1@xercesc_3_2@@SA_N_W0@Z 10043940 f   xerces-c_3:XMLChar.cpp.obj
 0001:00042940       ?isPublicIdChar@XMLChar1_0@xercesc_3_2@@SA_N_W0@Z 10043940 f   xerces-c_3:XMLChar.cpp.obj
 0001:000429c0       ?isValidNCName@XMLChar1_0@xercesc_3_2@@SA_NQB_WI@Z 100439c0 f   xerces-c_3:XMLChar.cpp.obj
 0001:00042a10       ?isValidNCName@XMLChar1_1@xercesc_3_2@@SA_NQB_WI@Z 10043a10 f   xerces-c_3:XMLChar.cpp.obj
 0001:00042ad0       ?isValidName@XMLChar1_0@xercesc_3_2@@SA_NQB_W@Z 10043ad0 f   xerces-c_3:XMLChar.cpp.obj
 0001:00042b10       ?isValidName@XMLChar1_1@xercesc_3_2@@SA_NQB_W@Z 10043b10 f   xerces-c_3:XMLChar.cpp.obj
 0001:00042bc0       ?isValidNmtoken@XMLChar1_0@xercesc_3_2@@SA_NQB_WI@Z 10043bc0 f   xerces-c_3:XMLChar.cpp.obj
 0001:00042bf0       ?isValidNmtoken@XMLChar1_1@xercesc_3_2@@SA_NQB_WI@Z 10043bf0 f   xerces-c_3:XMLChar.cpp.obj
 0001:00042c70       ?isValidQName@XMLChar1_0@xercesc_3_2@@SA_NQB_WI@Z 10043c70 f   xerces-c_3:XMLChar.cpp.obj
 0001:00042ce0       ?isValidQName@XMLChar1_1@xercesc_3_2@@SA_NQB_WI@Z 10043ce0 f   xerces-c_3:XMLChar.cpp.obj
 0001:00042d40       ?panic@DefaultPanicHandler@xercesc_3_2@@UAEXW4PanicReasons@PanicHandler@2@@Z 10043d40 f   xerces-c_3:DefaultPanicHandler.cpp.obj
 0001:00042d70       _fprintf                   10043d70 f i xerces-c_3:DefaultPanicHandler.cpp.obj
 0001:00042da0       ??0TranscodingException@xercesc_3_2@@QAE@ABV01@@Z 10043da0 f i xerces-c_3:TransService.cpp.obj
 0001:00042dc0       ??0TranscodingException@xercesc_3_2@@QAE@QBD_KW4Codes@XMLExcepts@1@PAVMemoryManager@1@@Z 10043dc0 f i xerces-c_3:TransService.cpp.obj
 0001:00042e30       ??0XMLLCPTranscoder@xercesc_3_2@@IAE@XZ 10043e30 f   xerces-c_3:TransService.cpp.obj
 0001:00042e40       ??0XMLTransService@xercesc_3_2@@IAE@XZ 10043e40 f   xerces-c_3:TransService.cpp.obj
 0001:00042e50       ??0XMLTranscoder@xercesc_3_2@@IAE@QB_WIQAVMemoryManager@1@@Z 10043e50 f   xerces-c_3:TransService.cpp.obj
 0001:00042ed0       ??1?$Janitor@VIC_Unique@xercesc_3_2@@@xercesc_3_2@@QAE@XZ 10043ed0 f i xerces-c_3:TraverseSchema.cpp.obj
 0001:00042ed0       ??1TokenFactory@xercesc_3_2@@QAE@XZ 10043ed0 f i xerces-c_3:TokenFactory.cpp.obj
 0001:00042ed0       ??1?$Janitor@VMemBufInputSource@xercesc_3_2@@@xercesc_3_2@@QAE@XZ 10043ed0 f i xerces-c_3:TraverseSchema.cpp.obj
 0001:00042ed0       ??1?$Janitor@VContentSpecNode@xercesc_3_2@@@xercesc_3_2@@QAE@XZ 10043ed0 f i xerces-c_3:ComplexTypeInfo.cpp.obj
 0001:00042ed0       ??1?$Janitor@VXMLDateTime@xercesc_3_2@@@xercesc_3_2@@QAE@XZ 10043ed0 f i xerces-c_3:DateTimeDatatypeValidator.cpp.obj
 0001:00042ed0       ??1?$Janitor@VDTDElementDecl@xercesc_3_2@@@xercesc_3_2@@QAE@XZ 10043ed0 f i xerces-c_3:DGXMLScanner.cpp.obj
 0001:00042ed0       ??1?$Janitor@VDTDEntityDecl@xercesc_3_2@@@xercesc_3_2@@QAE@XZ 10043ed0 f i xerces-c_3:DGXMLScanner.cpp.obj
 0001:00042ed0       ??1?$Janitor@VXercesAttGroupInfo@xercesc_3_2@@@xercesc_3_2@@QAE@XZ 10043ed0 f i xerces-c_3:TraverseSchema.cpp.obj
 0001:00042ed0       ??1OpFactory@xercesc_3_2@@QAE@XZ 10043ed0 f i xerces-c_3:OpFactory.cpp.obj
 0001:00042ed0       ??1?$Janitor@VSchemaElementDecl@xercesc_3_2@@@xercesc_3_2@@QAE@XZ 10043ed0 f i xerces-c_3:TraverseSchema.cpp.obj
 0001:00042ed0       ??1?$Janitor@VIC_KeyRef@xercesc_3_2@@@xercesc_3_2@@QAE@XZ 10043ed0 f i xerces-c_3:TraverseSchema.cpp.obj
 0001:00042ed0       ??1?$Janitor@VIC_Key@xercesc_3_2@@@xercesc_3_2@@QAE@XZ 10043ed0 f i xerces-c_3:TraverseSchema.cpp.obj
 0001:00042ed0       ??1?$Janitor@V?$RefVectorOf@VDatatypeValidator@xercesc_3_2@@@xercesc_3_2@@@xercesc_3_2@@QAE@XZ 10043ed0 f i xerces-c_3:TraverseSchema.cpp.obj
 0001:00042ed0       ??1?$Janitor@VXMLGrammarDescription@xercesc_3_2@@@xercesc_3_2@@QAE@XZ 10043ed0 f i xerces-c_3:GrammarResolver.cpp.obj
 0001:00042ed0       ??1?$Janitor@VBinInputStream@xercesc_3_2@@@xercesc_3_2@@QAE@XZ 10043ed0 f i xerces-c_3:ReaderMgr.cpp.obj
 0001:00042ed0       ??1?$Janitor@VInputSource@xercesc_3_2@@@xercesc_3_2@@QAE@XZ 10043ed0 f i xerces-c_3:XMLScanner.cpp.obj
 0001:00042ed0       ??1?$Janitor@V?$BaseRefVectorOf@_W@xercesc_3_2@@@xercesc_3_2@@QAE@XZ 10043ed0 f i xerces-c_3:SGXMLScanner.cpp.obj
 0001:00042ed0       ??1?$Janitor@VRegxParser@xercesc_3_2@@@xercesc_3_2@@QAE@XZ 10043ed0 f i xerces-c_3:RegularExpression.cpp.obj
 0001:00042ed0       ??1?$Janitor@V?$RefVectorOf@VXercesStep@xercesc_3_2@@@xercesc_3_2@@@xercesc_3_2@@QAE@XZ 10043ed0 f i xerces-c_3:XercesXPath.cpp.obj
 0001:00042ed0       ??1?$Janitor@VXMLFormatTarget@xercesc_3_2@@@xercesc_3_2@@QAE@XZ 10043ed0 f i xerces-c_3:DOMLSSerializerImpl.cpp.obj
 0001:00042ed0       ??1?$Janitor@VXMLTranscoder@xercesc_3_2@@@xercesc_3_2@@QAE@XZ 10043ed0 f i xerces-c_3:TransService.cpp.obj
 0001:00042ed0       ??1?$Janitor@VXercesGroupInfo@xercesc_3_2@@@xercesc_3_2@@QAE@XZ 10043ed0 f i xerces-c_3:TraverseSchema.cpp.obj
 0001:00042ed0       ??1?$Janitor@VXSAnnotation@xercesc_3_2@@@xercesc_3_2@@QAE@XZ 10043ed0 f i xerces-c_3:TraverseSchema.cpp.obj
 0001:00042ed0       ??1?$Janitor@VXMLSchemaDescription@xercesc_3_2@@@xercesc_3_2@@QAE@XZ 10043ed0 f i xerces-c_3:TraverseSchema.cpp.obj
 0001:00042ed0       ??1?$Janitor@VXSAXMLScanner@xercesc_3_2@@@xercesc_3_2@@QAE@XZ 10043ed0 f i xerces-c_3:TraverseSchema.cpp.obj
 0001:00042ed0       ??1?$Janitor@VSchemaAttDef@xercesc_3_2@@@xercesc_3_2@@QAE@XZ 10043ed0 f i xerces-c_3:TraverseSchema.cpp.obj
 0001:00042ed0       ??1?$Janitor@V?$RefArrayVectorOf@_W@xercesc_3_2@@@xercesc_3_2@@QAE@XZ 10043ed0 f i xerces-c_3:DatatypeValidatorFactory.cpp.obj
 0001:00042ef0       ??1TranscodingException@xercesc_3_2@@UAE@XZ 10043ef0 f i xerces-c_3:TransService.cpp.obj
 0001:00042f00       ??1XMLLCPTranscoder@xercesc_3_2@@UAE@XZ 10043f00 f   xerces-c_3:TransService.cpp.obj
 0001:00042f10       ??1XMLTransService@xercesc_3_2@@UAE@XZ 10043f10 f   xerces-c_3:TransService.cpp.obj
 0001:00042f20       ??1XMLTranscoder@xercesc_3_2@@UAE@XZ 10043f20 f   xerces-c_3:TransService.cpp.obj
 0001:00042f70       ??_E?$BaseRefVectorOf@VENameMap@xercesc_3_2@@@xercesc_3_2@@UAEPAXI@Z 10043f70 f i xerces-c_3:TransService.cpp.obj
 0001:00042f70       ??_G?$BaseRefVectorOf@VENameMap@xercesc_3_2@@@xercesc_3_2@@UAEPAXI@Z 10043f70 f i xerces-c_3:TransService.cpp.obj
 0001:00042fb0       ??_G?$EEndianNameMapFor@VXMLUTF16Transcoder@xercesc_3_2@@@xercesc_3_2@@UAEPAXI@Z 10043fb0 f i xerces-c_3:TransService.cpp.obj
 0001:00042fb0       ??_E?$EEndianNameMapFor@VXMLUTF16Transcoder@xercesc_3_2@@@xercesc_3_2@@UAEPAXI@Z 10043fb0 f i xerces-c_3:TransService.cpp.obj
 0001:00042fb0       ??_G?$EEndianNameMapFor@VXMLUCS4Transcoder@xercesc_3_2@@@xercesc_3_2@@UAEPAXI@Z 10043fb0 f i xerces-c_3:TransService.cpp.obj
 0001:00042fb0       ??_E?$EEndianNameMapFor@VXMLUCS4Transcoder@xercesc_3_2@@@xercesc_3_2@@UAEPAXI@Z 10043fb0 f i xerces-c_3:TransService.cpp.obj
 0001:00043040       ??_E?$ENameMapFor@VXMLIBM1140Transcoder@xercesc_3_2@@@xercesc_3_2@@UAEPAXI@Z 10044040 f i xerces-c_3:TransService.cpp.obj
 0001:00043040       ??_G?$ENameMapFor@VXMLEBCDICTranscoder@xercesc_3_2@@@xercesc_3_2@@UAEPAXI@Z 10044040 f i xerces-c_3:TransService.cpp.obj
 0001:00043040       ??_E?$ENameMapFor@VXMLChTranscoder@xercesc_3_2@@@xercesc_3_2@@UAEPAXI@Z 10044040 f i xerces-c_3:TransService.cpp.obj
 0001:00043040       ??_E?$ENameMapFor@VXML88591Transcoder@xercesc_3_2@@@xercesc_3_2@@UAEPAXI@Z 10044040 f i xerces-c_3:TransService.cpp.obj
 0001:00043040       ??_G?$ENameMapFor@VXML88591Transcoder@xercesc_3_2@@@xercesc_3_2@@UAEPAXI@Z 10044040 f i xerces-c_3:TransService.cpp.obj
 0001:00043040       ??_G?$ENameMapFor@VXMLUTF8Transcoder@xercesc_3_2@@@xercesc_3_2@@UAEPAXI@Z 10044040 f i xerces-c_3:TransService.cpp.obj
 0001:00043040       ??_EENameMap@xercesc_3_2@@UAEPAXI@Z 10044040 f i xerces-c_3:TransService.cpp.obj
 0001:00043040       ??_GENameMap@xercesc_3_2@@UAEPAXI@Z 10044040 f i xerces-c_3:TransService.cpp.obj
 0001:00043040       ??_E?$ENameMapFor@VXMLASCIITranscoder@xercesc_3_2@@@xercesc_3_2@@UAEPAXI@Z 10044040 f i xerces-c_3:TransService.cpp.obj
 0001:00043040       ??_E?$ENameMapFor@VXMLEBCDICTranscoder@xercesc_3_2@@@xercesc_3_2@@UAEPAXI@Z 10044040 f i xerces-c_3:TransService.cpp.obj
 0001:00043040       ??_E?$ENameMapFor@VXMLIBM1047Transcoder@xercesc_3_2@@@xercesc_3_2@@UAEPAXI@Z 10044040 f i xerces-c_3:TransService.cpp.obj
 0001:00043040       ??_G?$ENameMapFor@VXMLWin1252Transcoder@xercesc_3_2@@@xercesc_3_2@@UAEPAXI@Z 10044040 f i xerces-c_3:TransService.cpp.obj
 0001:00043040       ??_G?$ENameMapFor@VXMLIBM1047Transcoder@xercesc_3_2@@@xercesc_3_2@@UAEPAXI@Z 10044040 f i xerces-c_3:TransService.cpp.obj
 0001:00043040       ??_E?$ENameMapFor@VXMLUTF8Transcoder@xercesc_3_2@@@xercesc_3_2@@UAEPAXI@Z 10044040 f i xerces-c_3:TransService.cpp.obj
 0001:00043040       ??_E?$ENameMapFor@VXMLWin1252Transcoder@xercesc_3_2@@@xercesc_3_2@@UAEPAXI@Z 10044040 f i xerces-c_3:TransService.cpp.obj
 0001:00043040       ??_G?$ENameMapFor@VXMLChTranscoder@xercesc_3_2@@@xercesc_3_2@@UAEPAXI@Z 10044040 f i xerces-c_3:TransService.cpp.obj
 0001:00043040       ??_G?$ENameMapFor@VXMLIBM1140Transcoder@xercesc_3_2@@@xercesc_3_2@@UAEPAXI@Z 10044040 f i xerces-c_3:TransService.cpp.obj
 0001:00043040       ??_G?$ENameMapFor@VXMLASCIITranscoder@xercesc_3_2@@@xercesc_3_2@@UAEPAXI@Z 10044040 f i xerces-c_3:TransService.cpp.obj
 0001:000430d0       ??_E?$RefVectorOf@VENameMap@xercesc_3_2@@@xercesc_3_2@@UAEPAXI@Z 100440d0 f i xerces-c_3:TransService.cpp.obj
 0001:000430d0       ??_G?$RefVectorOf@VENameMap@xercesc_3_2@@@xercesc_3_2@@UAEPAXI@Z 100440d0 f i xerces-c_3:TransService.cpp.obj
 0001:00043170       ??_ETranscodingException@xercesc_3_2@@UAEPAXI@Z 10044170 f i xerces-c_3:TransService.cpp.obj
 0001:00043170       ??_GTranscodingException@xercesc_3_2@@UAEPAXI@Z 10044170 f i xerces-c_3:TransService.cpp.obj
 0001:000431b0       ??_GXMLLCPTranscoder@xercesc_3_2@@UAEPAXI@Z 100441b0 f i xerces-c_3:TransService.cpp.obj
 0001:000431b0       ??_EXMLLCPTranscoder@xercesc_3_2@@UAEPAXI@Z 100441b0 f i xerces-c_3:TransService.cpp.obj
 0001:000431f0       ??_GXMLTransService@xercesc_3_2@@UAEPAXI@Z 100441f0 f i xerces-c_3:TransService.cpp.obj
 0001:000431f0       ??_EXMLTransService@xercesc_3_2@@UAEPAXI@Z 100441f0 f i xerces-c_3:TransService.cpp.obj
 0001:00043230       ??_GXMLTranscoder@xercesc_3_2@@UAEPAXI@Z 10044230 f i xerces-c_3:TransService.cpp.obj
 0001:00043230       ??_EXMLTranscoder@xercesc_3_2@@UAEPAXI@Z 10044230 f i xerces-c_3:TransService.cpp.obj
 0001:000432c0       ?duplicate@TranscodingException@xercesc_3_2@@UBEPAVXMLException@2@XZ 100442c0 f i xerces-c_3:TransService.cpp.obj
 0001:00043340       ?findBucketElem@?$RefHashTableOf@VXercesGroupInfo@xercesc_3_2@@UStringHasher@2@@xercesc_3_2@@AAEPAU?$RefHashTableBucketElem@VXercesGroupInfo@xercesc_3_2@@@2@QBXAAI@Z 10044340 f i xerces-c_3:XTemplateSerializer.cpp.obj
 0001:00043340       ?findBucketElem@?$RefHashTableOf@VXercesAttGroupInfo@xercesc_3_2@@UStringHasher@2@@xercesc_3_2@@AAEPAU?$RefHashTableBucketElem@VXercesAttGroupInfo@xercesc_3_2@@@2@QBXAAI@Z 10044340 f i xerces-c_3:XTemplateSerializer.cpp.obj
 0001:00043340       ?findBucketElem@?$RefHashTableOf@VXMLElementDecl@xercesc_3_2@@UStringHasher@2@@xercesc_3_2@@AAEPAU?$RefHashTableBucketElem@VXMLElementDecl@xercesc_3_2@@@2@QBXAAI@Z 10044340 f i xerces-c_3:WFXMLScanner.cpp.obj
 0001:00043340       ?findBucketElem@?$RefHashTableOf@VDTDEntityDecl@xercesc_3_2@@UStringHasher@2@@xercesc_3_2@@AAEPAU?$RefHashTableBucketElem@VDTDEntityDecl@xercesc_3_2@@@2@QBXAAI@Z 10044340 f i xerces-c_3:DTDGrammar.cpp.obj
 0001:00043340       ?findBucketElem@?$RefHashTableOf@VXMLRefInfo@xercesc_3_2@@UStringHasher@2@@xercesc_3_2@@AAEPAU?$RefHashTableBucketElem@VXMLRefInfo@xercesc_3_2@@@2@QBXAAI@Z 10044340 f i xerces-c_3:ValidationContextImpl.cpp.obj
 0001:00043340       ?findBucketElem@?$RefHashTableOf@VKVStringPair@xercesc_3_2@@UStringHasher@2@@xercesc_3_2@@AAEPAU?$RefHashTableBucketElem@VKVStringPair@xercesc_3_2@@@2@QBXAAI@Z 10044340 f i xerces-c_3:DatatypeValidatorFactory.cpp.obj
 0001:00043340       ?findBucketElem@?$RefHashTableOf@VENameMap@xercesc_3_2@@UStringHasher@2@@xercesc_3_2@@AAEPAU?$RefHashTableBucketElem@VENameMap@xercesc_3_2@@@2@QBXAAI@Z 10044340 f i xerces-c_3:TransService.cpp.obj
 0001:00043340       ?findBucketElem@?$RefHashTableOf@VCPMapEntry@xercesc_3_2@@UStringHasher@2@@xercesc_3_2@@AAEPAU?$RefHashTableBucketElem@VCPMapEntry@xercesc_3_2@@@2@QBXAAI@Z 10044340 f i xerces-c_3:Win32TransService.cpp.obj
 0001:00043340       ?findBucketElem@?$RefHashTableOf@VXSNamespaceItem@xercesc_3_2@@UStringHasher@2@@xercesc_3_2@@AAEPAU?$RefHashTableBucketElem@VXSNamespaceItem@xercesc_3_2@@@2@QBXAAI@Z 10044340 f i xerces-c_3:XSModel.cpp.obj
 0001:00043340       ?findBucketElem@?$RefHashTableOf@VGrammar@xercesc_3_2@@UStringHasher@2@@xercesc_3_2@@AAEPAU?$RefHashTableBucketElem@VGrammar@xercesc_3_2@@@2@QBXAAI@Z 10044340 f i xerces-c_3:GrammarResolver.cpp.obj
 0001:00043340       ?findBucketElem@?$RefHashTableOf@VDOMElement@xercesc_3_2@@UStringHasher@2@@xercesc_3_2@@AAEPAU?$RefHashTableBucketElem@VDOMElement@xercesc_3_2@@@2@QBXAAI@Z 10044340 f i xerces-c_3:SchemaInfo.cpp.obj
 0001:00043340       ?findBucketElem@?$RefHashTableOf@VDatatypeValidator@xercesc_3_2@@UStringHasher@2@@xercesc_3_2@@AAEPAU?$RefHashTableBucketElem@VDatatypeValidator@xercesc_3_2@@@2@QBXAAI@Z 10044340 f i xerces-c_3:GrammarResolver.cpp.obj
 0001:00043340       ?findBucketElem@?$RefHashTableOf@VComplexTypeInfo@xercesc_3_2@@UStringHasher@2@@xercesc_3_2@@AAEPAU?$RefHashTableBucketElem@VComplexTypeInfo@xercesc_3_2@@@2@QBXAAI@Z 10044340 f i xerces-c_3:XTemplateSerializer.cpp.obj
 0001:00043340       ?findBucketElem@?$RefHashTableOf@V?$ValueVectorOf@PAVSchemaElementDecl@xercesc_3_2@@@xercesc_3_2@@UStringHasher@2@@xercesc_3_2@@AAEPAU?$RefHashTableBucketElem@V?$ValueVectorOf@PAVSchemaElementDecl@xercesc_3_2@@@xercesc_3_2@@@2@QBXAAI@Z 10044340 f i xerces-c_3:TraverseSchema.cpp.obj
 0001:00043340       ?findBucketElem@?$RefHashTableOf@VDTDElementDecl@xercesc_3_2@@UStringHasher@2@@xercesc_3_2@@AAEPAU?$RefHashTableBucketElem@VDTDElementDecl@xercesc_3_2@@@2@QBXAAI@Z 10044340 f i xerces-c_3:DTDGrammar.cpp.obj
 0001:00043340       ?findBucketElem@?$RefHashTableOf@UPoolElem@XMLStringPool@xercesc_3_2@@UStringHasher@3@@xercesc_3_2@@AAEPAU?$RefHashTableBucketElem@UPoolElem@XMLStringPool@xercesc_3_2@@@2@QBXAAI@Z 10044340 f i xerces-c_3:StringPool.cpp.obj
 0001:00043340       ?findBucketElem@?$RefHashTableOf@VDTDAttDef@xercesc_3_2@@UStringHasher@2@@xercesc_3_2@@AAEPAU?$RefHashTableBucketElem@VDTDAttDef@xercesc_3_2@@@2@QBXAAI@Z 10044340 f i xerces-c_3:DTDElementDecl.cpp.obj
 0001:00043340       ?findBucketElem@?$RefHashTableOf@_WUStringHasher@xercesc_3_2@@@xercesc_3_2@@AAEPAU?$RefHashTableBucketElem@_W@2@QBXAAI@Z 10044340 f i xerces-c_3:DOMNormalizer.cpp.obj
 0001:00043340       ?findBucketElem@?$RefHashTableOf@VXMLNotationDecl@xercesc_3_2@@UStringHasher@2@@xercesc_3_2@@AAEPAU?$RefHashTableBucketElem@VXMLNotationDecl@xercesc_3_2@@@2@QBXAAI@Z 10044340 f i xerces-c_3:DTDGrammar.cpp.obj
 0001:00043340       ?findBucketElem@?$RefHashTableOf@VRangeFactory@xercesc_3_2@@UStringHasher@2@@xercesc_3_2@@AAEPAU?$RefHashTableBucketElem@VRangeFactory@xercesc_3_2@@@2@QBXAAI@Z 10044340 f i xerces-c_3:RangeTokenMap.cpp.obj
 0001:00043340       ?findBucketElem@?$RefHashTableOf@VXMLAttDef@xercesc_3_2@@UStringHasher@2@@xercesc_3_2@@AAEPAU?$RefHashTableBucketElem@VXMLAttDef@xercesc_3_2@@@2@QBXAAI@Z 10044340 f i xerces-c_3:SGXMLScanner.cpp.obj
 0001:00043340       ?findBucketElem@?$RefHashTableOf@VRangeTokenElemMap@xercesc_3_2@@UStringHasher@2@@xercesc_3_2@@AAEPAU?$RefHashTableBucketElem@VRangeTokenElemMap@xercesc_3_2@@@2@QBXAAI@Z 10044340 f i xerces-c_3:RangeTokenMap.cpp.obj
 0001:00043400       ?getType@TranscodingException@xercesc_3_2@@UBEPB_WXZ 10044400 f i xerces-c_3:TransService.cpp.obj
 0001:00043410       ?initTransService@XMLTransService@xercesc_3_2@@MAEXXZ 10044410 f   xerces-c_3:TransService.cpp.obj
 0001:000451f0       ?initializeTransService@XMLInitializer@xercesc_3_2@@KAXXZ 100461f0 f   xerces-c_3:TransService.cpp.obj
 0001:00045370       ?makeNew@?$EEndianNameMapFor@VXMLUCS4Transcoder@xercesc_3_2@@@xercesc_3_2@@UBEPAVXMLTranscoder@2@IQAVMemoryManager@2@@Z 10046370 f i xerces-c_3:TransService.cpp.obj
 0001:000453f0       ?makeNew@?$EEndianNameMapFor@VXMLUTF16Transcoder@xercesc_3_2@@@xercesc_3_2@@UBEPAVXMLTranscoder@2@IQAVMemoryManager@2@@Z 100463f0 f i xerces-c_3:TransService.cpp.obj
 0001:00045470       ?makeNew@?$ENameMapFor@VXML88591Transcoder@xercesc_3_2@@@xercesc_3_2@@UBEPAVXMLTranscoder@2@IQAVMemoryManager@2@@Z 10046470 f i xerces-c_3:TransService.cpp.obj
 0001:000454f0       ?makeNew@?$ENameMapFor@VXMLASCIITranscoder@xercesc_3_2@@@xercesc_3_2@@UBEPAVXMLTranscoder@2@IQAVMemoryManager@2@@Z 100464f0 f i xerces-c_3:TransService.cpp.obj
 0001:00045570       ?makeNew@?$ENameMapFor@VXMLChTranscoder@xercesc_3_2@@@xercesc_3_2@@UBEPAVXMLTranscoder@2@IQAVMemoryManager@2@@Z 10046570 f i xerces-c_3:TransService.cpp.obj
 0001:000455f0       ?makeNew@?$ENameMapFor@VXMLEBCDICTranscoder@xercesc_3_2@@@xercesc_3_2@@UBEPAVXMLTranscoder@2@IQAVMemoryManager@2@@Z 100465f0 f i xerces-c_3:TransService.cpp.obj
 0001:00045670       ?makeNew@?$ENameMapFor@VXMLIBM1047Transcoder@xercesc_3_2@@@xercesc_3_2@@UBEPAVXMLTranscoder@2@IQAVMemoryManager@2@@Z 10046670 f i xerces-c_3:TransService.cpp.obj
 0001:000456f0       ?makeNew@?$ENameMapFor@VXMLIBM1140Transcoder@xercesc_3_2@@@xercesc_3_2@@UBEPAVXMLTranscoder@2@IQAVMemoryManager@2@@Z 100466f0 f i xerces-c_3:TransService.cpp.obj
 0001:00045770       ?makeNew@?$ENameMapFor@VXMLUTF8Transcoder@xercesc_3_2@@@xercesc_3_2@@UBEPAVXMLTranscoder@2@IQAVMemoryManager@2@@Z 10046770 f i xerces-c_3:TransService.cpp.obj
 0001:000457f0       ?makeNew@?$ENameMapFor@VXMLWin1252Transcoder@xercesc_3_2@@@xercesc_3_2@@UBEPAVXMLTranscoder@2@IQAVMemoryManager@2@@Z 100467f0 f i xerces-c_3:TransService.cpp.obj
 0001:00045870       ?makeNewTranscoderFor@XMLTransService@xercesc_3_2@@QAEPAVXMLTranscoder@2@QB_WAAW4Codes@12@IQAVMemoryManager@2@@Z 10046870 f   xerces-c_3:TransService.cpp.obj
 0001:00045970       ?makeNewTranscoderFor@XMLTransService@xercesc_3_2@@QAEPAVXMLTranscoder@2@W4Encodings@XMLRecognizer@2@AAW4Codes@12@IQAVMemoryManager@2@@Z 10046970 f   xerces-c_3:TransService.cpp.obj
 0001:00045a30       ?put@?$RefHashTableOf@VRangeFactory@xercesc_3_2@@UStringHasher@2@@xercesc_3_2@@QAEXPAXQAVRangeFactory@2@@Z 10046a30 f i xerces-c_3:RangeTokenMap.cpp.obj
 0001:00045a30       ?put@?$RefHashTableOf@VDTDEntityDecl@xercesc_3_2@@UStringHasher@2@@xercesc_3_2@@QAEXPAXQAVDTDEntityDecl@2@@Z 10046a30 f i xerces-c_3:DTDGrammar.cpp.obj
 0001:00045a30       ?put@?$RefHashTableOf@VDTDAttDef@xercesc_3_2@@UStringHasher@2@@xercesc_3_2@@QAEXPAXQAVDTDAttDef@2@@Z 10046a30 f i xerces-c_3:DTDElementDecl.cpp.obj
 0001:00045a30       ?put@?$RefHashTableOf@VGrammar@xercesc_3_2@@UStringHasher@2@@xercesc_3_2@@QAEXPAXQAVGrammar@2@@Z 10046a30 f i xerces-c_3:GrammarResolver.cpp.obj
 0001:00045a30       ?put@?$RefHashTableOf@VXMLAttDef@xercesc_3_2@@UStringHasher@2@@xercesc_3_2@@QAEXPAXQAVXMLAttDef@2@@Z 10046a30 f i xerces-c_3:XTemplateSerializer.cpp.obj
 0001:00045a30       ?put@?$RefHashTableOf@VXMLElementDecl@xercesc_3_2@@UStringHasher@2@@xercesc_3_2@@QAEXPAXQAVXMLElementDecl@2@@Z 10046a30 f i xerces-c_3:WFXMLScanner.cpp.obj
 0001:00045a30       ?put@?$RefHashTableOf@VDTDElementDecl@xercesc_3_2@@UStringHasher@2@@xercesc_3_2@@QAEXPAXQAVDTDElementDecl@2@@Z 10046a30 f i xerces-c_3:DTDGrammar.cpp.obj
 0001:00045a30       ?put@?$RefHashTableOf@VENameMap@xercesc_3_2@@UStringHasher@2@@xercesc_3_2@@QAEXPAXQAVENameMap@2@@Z 10046a30 f i xerces-c_3:TransService.cpp.obj
 0001:00045a30       ?put@?$RefHashTableOf@VXercesGroupInfo@xercesc_3_2@@UStringHasher@2@@xercesc_3_2@@QAEXPAXQAVXercesGroupInfo@2@@Z 10046a30 f i xerces-c_3:XTemplateSerializer.cpp.obj
 0001:00045a30       ?put@?$RefHashTableOf@VComplexTypeInfo@xercesc_3_2@@UStringHasher@2@@xercesc_3_2@@QAEXPAXQAVComplexTypeInfo@2@@Z 10046a30 f i xerces-c_3:XTemplateSerializer.cpp.obj
 0001:00045a30       ?put@?$RefHashTableOf@VDatatypeValidator@xercesc_3_2@@UStringHasher@2@@xercesc_3_2@@QAEXPAXQAVDatatypeValidator@2@@Z 10046a30 f i xerces-c_3:DatatypeValidatorFactory.cpp.obj
 0001:00045a30       ?put@?$RefHashTableOf@VXercesAttGroupInfo@xercesc_3_2@@UStringHasher@2@@xercesc_3_2@@QAEXPAXQAVXercesAttGroupInfo@2@@Z 10046a30 f i xerces-c_3:XTemplateSerializer.cpp.obj
 0001:00045a30       ?put@?$RefHashTableOf@VXMLRefInfo@xercesc_3_2@@UStringHasher@2@@xercesc_3_2@@QAEXPAXQAVXMLRefInfo@2@@Z 10046a30 f i xerces-c_3:ValidationContextImpl.cpp.obj
 0001:00045a30       ?put@?$RefHashTableOf@VDOMElement@xercesc_3_2@@UStringHasher@2@@xercesc_3_2@@QAEXPAXQAVDOMElement@2@@Z 10046a30 f i xerces-c_3:SchemaInfo.cpp.obj
 0001:00045a30       ?put@?$RefHashTableOf@VKVStringPair@xercesc_3_2@@UStringHasher@2@@xercesc_3_2@@QAEXPAXQAVKVStringPair@2@@Z 10046a30 f i xerces-c_3:DatatypeValidatorFactory.cpp.obj
 0001:00045a30       ?put@?$RefHashTableOf@VXMLNotationDecl@xercesc_3_2@@UStringHasher@2@@xercesc_3_2@@QAEXPAXQAVXMLNotationDecl@2@@Z 10046a30 f i xerces-c_3:DTDGrammar.cpp.obj
 0001:00045be0       ?terminateTransService@XMLInitializer@xercesc_3_2@@KAXXZ 10046be0 f   xerces-c_3:TransService.cpp.obj
 0001:00045cd0       ?initializeStaticData@XMLInitializer@xercesc_3_2@@KAXXZ 10046cd0 f   xerces-c_3:XMLInitializer.cpp.obj
 0001:00045d80       ?terminateStaticData@XMLInitializer@xercesc_3_2@@KAXXZ 10046d80 f   xerces-c_3:XMLInitializer.cpp.obj
 0001:00045de0       ??0?$DOMDeepNodeListPool@VDOMDeepNodeListImpl@xercesc_3_2@@UPtrHasher@2@@xercesc_3_2@@QAE@I_NI@Z 10046de0 f i xerces-c_3:DOMDocumentImpl.cpp.obj
 0001:00045ea0       ??0DOMDocumentImpl@xercesc_3_2@@QAE@PAVDOMImplementation@1@QAVMemoryManager@1@@Z 10046ea0 f   xerces-c_3:DOMDocumentImpl.cpp.obj
 0001:00046090       ??0DOMDocumentImpl@xercesc_3_2@@QAE@PB_W0PAVDOMDocumentType@1@PAVDOMImplementation@1@QAVMemoryManager@1@@Z 10047090 f   xerces-c_3:DOMDocumentImpl.cpp.obj
 0001:000463b0       ??0EmptyStackException@xercesc_3_2@@QAE@ABV01@@Z 100473b0 f i xerces-c_3:DOMDocumentImpl.cpp.obj
 0001:000463d0       ??0EmptyStackException@xercesc_3_2@@QAE@QBD_KW4Codes@XMLExcepts@1@PAVMemoryManager@1@@Z 100473d0 f i xerces-c_3:DOMDocumentImpl.cpp.obj
 0001:00046440       ??0NoSuchElementException@xercesc_3_2@@QAE@ABV01@@Z 10047440 f i xerces-c_3:DOMDocumentImpl.cpp.obj
 0001:00046460       ??0NoSuchElementException@xercesc_3_2@@QAE@QBD_KW4Codes@XMLExcepts@1@PAVMemoryManager@1@@Z 10047460 f i xerces-c_3:DOMDocumentImpl.cpp.obj
 0001:000464d0       ??0NullPointerException@xercesc_3_2@@QAE@ABV01@@Z 100474d0 f i xerces-c_3:DOMDocumentImpl.cpp.obj
 0001:000464f0       ??0NullPointerException@xercesc_3_2@@QAE@QBD_KW4Codes@XMLExcepts@1@PAVMemoryManager@1@@Z 100474f0 f i xerces-c_3:DOMDocumentImpl.cpp.obj
 0001:00046560       ??1?$JanitorMemFunCall@VXPathMatcherStack@xercesc_3_2@@@xercesc_3_2@@QAE@XZ 10047560 f i xerces-c_3:XPathMatcherStack.cpp.obj
 0001:00046560       ??1?$JanitorMemFunCall@VFieldValueMap@xercesc_3_2@@@xercesc_3_2@@QAE@XZ 10047560 f i xerces-c_3:FieldValueMap.cpp.obj
 0001:00046560       ??1?$JanitorMemFunCall@VRangeTokenMap@xercesc_3_2@@@xercesc_3_2@@QAE@XZ 10047560 f i xerces-c_3:RangeTokenMap.cpp.obj
 0001:00046560       ??1?$JanitorMemFunCall@VValueStoreCache@xercesc_3_2@@@xercesc_3_2@@QAE@XZ 10047560 f i xerces-c_3:ValueStoreCache.cpp.obj
 0001:00046560       ??1?$JanitorMemFunCall@VXMLStringTokenizer@xercesc_3_2@@@xercesc_3_2@@QAE@XZ 10047560 f i xerces-c_3:XMLStringTokenizer.cpp.obj
 0001:00046560       ??1?$JanitorMemFunCall@VTraverseSchema@xercesc_3_2@@@xercesc_3_2@@QAE@XZ 10047560 f i xerces-c_3:TraverseSchema.cpp.obj
 0001:00046560       ??1?$JanitorMemFunCall@VXMLAttr@xercesc_3_2@@@xercesc_3_2@@QAE@XZ 10047560 f i xerces-c_3:XMLAttr.cpp.obj
 0001:00046560       ??1?$JanitorMemFunCall@VDOMXPathExpression@xercesc_3_2@@@xercesc_3_2@@QAE@XZ 10047560 f i xerces-c_3:DOMDocumentImpl.cpp.obj
 0001:00046560       ??1?$JanitorMemFunCall@VBMPattern@xercesc_3_2@@@xercesc_3_2@@QAE@XZ 10047560 f i xerces-c_3:BMPattern.cpp.obj
 0001:000465b0       ??1?$RefHash2KeysTableOfEnumerator@V?$KeyRefPair@XVDOMUserDataHandler@xercesc_3_2@@@xercesc_3_2@@UPtrHasher@2@@xercesc_3_2@@UAE@XZ 100475b0 f i xerces-c_3:DOMDocumentImpl.cpp.obj
 0001:000465e0       ??1?$RefVectorOf@VDOMBuffer@xercesc_3_2@@@xercesc_3_2@@UAE@XZ 100475e0 f i xerces-c_3:DOMDocumentImpl.cpp.obj
 0001:00046660       ??1?$RefVectorOf@VDOMNode@xercesc_3_2@@@xercesc_3_2@@UAE@XZ 10047660 f i xerces-c_3:DOMDocumentImpl.cpp.obj
 0001:000466e0       ??1?$ValueVectorEnumerator@H@xercesc_3_2@@UAE@XZ 100476e0 f i xerces-c_3:DOMDocumentImpl.cpp.obj
 0001:00046750       ??1?$ValueVectorOf@PAVContentSpecNode@xercesc_3_2@@@xercesc_3_2@@QAE@XZ 10047750 f i xerces-c_3:ContentSpecNode.cpp.obj
 0001:00046750       ??1?$ValueVectorOf@W4NodeTypes@ContentSpecNode@xercesc_3_2@@@xercesc_3_2@@QAE@XZ 10047750 f i xerces-c_3:MixedContentModel.cpp.obj
 0001:00046750       ??1?$ValueVectorOf@PAVXercesAttGroupInfo@xercesc_3_2@@@xercesc_3_2@@QAE@XZ 10047750 f i xerces-c_3:TraverseSchema.cpp.obj
 0001:00046750       ??1?$ValueVectorOf@_N@xercesc_3_2@@QAE@XZ 10047750 f i xerces-c_3:SGXMLScanner.cpp.obj
 0001:00046750       ??1?$ValueVectorOf@PAX@xercesc_3_2@@QAE@XZ 10047750 f i xerces-c_3:XSerializeEngine.cpp.obj
 0001:00046750       ??1?$ValueVectorOf@PAVQName@xercesc_3_2@@@xercesc_3_2@@QAE@XZ 10047750 f i xerces-c_3:AllContentModel.cpp.obj
 0001:00046750       ??1?$ValueVectorOf@I@xercesc_3_2@@QAE@XZ 10047750 f i xerces-c_3:WFXMLScanner.cpp.obj
 0001:00046750       ??1?$ValueVectorOf@PA_W@xercesc_3_2@@QAE@XZ 10047750 f i xerces-c_3:GrammarResolver.cpp.obj
 0001:00046750       ??1?$ValueVectorOf@H@xercesc_3_2@@QAE@XZ 10047750 f i xerces-c_3:DOMDocumentImpl.cpp.obj
 0001:00046790       ??1?$XMLEnumerator@V?$KeyRefPair@XVDOMUserDataHandler@xercesc_3_2@@@xercesc_3_2@@@xercesc_3_2@@UAE@XZ 10047790 f i xerces-c_3:DOMDocumentImpl.cpp.obj
 0001:000467a0       ??1DOMDocument@xercesc_3_2@@UAE@XZ 100477a0 f i xerces-c_3:DOMDocumentImpl.cpp.obj
 0001:000467c0       ??1DOMDocumentImpl@xercesc_3_2@@UAE@XZ 100477c0 f   xerces-c_3:DOMDocumentImpl.cpp.obj
 0001:00046a50       ??1DOMMemoryManager@xercesc_3_2@@UAE@XZ 10047a50 f i xerces-c_3:DOMDocumentImpl.cpp.obj
 0001:00046a60       ??1EmptyStackException@xercesc_3_2@@UAE@XZ 10047a60 f i xerces-c_3:DOMDocumentImpl.cpp.obj
 0001:00046a70       ??1HasDOMNodeImpl@xercesc_3_2@@UAE@XZ 10047a70 f i xerces-c_3:DOMDocumentImpl.cpp.obj
 0001:00046a80       ??1HasDOMParentImpl@xercesc_3_2@@UAE@XZ 10047a80 f i xerces-c_3:DOMDocumentImpl.cpp.obj
 0001:00046a90       ??1NoSuchElementException@xercesc_3_2@@UAE@XZ 10047a90 f i xerces-c_3:DOMDocumentImpl.cpp.obj
 0001:00046aa0       ??1NullPointerException@xercesc_3_2@@UAE@XZ 10047aa0 f i xerces-c_3:DOMDocumentImpl.cpp.obj
 0001:00046aab       ??_9DOMXPathExpression@xercesc_3_2@@$B7AE 10047aab f i xerces-c_3:DOMDocumentImpl.cpp.obj
 0001:00046ab0       ??_EDOMDocument@xercesc_3_2@@W3AEPAXI@Z 10047ab0 f i xerces-c_3:DOMDocumentImpl.cpp.obj
 0001:00046ab8       ??_EDOMDocument@xercesc_3_2@@W7AEPAXI@Z 10047ab8 f i xerces-c_3:DOMDocumentImpl.cpp.obj
 0001:00046ac0       ??_EDOMDocument@xercesc_3_2@@WM@AEPAXI@Z 10047ac0 f i xerces-c_3:DOMDocumentImpl.cpp.obj
 0001:00046ac8       ??_EDOMDocumentImpl@xercesc_3_2@@W3AEPAXI@Z 10047ac8 f i xerces-c_3:DOMDocumentImpl.cpp.obj
 0001:00046ad0       ??_EDOMDocumentImpl@xercesc_3_2@@W7AEPAXI@Z 10047ad0 f i xerces-c_3:DOMDocumentImpl.cpp.obj
 0001:00046ad8       ??_EDOMDocumentImpl@xercesc_3_2@@WBA@AEPAXI@Z 10047ad8 f i xerces-c_3:DOMDocumentImpl.cpp.obj
 0001:00046ae0       ??_EDOMDocumentImpl@xercesc_3_2@@WBE@AEPAXI@Z 10047ae0 f i xerces-c_3:DOMDocumentImpl.cpp.obj
 0001:00046ae8       ??_EDOMDocumentImpl@xercesc_3_2@@WBI@AEPAXI@Z 10047ae8 f i xerces-c_3:DOMDocumentImpl.cpp.obj
 0001:00046af0       ??_EDOMDocumentImpl@xercesc_3_2@@WM@AEPAXI@Z 10047af0 f i xerces-c_3:DOMDocumentImpl.cpp.obj
 0001:00046b00       ??_G?$BaseRefVectorOf@VDOMBuffer@xercesc_3_2@@@xercesc_3_2@@UAEPAXI@Z 10047b00 f i xerces-c_3:DOMDocumentImpl.cpp.obj
 0001:00046b00       ??_E?$BaseRefVectorOf@VDOMBuffer@xercesc_3_2@@@xercesc_3_2@@UAEPAXI@Z 10047b00 f i xerces-c_3:DOMDocumentImpl.cpp.obj
 0001:00046b40       ??_E?$BaseRefVectorOf@VDOMNode@xercesc_3_2@@@xercesc_3_2@@UAEPAXI@Z 10047b40 f i xerces-c_3:DOMDocumentImpl.cpp.obj
 0001:00046b40       ??_G?$BaseRefVectorOf@VDOMNode@xercesc_3_2@@@xercesc_3_2@@UAEPAXI@Z 10047b40 f i xerces-c_3:DOMDocumentImpl.cpp.obj
 0001:00046b80       ??_E?$BaseRefVectorOf@VDOMNodeIteratorImpl@xercesc_3_2@@@xercesc_3_2@@UAEPAXI@Z 10047b80 f i xerces-c_3:DOMDocumentImpl.cpp.obj
 0001:00046b80       ??_G?$BaseRefVectorOf@VDOMNodeIteratorImpl@xercesc_3_2@@@xercesc_3_2@@UAEPAXI@Z 10047b80 f i xerces-c_3:DOMDocumentImpl.cpp.obj
 0001:00046bc0       ??_E?$BaseRefVectorOf@VDOMRangeImpl@xercesc_3_2@@@xercesc_3_2@@UAEPAXI@Z 10047bc0 f i xerces-c_3:DOMDocumentImpl.cpp.obj
 0001:00046bc0       ??_G?$BaseRefVectorOf@VDOMRangeImpl@xercesc_3_2@@@xercesc_3_2@@UAEPAXI@Z 10047bc0 f i xerces-c_3:DOMDocumentImpl.cpp.obj
 0001:00046c00       ??_G?$RefHash2KeysTableOf@V?$KeyRefPair@XVDOMUserDataHandler@xercesc_3_2@@@xercesc_3_2@@UPtrHasher@2@@xercesc_3_2@@QAEPAXI@Z 10047c00 f i xerces-c_3:DOMDocumentImpl.cpp.obj
 0001:00046ce0       ??_G?$RefHash2KeysTableOfEnumerator@V?$KeyRefPair@XVDOMUserDataHandler@xercesc_3_2@@@xercesc_3_2@@UPtrHasher@2@@xercesc_3_2@@UAEPAXI@Z 10047ce0 f i xerces-c_3:DOMDocumentImpl.cpp.obj
 0001:00046ce0       ??_E?$RefHash2KeysTableOfEnumerator@V?$KeyRefPair@XVDOMUserDataHandler@xercesc_3_2@@@xercesc_3_2@@UPtrHasher@2@@xercesc_3_2@@UAEPAXI@Z 10047ce0 f i xerces-c_3:DOMDocumentImpl.cpp.obj
 0001:00046d30       ??_E?$RefVectorOf@VDOMBuffer@xercesc_3_2@@@xercesc_3_2@@UAEPAXI@Z 10047d30 f i xerces-c_3:DOMDocumentImpl.cpp.obj
 0001:00046d30       ??_G?$RefVectorOf@VDOMBuffer@xercesc_3_2@@@xercesc_3_2@@UAEPAXI@Z 10047d30 f i xerces-c_3:DOMDocumentImpl.cpp.obj
 0001:00046d70       ??_G?$RefVectorOf@VDOMNode@xercesc_3_2@@@xercesc_3_2@@UAEPAXI@Z 10047d70 f i xerces-c_3:DOMDocumentImpl.cpp.obj
 0001:00046d70       ??_E?$RefVectorOf@VDOMNode@xercesc_3_2@@@xercesc_3_2@@UAEPAXI@Z 10047d70 f i xerces-c_3:DOMDocumentImpl.cpp.obj
 0001:00046db0       ??_G?$RefVectorOf@VDOMNodeIteratorImpl@xercesc_3_2@@@xercesc_3_2@@UAEPAXI@Z 10047db0 f i xerces-c_3:DOMDocumentImpl.cpp.obj
 0001:00046db0       ??_E?$RefVectorOf@VDOMNodeIteratorImpl@xercesc_3_2@@@xercesc_3_2@@UAEPAXI@Z 10047db0 f i xerces-c_3:DOMDocumentImpl.cpp.obj
 0001:00046e50       ??_G?$RefVectorOf@VDOMRangeImpl@xercesc_3_2@@@xercesc_3_2@@UAEPAXI@Z 10047e50 f i xerces-c_3:DOMDocumentImpl.cpp.obj
 0001:00046e50       ??_E?$RefVectorOf@VDOMRangeImpl@xercesc_3_2@@@xercesc_3_2@@UAEPAXI@Z 10047e50 f i xerces-c_3:DOMDocumentImpl.cpp.obj
 0001:00046ef0       ??_E?$ValueVectorEnumerator@H@xercesc_3_2@@UAEPAXI@Z 10047ef0 f i xerces-c_3:DOMDocumentImpl.cpp.obj
 0001:00046ef0       ??_G?$ValueVectorEnumerator@H@xercesc_3_2@@UAEPAXI@Z 10047ef0 f i xerces-c_3:DOMDocumentImpl.cpp.obj
 0001:00046f80       ??_E?$XMLEnumerator@H@xercesc_3_2@@UAEPAXI@Z 10047f80 f i xerces-c_3:DOMDocumentImpl.cpp.obj
 0001:00046f80       ??_G?$XMLEnumerator@H@xercesc_3_2@@UAEPAXI@Z 10047f80 f i xerces-c_3:DOMDocumentImpl.cpp.obj
 0001:00046fb0       ??_E?$XMLEnumerator@V?$KeyRefPair@XVDOMUserDataHandler@xercesc_3_2@@@xercesc_3_2@@@xercesc_3_2@@UAEPAXI@Z 10047fb0 f i xerces-c_3:DOMDocumentImpl.cpp.obj
 0001:00046fb0       ??_G?$XMLEnumerator@V?$KeyRefPair@XVDOMUserDataHandler@xercesc_3_2@@@xercesc_3_2@@@xercesc_3_2@@UAEPAXI@Z 10047fb0 f i xerces-c_3:DOMDocumentImpl.cpp.obj
 0001:00046ff0       ??_GDOMDocument@xercesc_3_2@@UAEPAXI@Z 10047ff0 f i xerces-c_3:DOMDocumentImpl.cpp.obj
 0001:00046ff0       ??_EDOMDocument@xercesc_3_2@@UAEPAXI@Z 10047ff0 f i xerces-c_3:DOMDocumentImpl.cpp.obj
 0001:00047030       ??_EDOMDocumentImpl@xercesc_3_2@@UAEPAXI@Z 10048030 f i xerces-c_3:DOMDocumentImpl.cpp.obj
 0001:00047030       ??_GDOMDocumentImpl@xercesc_3_2@@UAEPAXI@Z 10048030 f i xerces-c_3:DOMDocumentImpl.cpp.obj
 0001:00047070       ??_EDOMDocumentRange@xercesc_3_2@@UAEPAXI@Z 10048070 f i xerces-c_3:DOMDocumentImpl.cpp.obj
 0001:00047070       ??_GDOMDocumentRange@xercesc_3_2@@UAEPAXI@Z 10048070 f i xerces-c_3:DOMDocumentImpl.cpp.obj
 0001:000470a0       ??_GDOMDocumentTraversal@xercesc_3_2@@UAEPAXI@Z 100480a0 f i xerces-c_3:DOMDocumentImpl.cpp.obj
 0001:000470a0       ??_EDOMDocumentTraversal@xercesc_3_2@@UAEPAXI@Z 100480a0 f i xerces-c_3:DOMDocumentImpl.cpp.obj
 0001:000470d0       ??_GDOMMemoryManager@xercesc_3_2@@UAEPAXI@Z 100480d0 f i xerces-c_3:DOMDocumentImpl.cpp.obj
 0001:000470d0       ??_EDOMMemoryManager@xercesc_3_2@@UAEPAXI@Z 100480d0 f i xerces-c_3:DOMDocumentImpl.cpp.obj
 0001:00047100       ??_EDOMNode@xercesc_3_2@@UAEPAXI@Z 10048100 f i xerces-c_3:DOMDocumentImpl.cpp.obj
 0001:00047100       ??_GDOMNode@xercesc_3_2@@UAEPAXI@Z 10048100 f i xerces-c_3:DOMDocumentImpl.cpp.obj
 0001:00047130       ??_EDOMXPathEvaluator@xercesc_3_2@@UAEPAXI@Z 10048130 f i xerces-c_3:DOMDocumentImpl.cpp.obj
 0001:00047130       ??_GDOMXPathEvaluator@xercesc_3_2@@UAEPAXI@Z 10048130 f i xerces-c_3:DOMDocumentImpl.cpp.obj
 0001:00047160       ??_GEmptyStackException@xercesc_3_2@@UAEPAXI@Z 10048160 f i xerces-c_3:DOMDocumentImpl.cpp.obj
 0001:00047160       ??_EEmptyStackException@xercesc_3_2@@UAEPAXI@Z 10048160 f i xerces-c_3:DOMDocumentImpl.cpp.obj
 0001:000471a0       ??_EHasDOMNodeImpl@xercesc_3_2@@UAEPAXI@Z 100481a0 f i xerces-c_3:DOMDocumentImpl.cpp.obj
 0001:000471a0       ??_GHasDOMNodeImpl@xercesc_3_2@@UAEPAXI@Z 100481a0 f i xerces-c_3:DOMDocumentImpl.cpp.obj
 0001:000471d0       ??_EHasDOMParentImpl@xercesc_3_2@@UAEPAXI@Z 100481d0 f i xerces-c_3:DOMDocumentImpl.cpp.obj
 0001:000471d0       ??_GHasDOMParentImpl@xercesc_3_2@@UAEPAXI@Z 100481d0 f i xerces-c_3:DOMDocumentImpl.cpp.obj
 0001:00047200       ??_GNoSuchElementException@xercesc_3_2@@UAEPAXI@Z 10048200 f i xerces-c_3:DOMDocumentImpl.cpp.obj
 0001:00047200       ??_ENoSuchElementException@xercesc_3_2@@UAEPAXI@Z 10048200 f i xerces-c_3:DOMDocumentImpl.cpp.obj
 0001:00047240       ??_GNullPointerException@xercesc_3_2@@UAEPAXI@Z 10048240 f i xerces-c_3:DOMDocumentImpl.cpp.obj
 0001:00047240       ??_ENullPointerException@xercesc_3_2@@UAEPAXI@Z 10048240 f i xerces-c_3:DOMDocumentImpl.cpp.obj
 0001:00047280       ?Reset@?$RefHash2KeysTableOfEnumerator@V?$KeyRefPair@XVDOMUserDataHandler@xercesc_3_2@@@xercesc_3_2@@UPtrHasher@2@@xercesc_3_2@@UAEXXZ 10048280 f i xerces-c_3:DOMDocumentImpl.cpp.obj
 0001:000472c0       ?Reset@?$ValueVectorEnumerator@H@xercesc_3_2@@UAEXXZ 100482c0 f i xerces-c_3:DOMDocumentImpl.cpp.obj
 0001:000472c0       ?reset@DOMNodeVector@xercesc_3_2@@QAEXXZ 100482c0 f i xerces-c_3:DOMNodeVector.cpp.obj
 0001:000472c0       ?Reset@?$BaseRefVectorEnumerator@VSchemaInfo@xercesc_3_2@@@xercesc_3_2@@UAEXXZ 100482c0 f i xerces-c_3:TraverseSchema.cpp.obj
 0001:000472d0       ?addElement@?$ValueVectorOf@PAVSchemaGrammar@xercesc_3_2@@@xercesc_3_2@@QAEXABQAVSchemaGrammar@2@@Z 100482d0 f i xerces-c_3:GrammarResolver.cpp.obj
 0001:000472d0       ?push@?$ValueStackOf@PAVContentSpecNode@xercesc_3_2@@@xercesc_3_2@@QAEXABQAVContentSpecNode@2@@Z 100482d0 f i xerces-c_3:ContentSpecNode.cpp.obj
 0001:000472d0       ?addElement@?$ValueVectorOf@PAVQName@xercesc_3_2@@@xercesc_3_2@@QAEXABQAVQName@2@@Z 100482d0 f i xerces-c_3:AllContentModel.cpp.obj
 0001:000472d0       ?push@?$ValueStackOf@PAVComplexTypeInfo@xercesc_3_2@@@xercesc_3_2@@QAEXABQAVComplexTypeInfo@2@@Z 100482d0 f i xerces-c_3:SchemaValidator.cpp.obj
 0001:000472d0       ?addElement@?$ValueVectorOf@PAUPrefMapElem@xercesc_3_2@@@xercesc_3_2@@QAEXABQAUPrefMapElem@2@@Z 100482d0 f i xerces-c_3:ElemStack.cpp.obj
 0001:000472d0       ?addElement@?$ValueVectorOf@PAVSchemaElementDecl@xercesc_3_2@@@xercesc_3_2@@QAEXABQAVSchemaElementDecl@2@@Z 100482d0 f i xerces-c_3:XTemplateSerializer.cpp.obj
 0001:000472d0       ?addElement@?$ValueVectorOf@PBVDOMElement@xercesc_3_2@@@xercesc_3_2@@QAEXABQBVDOMElement@2@@Z 100482d0 f i xerces-c_3:TraverseSchema.cpp.obj
 0001:000472d0       ?addElement@?$ValueVectorOf@PAVContentSpecNode@xercesc_3_2@@@xercesc_3_2@@QAEXABQAVContentSpecNode@2@@Z 100482d0 f i xerces-c_3:ContentSpecNode.cpp.obj
 0001:000472d0       ?addElement@?$ValueVectorOf@PAVDOMNode@xercesc_3_2@@@xercesc_3_2@@QAEXABQAVDOMNode@2@@Z 100482d0 f i xerces-c_3:GeneralAttributeCheck.cpp.obj
 0001:000472d0       ?addElement@?$ValueVectorOf@H@xercesc_3_2@@QAEXABH@Z 100482d0 f i xerces-c_3:DOMDocumentImpl.cpp.obj
 0001:000472d0       ?addElement@?$ValueVectorOf@I@xercesc_3_2@@QAEXABI@Z 100482d0 f i xerces-c_3:WFXMLScanner.cpp.obj
 0001:000473a0       ?adoptNode@DOMDocumentImpl@xercesc_3_2@@UAEPAVDOMNode@2@PAV32@@Z 100483a0 f   xerces-c_3:DOMDocumentImpl.cpp.obj
 0001:00047440       ?allocate@DOMDocumentImpl@xercesc_3_2@@UAEPAXI@Z 10048440 f   xerces-c_3:DOMDocumentImpl.cpp.obj
 0001:00047500       ?allocate@DOMDocumentImpl@xercesc_3_2@@UAEPAXIW4NodeObjectType@DOMMemoryManager@2@@Z 10048500 f   xerces-c_3:DOMDocumentImpl.cpp.obj
 0001:000475b0       ?appendChild@DOMDocumentImpl@xercesc_3_2@@UAEPAVDOMNode@2@PAV32@@Z 100485b0 f   xerces-c_3:DOMDocumentImpl.cpp.obj
 0001:000475c0       ?callUserDataHandlers@DOMDocumentImpl@xercesc_3_2@@QBEXPBVDOMNodeImpl@2@W4DOMOperationType@DOMUserDataHandler@2@PBVDOMNode@2@PAV62@@Z 100485c0 f   xerces-c_3:DOMDocumentImpl.cpp.obj
 0001:00047a30       ?changed@DOMDocumentImpl@xercesc_3_2@@UAEXXZ 10048a30 f   xerces-c_3:DOMDocumentImpl.cpp.obj
 0001:00047a40       ?cleanup@?$BaseRefVectorOf@VDOMBuffer@xercesc_3_2@@@xercesc_3_2@@UAEXXZ 10048a40 f i xerces-c_3:DOMDocumentImpl.cpp.obj
 0001:00047a80       ?cloneNode@DOMDocumentImpl@xercesc_3_2@@UBEPAVDOMNode@2@_N@Z 10048a80 f   xerces-c_3:DOMDocumentImpl.cpp.obj
 0001:00047d90       ?cloneString@DOMDocumentImpl@xercesc_3_2@@UAEPA_WPB_W@Z 10048d90 f   xerces-c_3:DOMDocumentImpl.cpp.obj
 0001:00047de0       ?compareDocumentPosition@DOMAttrImpl@xercesc_3_2@@UBEFPBVDOMNode@2@@Z 10048de0 f   xerces-c_3:DOMAttrImpl.cpp.obj
 0001:00047de0       ?compareDocumentPosition@DOMCommentImpl@xercesc_3_2@@UBEFPBVDOMNode@2@@Z 10048de0 f   xerces-c_3:DOMCommentImpl.cpp.obj
 0001:00047de0       ?compareDocumentPosition@DOMTextImpl@xercesc_3_2@@UBEFPBVDOMNode@2@@Z 10048de0 f   xerces-c_3:DOMTextImpl.cpp.obj
 0001:00047de0       ?compareDocumentPosition@DOMDocumentFragmentImpl@xercesc_3_2@@UBEFPBVDOMNode@2@@Z 10048de0 f   xerces-c_3:DOMDocumentFragmentImpl.cpp.obj
 0001:00047de0       ?compareDocumentPosition@DOMEntityImpl@xercesc_3_2@@UBEFPBVDOMNode@2@@Z 10048de0 f   xerces-c_3:DOMEntityImpl.cpp.obj
 0001:00047de0       ?compareDocumentPosition@DOMCDATASectionImpl@xercesc_3_2@@UBEFPBVDOMNode@2@@Z 10048de0 f   xerces-c_3:DOMCDATASectionImpl.cpp.obj
 0001:00047de0       ?compareDocumentPosition@DOMProcessingInstructionImpl@xercesc_3_2@@UBEFPBVDOMNode@2@@Z 10048de0 f   xerces-c_3:DOMProcessingInstructionImpl.cpp.obj
 0001:00047de0       ?compareDocumentPosition@DOMDocumentImpl@xercesc_3_2@@UBEFPBVDOMNode@2@@Z 10048de0 f   xerces-c_3:DOMDocumentImpl.cpp.obj
 0001:00047df0       ?createAttribute@DOMDocumentImpl@xercesc_3_2@@UAEPAVDOMAttr@2@PB_W@Z 10048df0 f   xerces-c_3:DOMDocumentImpl.cpp.obj
 0001:00047ec0       ?createAttributeNS@DOMDocumentImpl@xercesc_3_2@@UAEPAVDOMAttr@2@PB_W0@Z 10048ec0 f   xerces-c_3:DOMDocumentImpl.cpp.obj
 0001:00047f90       ?createCDATASection@DOMDocumentImpl@xercesc_3_2@@UAEPAVDOMCDATASection@2@PB_W@Z 10048f90 f   xerces-c_3:DOMDocumentImpl.cpp.obj
 0001:00048010       ?createComment@DOMDocumentImpl@xercesc_3_2@@UAEPAVDOMComment@2@PB_W@Z 10049010 f   xerces-c_3:DOMDocumentImpl.cpp.obj
 0001:00048090       ?createDocumentFragment@DOMDocumentImpl@xercesc_3_2@@UAEPAVDOMDocumentFragment@2@XZ 10049090 f   xerces-c_3:DOMDocumentImpl.cpp.obj
 0001:00048110       ?createDocumentType@DOMDocument@xercesc_3_2@@UAEPAVDOMDocumentType@2@PB_W00@Z 10049110 f i xerces-c_3:DOMDocumentImpl.cpp.obj
 0001:00048120       ?createDocumentType@DOMDocumentImpl@xercesc_3_2@@UAEPAVDOMDocumentType@2@PB_W00@Z 10049120 f   xerces-c_3:DOMDocumentImpl.cpp.obj
 0001:00048200       ?createDocumentType@DOMDocumentImpl@xercesc_3_2@@UAEPAVDOMDocumentType@2@PB_W@Z 10049200 f   xerces-c_3:DOMDocumentImpl.cpp.obj
 0001:000482d0       ?createElement@DOMDocumentImpl@xercesc_3_2@@UAEPAVDOMElement@2@PB_W@Z 100492d0 f   xerces-c_3:DOMDocumentImpl.cpp.obj
 0001:000483a0       ?createElementNS@DOMDocumentImpl@xercesc_3_2@@UAEPAVDOMElement@2@PB_W0@Z 100493a0 f   xerces-c_3:DOMDocumentImpl.cpp.obj
 0001:00048470       ?createElementNS@DOMDocumentImpl@xercesc_3_2@@UAEPAVDOMElement@2@PB_W0_K1@Z 10049470 f   xerces-c_3:DOMDocumentImpl.cpp.obj
 0001:00048550       ?createElementNoCheck@DOMDocumentImpl@xercesc_3_2@@UAEPAVDOMElement@2@PB_W@Z 10049550 f   xerces-c_3:DOMDocumentImpl.cpp.obj
 0001:000485d0       ?createEntity@DOMDocumentImpl@xercesc_3_2@@UAEPAVDOMEntity@2@PB_W@Z 100495d0 f   xerces-c_3:DOMDocumentImpl.cpp.obj
 0001:000486a0       ?createEntityReference@DOMDocumentImpl@xercesc_3_2@@UAEPAVDOMEntityReference@2@PB_W@Z 100496a0 f   xerces-c_3:DOMDocumentImpl.cpp.obj
 0001:00048770       ?createEntityReferenceByParser@DOMDocumentImpl@xercesc_3_2@@QAEPAVDOMEntityReference@2@PB_W@Z 10049770 f   xerces-c_3:DOMDocumentImpl.cpp.obj
 0001:00048840       ?createExpression@DOMDocumentImpl@xercesc_3_2@@UAEPAVDOMXPathExpression@2@PB_WPBVDOMXPathNSResolver@2@@Z 10049840 f   xerces-c_3:DOMDocumentImpl.cpp.obj
 0001:000488d0       ?createNSResolver@DOMDocumentImpl@xercesc_3_2@@UAEPAVDOMXPathNSResolver@2@PBVDOMNode@2@@Z 100498d0 f   xerces-c_3:DOMDocumentImpl.cpp.obj
 0001:00048950       ?createNodeIterator@DOMDocumentImpl@xercesc_3_2@@UAEPAVDOMNodeIterator@2@PAVDOMNode@2@KPAVDOMNodeFilter@2@_N@Z 10049950 f   xerces-c_3:DOMDocumentImpl.cpp.obj
 0001:00048b00       ?createNotation@DOMDocumentImpl@xercesc_3_2@@UAEPAVDOMNotation@2@PB_W@Z 10049b00 f   xerces-c_3:DOMDocumentImpl.cpp.obj
 0001:00048bd0       ?createProcessingInstruction@DOMDocumentImpl@xercesc_3_2@@UAEPAVDOMProcessingInstruction@2@PB_W0@Z 10049bd0 f   xerces-c_3:DOMDocumentImpl.cpp.obj
 0001:00048ca0       ?createRange@DOMDocumentImpl@xercesc_3_2@@UAEPAVDOMRange@2@XZ 10049ca0 f   xerces-c_3:DOMDocumentImpl.cpp.obj
 0001:00048e20       ?createTextNode@DOMDocumentImpl@xercesc_3_2@@UAEPAVDOMText@2@PB_W@Z 10049e20 f   xerces-c_3:DOMDocumentImpl.cpp.obj
 0001:00048ea0       ?createTreeWalker@DOMDocumentImpl@xercesc_3_2@@UAEPAVDOMTreeWalker@2@PAVDOMNode@2@KPAVDOMNodeFilter@2@_N@Z 10049ea0 f   xerces-c_3:DOMDocumentImpl.cpp.obj
 0001:00048f40       ?deleteHeap@DOMDocumentImpl@xercesc_3_2@@QAEXXZ 10049f40 f   xerces-c_3:DOMDocumentImpl.cpp.obj
 0001:00048f90       ?duplicate@EmptyStackException@xercesc_3_2@@UBEPAVXMLException@2@XZ 10049f90 f i xerces-c_3:DOMDocumentImpl.cpp.obj
 0001:00049010       ?duplicate@NoSuchElementException@xercesc_3_2@@UBEPAVXMLException@2@XZ 1004a010 f i xerces-c_3:DOMDocumentImpl.cpp.obj
 0001:00049090       ?duplicate@NullPointerException@xercesc_3_2@@UBEPAVXMLException@2@XZ 1004a090 f i xerces-c_3:DOMDocumentImpl.cpp.obj
 0001:00049110       ?evaluate@DOMDocumentImpl@xercesc_3_2@@UAEPAVDOMXPathResult@2@PB_WPBVDOMNode@2@PBVDOMXPathNSResolver@2@W4ResultType@32@PAV32@@Z 1004a110 f   xerces-c_3:DOMDocumentImpl.cpp.obj
 0001:00049190       ?findBucketElem@?$DOMDeepNodeListPool@VDOMDeepNodeListImpl@xercesc_3_2@@UPtrHasher@2@@xercesc_3_2@@AAEPAU?$DOMDeepNodeListPoolTableBucketElem@VDOMDeepNodeListImpl@xercesc_3_2@@@2@QBXQB_W1AAI@Z 1004a190 f i xerces-c_3:DOMDocumentImpl.cpp.obj
 0001:000492a0       ?findNext@?$RefHash2KeysTableOfEnumerator@V?$KeyRefPair@XVDOMUserDataHandler@xercesc_3_2@@@xercesc_3_2@@UPtrHasher@2@@xercesc_3_2@@AAEXXZ 1004a2a0 f i xerces-c_3:DOMDocumentImpl.cpp.obj
 0001:00049350       ?get@?$RefHash2KeysTableOf@V?$KeyRefPair@XVDOMUserDataHandler@xercesc_3_2@@@xercesc_3_2@@UPtrHasher@2@@xercesc_3_2@@QAEPAV?$KeyRefPair@XVDOMUserDataHandler@xercesc_3_2@@@2@QBXH@Z 1004a350 f i xerces-c_3:DOMDocumentImpl.cpp.obj
 0001:00049350       ?get@?$RefHash2KeysTableOf@VValueStore@xercesc_3_2@@UPtrHasher@2@@xercesc_3_2@@QAEPAVValueStore@2@QBXH@Z 1004a350 f i xerces-c_3:IdentityConstraintHandler.cpp.obj
 0001:00049390       ?getNodeValue@DOMDocumentImpl@xercesc_3_2@@UBEPB_WXZ 1004a390 f   xerces-c_3:DOMDocumentImpl.cpp.obj
 0001:00049390       ?getNamespaceURI@DOMTextImpl@xercesc_3_2@@UBEPB_WXZ 1004a390 f   xerces-c_3:DOMTextImpl.cpp.obj
 0001:00049390       ?getNamespaceURI@DOMCDATASectionImpl@xercesc_3_2@@UBEPB_WXZ 1004a390 f   xerces-c_3:DOMCDATASectionImpl.cpp.obj
 0001:00049390       ?getNextSibling@DOMDocumentImpl@xercesc_3_2@@UBEPAVDOMNode@2@XZ 1004a390 f   xerces-c_3:DOMDocumentImpl.cpp.obj
 0001:00049390       ?getFirstChild@DOMTextImpl@xercesc_3_2@@UBEPAVDOMNode@2@XZ 1004a390 f   xerces-c_3:DOMTextImpl.cpp.obj
 0001:00049390       ?getLastChild@DOMProcessingInstructionImpl@xercesc_3_2@@UBEPAVDOMNode@2@XZ 1004a390 f   xerces-c_3:DOMProcessingInstructionImpl.cpp.obj
 0001:00049390       ?getNamespaceURI@DOMDocumentFragmentImpl@xercesc_3_2@@UBEPB_WXZ 1004a390 f   xerces-c_3:DOMDocumentFragmentImpl.cpp.obj
 0001:00049390       ?getLocalName@DOMProcessingInstructionImpl@xercesc_3_2@@UBEPB_WXZ 1004a390 f   xerces-c_3:DOMProcessingInstructionImpl.cpp.obj
 0001:00049390       ?getPrefix@DOMCDATASectionImpl@xercesc_3_2@@UBEPB_WXZ 1004a390 f   xerces-c_3:DOMCDATASectionImpl.cpp.obj
 0001:00049390       ?getLastChild@DOMCommentImpl@xercesc_3_2@@UBEPAVDOMNode@2@XZ 1004a390 f   xerces-c_3:DOMCommentImpl.cpp.obj
 0001:00049390       ?getAttributes@DOMCDATASectionImpl@xercesc_3_2@@UBEPAVDOMNamedNodeMap@2@XZ 1004a390 f   xerces-c_3:DOMCDATASectionImpl.cpp.obj
 0001:00049390       ?getParentNode@DOMDocumentImpl@xercesc_3_2@@UBEPAVDOMNode@2@XZ 1004a390 f   xerces-c_3:DOMDocumentImpl.cpp.obj
 0001:00049390       ?getFirstChild@DOMCommentImpl@xercesc_3_2@@UBEPAVDOMNode@2@XZ 1004a390 f   xerces-c_3:DOMCommentImpl.cpp.obj
 0001:00049390       ?getNamespaceURI@DOMDocumentImpl@xercesc_3_2@@UBEPB_WXZ 1004a390 f   xerces-c_3:DOMDocumentImpl.cpp.obj
 0001:00049390       ?getNamespaceURI@DOMProcessingInstructionImpl@xercesc_3_2@@UBEPB_WXZ 1004a390 f   xerces-c_3:DOMProcessingInstructionImpl.cpp.obj
 0001:00049390       ?getAttributes@DOMDocumentFragmentImpl@xercesc_3_2@@UBEPAVDOMNamedNodeMap@2@XZ 1004a390 f   xerces-c_3:DOMDocumentFragmentImpl.cpp.obj
 0001:00049390       ?getPrefix@DOMProcessingInstructionImpl@xercesc_3_2@@UBEPB_WXZ 1004a390 f   xerces-c_3:DOMProcessingInstructionImpl.cpp.obj
 0001:00049390       ?getNamespaceURI@DOMAttrImpl@xercesc_3_2@@UBEPB_WXZ 1004a390 f   xerces-c_3:DOMAttrImpl.cpp.obj
 0001:00049390       ?getFirstChild@DOMProcessingInstructionImpl@xercesc_3_2@@UBEPAVDOMNode@2@XZ 1004a390 f   xerces-c_3:DOMProcessingInstructionImpl.cpp.obj
 0001:00049390       ?getAttributes@DOMDocumentImpl@xercesc_3_2@@UBEPAVDOMNamedNodeMap@2@XZ 1004a390 f   xerces-c_3:DOMDocumentImpl.cpp.obj
 0001:00049390       ?getFirstChild@DOMCDATASectionImpl@xercesc_3_2@@UBEPAVDOMNode@2@XZ 1004a390 f   xerces-c_3:DOMCDATASectionImpl.cpp.obj
 0001:00049390       ?getAttributes@DOMEntityImpl@xercesc_3_2@@UBEPAVDOMNamedNodeMap@2@XZ 1004a390 f   xerces-c_3:DOMEntityImpl.cpp.obj
 0001:00049390       ?getAttributes@DOMCommentImpl@xercesc_3_2@@UBEPAVDOMNamedNodeMap@2@XZ 1004a390 f   xerces-c_3:DOMCommentImpl.cpp.obj
 0001:00049390       ?getLocalName@DOMCommentImpl@xercesc_3_2@@UBEPB_WXZ 1004a390 f   xerces-c_3:DOMCommentImpl.cpp.obj
 0001:00049390       ?getNodeValue@DOMDocumentFragmentImpl@xercesc_3_2@@UBEPB_WXZ 1004a390 f   xerces-c_3:DOMDocumentFragmentImpl.cpp.obj
 0001:00049390       ?getPrefix@DOMEntityImpl@xercesc_3_2@@UBEPB_WXZ 1004a390 f   xerces-c_3:DOMEntityImpl.cpp.obj
 0001:00049390       ?getLastChild@DOMCDATASectionImpl@xercesc_3_2@@UBEPAVDOMNode@2@XZ 1004a390 f   xerces-c_3:DOMCDATASectionImpl.cpp.obj
 0001:00049390       ?getLocalName@DOMDocumentFragmentImpl@xercesc_3_2@@UBEPB_WXZ 1004a390 f   xerces-c_3:DOMDocumentFragmentImpl.cpp.obj
 0001:00049390       ?getNamespaceURI@DOMEntityImpl@xercesc_3_2@@UBEPB_WXZ 1004a390 f   xerces-c_3:DOMEntityImpl.cpp.obj
 0001:00049390       ?getPreviousSibling@DOMDocumentFragmentImpl@xercesc_3_2@@UBEPAVDOMNode@2@XZ 1004a390 f   xerces-c_3:DOMDocumentFragmentImpl.cpp.obj
 0001:00049390       ?getPreviousSibling@DOMDocumentImpl@xercesc_3_2@@UBEPAVDOMNode@2@XZ 1004a390 f   xerces-c_3:DOMDocumentImpl.cpp.obj
 0001:00049390       ?getNamespaceURI@DOMCommentImpl@xercesc_3_2@@UBEPB_WXZ 1004a390 f   xerces-c_3:DOMCommentImpl.cpp.obj
 0001:00049390       ?getLocalName@DOMTextImpl@xercesc_3_2@@UBEPB_WXZ 1004a390 f   xerces-c_3:DOMTextImpl.cpp.obj
 0001:00049390       ?getNextSibling@DOMAttrImpl@xercesc_3_2@@UBEPAVDOMNode@2@XZ 1004a390 f   xerces-c_3:DOMAttrImpl.cpp.obj
 0001:00049390       ?getLocalName@DOMEntityImpl@xercesc_3_2@@UBEPB_WXZ 1004a390 f   xerces-c_3:DOMEntityImpl.cpp.obj
 0001:00049390       ?getParentNode@DOMAttrImpl@xercesc_3_2@@UBEPAVDOMNode@2@XZ 1004a390 f   xerces-c_3:DOMAttrImpl.cpp.obj
 0001:00049390       ?getNextSibling@DOMEntityImpl@xercesc_3_2@@UBEPAVDOMNode@2@XZ 1004a390 f   xerces-c_3:DOMEntityImpl.cpp.obj
 0001:00049390       ?getLastChild@DOMTextImpl@xercesc_3_2@@UBEPAVDOMNode@2@XZ 1004a390 f   xerces-c_3:DOMTextImpl.cpp.obj
 0001:00049390       ?getParentNode@DOMEntityImpl@xercesc_3_2@@UBEPAVDOMNode@2@XZ 1004a390 f   xerces-c_3:DOMEntityImpl.cpp.obj
 0001:00049390       ?getAttributes@DOMAttrImpl@xercesc_3_2@@UBEPAVDOMNamedNodeMap@2@XZ 1004a390 f   xerces-c_3:DOMAttrImpl.cpp.obj
 0001:00049390       ?getPreviousSibling@DOMEntityImpl@xercesc_3_2@@UBEPAVDOMNode@2@XZ 1004a390 f   xerces-c_3:DOMEntityImpl.cpp.obj
 0001:00049390       ?getLocalName@DOMCDATASectionImpl@xercesc_3_2@@UBEPB_WXZ 1004a390 f   xerces-c_3:DOMCDATASectionImpl.cpp.obj
 0001:00049390       ?getAttributes@DOMTextImpl@xercesc_3_2@@UBEPAVDOMNamedNodeMap@2@XZ 1004a390 f   xerces-c_3:DOMTextImpl.cpp.obj
 0001:00049390       ?getPrefix@DOMTextImpl@xercesc_3_2@@UBEPB_WXZ 1004a390 f   xerces-c_3:DOMTextImpl.cpp.obj
 0001:00049390       ?getPrefix@DOMAttrImpl@xercesc_3_2@@UBEPB_WXZ 1004a390 f   xerces-c_3:DOMAttrImpl.cpp.obj
 0001:00049390       ?getLocalName@DOMAttrImpl@xercesc_3_2@@UBEPB_WXZ 1004a390 f   xerces-c_3:DOMAttrImpl.cpp.obj
 0001:00049390       ?getLocalName@DOMDocumentImpl@xercesc_3_2@@UBEPB_WXZ 1004a390 f   xerces-c_3:DOMDocumentImpl.cpp.obj
 0001:00049390       ?getParentNode@DOMDocumentFragmentImpl@xercesc_3_2@@UBEPAVDOMNode@2@XZ 1004a390 f   xerces-c_3:DOMDocumentFragmentImpl.cpp.obj
 0001:00049390       ?getNodeValue@DOMEntityImpl@xercesc_3_2@@UBEPB_WXZ 1004a390 f   xerces-c_3:DOMEntityImpl.cpp.obj
 0001:00049390       ?getPrefix@DOMDocumentFragmentImpl@xercesc_3_2@@UBEPB_WXZ 1004a390 f   xerces-c_3:DOMDocumentFragmentImpl.cpp.obj
 0001:00049390       ?getPrefix@DOMDocumentImpl@xercesc_3_2@@UBEPB_WXZ 1004a390 f   xerces-c_3:DOMDocumentImpl.cpp.obj
 0001:00049390       ?getNextSibling@DOMDocumentFragmentImpl@xercesc_3_2@@UBEPAVDOMNode@2@XZ 1004a390 f   xerces-c_3:DOMDocumentFragmentImpl.cpp.obj
 0001:00049390       ?getAttributes@DOMProcessingInstructionImpl@xercesc_3_2@@UBEPAVDOMNamedNodeMap@2@XZ 1004a390 f   xerces-c_3:DOMProcessingInstructionImpl.cpp.obj
 0001:00049390       ?getPrefix@DOMCommentImpl@xercesc_3_2@@UBEPB_WXZ 1004a390 f   xerces-c_3:DOMCommentImpl.cpp.obj
 0001:00049390       ?getPreviousSibling@DOMAttrImpl@xercesc_3_2@@UBEPAVDOMNode@2@XZ 1004a390 f   xerces-c_3:DOMAttrImpl.cpp.obj
 0001:000493a0       ?getEnumeration@UnionDatatypeValidator@xercesc_3_2@@ABEPAV?$RefArrayVectorOf@_W@2@XZ 1004a3a0 f   xerces-c_3:UnionDatatypeValidator.cpp.obj
 0001:000493a0       ?getXmlEncoding@DOMDocumentImpl@xercesc_3_2@@UBEPB_WXZ 1004a3a0 f   xerces-c_3:DOMDocumentImpl.cpp.obj
 0001:000493a0       ?getInputEncoding@DOMEntityImpl@xercesc_3_2@@UBEPB_WXZ 1004a3a0 f   xerces-c_3:DOMEntityImpl.cpp.obj
 0001:000493a0       ?getRawData@XMLDateTime@xercesc_3_2@@UBEPA_WXZ 1004a3a0 f   xerces-c_3:XMLDateTime.cpp.obj
 0001:000493a0       ?getTagName@DOMElementImpl@xercesc_3_2@@UBEPB_WXZ 1004a3a0 f   xerces-c_3:DOMElementImpl.cpp.obj
 0001:000493a0       ?getMaxLength@AbstractStringValidator@xercesc_3_2@@QBEIXZ 1004a3a0 f   xerces-c_3:ListDatatypeValidator.cpp.obj
 0001:000493a0       ?getNodeName@DOMElementImpl@xercesc_3_2@@UBEPB_WXZ 1004a3a0 f   xerces-c_3:DOMElementImpl.cpp.obj
 0001:000493a0       ?getEnumString@UnionDatatypeValidator@xercesc_3_2@@UBEPBV?$RefArrayVectorOf@_W@2@XZ 1004a3a0 f   xerces-c_3:UnionDatatypeValidator.cpp.obj
 0001:000493a0       ?getNotations@DOMDocumentTypeImpl@xercesc_3_2@@UBEPAVDOMNamedNodeMap@2@XZ 1004a3a0 f   xerces-c_3:DOMDocumentTypeImpl.cpp.obj
 0001:000493a0       ?getBaseURI@DOMDocumentImpl@xercesc_3_2@@UBEPB_WXZ 1004a3a0 f   xerces-c_3:DOMDocumentImpl.cpp.obj
 0001:000493b0       ?getChildNodes@DOMAttrImpl@xercesc_3_2@@UBEPAVDOMNodeList@2@XZ 1004a3b0 f   xerces-c_3:DOMAttrImpl.cpp.obj
 0001:000493b0       ?getChildNodes@DOMDocumentImpl@xercesc_3_2@@UBEPAVDOMNodeList@2@XZ 1004a3b0 f   xerces-c_3:DOMDocumentImpl.cpp.obj
 0001:000493b0       ?getChildNodes@DOMDocumentFragmentImpl@xercesc_3_2@@UBEPAVDOMNodeList@2@XZ 1004a3b0 f   xerces-c_3:DOMDocumentFragmentImpl.cpp.obj
 0001:000493c0       ?getDOMConfig@DOMDocumentImpl@xercesc_3_2@@UBEPAVDOMConfiguration@2@XZ 1004a3c0 f   xerces-c_3:DOMDocumentImpl.cpp.obj
 0001:00049440       ?getDeepNodeList@DOMDocumentImpl@xercesc_3_2@@QAEPAVDOMNodeList@2@PBVDOMNode@2@PB_W1@Z 1004a440 f   xerces-c_3:DOMDocumentImpl.cpp.obj
 0001:00049560       ?getDeepNodeList@DOMDocumentImpl@xercesc_3_2@@QAEPAVDOMNodeList@2@PBVDOMNode@2@PB_W@Z 1004a560 f   xerces-c_3:DOMDocumentImpl.cpp.obj
 0001:00049710       ?getDoctype@DOMDocumentImpl@xercesc_3_2@@UBEPAVDOMDocumentType@2@XZ 1004a710 f   xerces-c_3:DOMDocumentImpl.cpp.obj
 0001:00049720       ?getDocumentElement@DOMDocumentImpl@xercesc_3_2@@UBEPAVDOMElement@2@XZ 1004a720 f   xerces-c_3:DOMDocumentImpl.cpp.obj
 0001:00049730       ?getSystemId@DOMDocumentTypeImpl@xercesc_3_2@@UBEPB_WXZ 1004a730 f   xerces-c_3:DOMDocumentTypeImpl.cpp.obj
 0001:00049730       ?getEnumString@AbstractStringValidator@xercesc_3_2@@UBEPBV?$RefArrayVectorOf@_W@2@XZ 1004a730 f   xerces-c_3:AbstractStringValidator.cpp.obj
 0001:00049730       ?getEnumeration@AbstractStringValidator@xercesc_3_2@@QBEPAV?$RefArrayVectorOf@_W@2@XZ 1004a730 f   xerces-c_3:Base64BinaryDatatypeValidator.cpp.obj
 0001:00049730       ?getDocumentURI@DOMDocumentImpl@xercesc_3_2@@UBEPB_WXZ 1004a730 f   xerces-c_3:DOMDocumentImpl.cpp.obj
 0001:00049730       ?getPrefix@DOMElementNSImpl@xercesc_3_2@@UBEPB_WXZ 1004a730 f   xerces-c_3:DOMElementNSImpl.cpp.obj
 0001:00049730       ?getMinInclusive@AbstractNumericFacetValidator@xercesc_3_2@@QBEPAVXMLNumber@2@XZ 1004a730 f   xerces-c_3:AbstractNumericFacetValidator.cpp.obj
 0001:00049730       ?getBaseURI@DOMEntityImpl@xercesc_3_2@@UBEPB_WXZ 1004a730 f   xerces-c_3:DOMEntityImpl.cpp.obj
 0001:00049740       ?getElementById@DOMDocumentImpl@xercesc_3_2@@UBEPAVDOMElement@2@PB_W@Z 1004a740 f   xerces-c_3:DOMDocumentImpl.cpp.obj
 0001:00049770       ?getElementsByTagName@DOMDocumentImpl@xercesc_3_2@@UBEPAVDOMNodeList@2@PB_W@Z 1004a770 f   xerces-c_3:DOMDocumentImpl.cpp.obj
 0001:00049790       ?getElementsByTagNameNS@DOMDocumentImpl@xercesc_3_2@@UBEPAVDOMNodeList@2@PB_W0@Z 1004a790 f   xerces-c_3:DOMDocumentImpl.cpp.obj
 0001:000498c0       ?getFeature@DOMDocumentImpl@xercesc_3_2@@UBEPAXPB_W0@Z 1004a8c0 f   xerces-c_3:DOMDocumentImpl.cpp.obj
 0001:00049970       ?getFirstChild@DOMDocumentFragmentImpl@xercesc_3_2@@UBEPAVDOMNode@2@XZ 1004a970 f   xerces-c_3:DOMDocumentFragmentImpl.cpp.obj
 0001:00049970       ?getFirstChild@DOMAttrImpl@xercesc_3_2@@UBEPAVDOMNode@2@XZ 1004a970 f   xerces-c_3:DOMAttrImpl.cpp.obj
 0001:00049970       ?getFirstChild@DOMDocumentImpl@xercesc_3_2@@UBEPAVDOMNode@2@XZ 1004a970 f   xerces-c_3:DOMDocumentImpl.cpp.obj
 0001:00049980       ?getMemoryManager@DOMDocumentImpl@xercesc_3_2@@QBEPAVMemoryManager@2@XZ 1004a980 f   xerces-c_3:DOMDocumentImpl.cpp.obj
 0001:00049980       ?getImplementation@DOMDocumentImpl@xercesc_3_2@@UBEPAVDOMImplementation@2@XZ 1004a980 f   xerces-c_3:DOMDocumentImpl.cpp.obj
 0001:00049990       ?getEntityRef@DOMEntityImpl@xercesc_3_2@@UBEPAVDOMEntityReference@2@XZ 1004a990 f   xerces-c_3:DOMEntityImpl.cpp.obj
 0001:00049990       ?getEntities@DOMDocumentTypeImpl@xercesc_3_2@@UBEPAVDOMNamedNodeMap@2@XZ 1004a990 f   xerces-c_3:DOMDocumentTypeImpl.cpp.obj
 0001:00049990       ?getBaseURI@DOMEntityReferenceImpl@xercesc_3_2@@UBEPB_WXZ 1004a990 f   xerces-c_3:DOMEntityReferenceImpl.cpp.obj
 0001:00049990       ?getLength@AbstractStringValidator@xercesc_3_2@@QBEIXZ 1004a990 f   xerces-c_3:ListDatatypeValidator.cpp.obj
 0001:00049990       ?getDefaultAttributes@DOMElementImpl@xercesc_3_2@@UBEPAVDOMAttrMapImpl@2@XZ 1004a990 f   xerces-c_3:DOMElementImpl.cpp.obj
 0001:00049990       ?getContentLeafNameTypeVector@DFAContentModel@xercesc_3_2@@UBEPAVContentLeafNameTypeVector@2@XZ 1004a990 f   xerces-c_3:DFAContentModel.cpp.obj
 0001:00049990       ?getInputEncoding@DOMDocumentImpl@xercesc_3_2@@UBEPB_WXZ 1004a990 f   xerces-c_3:DOMDocumentImpl.cpp.obj
 0001:00049990       ?getPrefix@DOMAttrNSImpl@xercesc_3_2@@UBEPB_WXZ 1004a990 f   xerces-c_3:DOMAttrNSImpl.cpp.obj
 0001:000499a0       ?getLastChild@DOMAttrImpl@xercesc_3_2@@UBEPAVDOMNode@2@XZ 1004a9a0 f   xerces-c_3:DOMAttrImpl.cpp.obj
 0001:000499a0       ?getLastChild@DOMDocumentFragmentImpl@xercesc_3_2@@UBEPAVDOMNode@2@XZ 1004a9a0 f   xerces-c_3:DOMDocumentFragmentImpl.cpp.obj
 0001:000499a0       ?getLastChild@DOMDocumentImpl@xercesc_3_2@@UBEPAVDOMNode@2@XZ 1004a9a0 f   xerces-c_3:DOMDocumentImpl.cpp.obj
 0001:000499b0       ?getMemoryAllocationBlockSize@DOMDocumentImpl@xercesc_3_2@@UBEIXZ 1004a9b0 f   xerces-c_3:DOMDocumentImpl.cpp.obj
 0001:000499c0       ?getNodeImpl@DOMAttrImpl@xercesc_3_2@@UAEPAVDOMNodeImpl@2@XZ 1004a9c0 f   xerces-c_3:DOMAttrImpl.cpp.obj
 0001:000499c0       ?getNodeImpl@DOMCommentImpl@xercesc_3_2@@UBEPBVDOMNodeImpl@2@XZ 1004a9c0 f   xerces-c_3:DOMCommentImpl.cpp.obj
 0001:000499c0       ?getNodeImpl@DOMCommentImpl@xercesc_3_2@@UAEPAVDOMNodeImpl@2@XZ 1004a9c0 f   xerces-c_3:DOMCommentImpl.cpp.obj
 0001:000499c0       ?getNodeImpl@DOMCDATASectionImpl@xercesc_3_2@@UAEPAVDOMNodeImpl@2@XZ 1004a9c0 f   xerces-c_3:DOMCDATASectionImpl.cpp.obj
 0001:000499c0       ?getNodeImpl@DOMDocumentFragmentImpl@xercesc_3_2@@UAEPAVDOMNodeImpl@2@XZ 1004a9c0 f   xerces-c_3:DOMDocumentFragmentImpl.cpp.obj
 0001:000499c0       ?getNodeImpl@DOMProcessingInstructionImpl@xercesc_3_2@@UBEPBVDOMNodeImpl@2@XZ 1004a9c0 f   xerces-c_3:DOMProcessingInstructionImpl.cpp.obj
 0001:000499c0       ?getNodeImpl@DOMDocumentImpl@xercesc_3_2@@UAEPAVDOMNodeImpl@2@XZ 1004a9c0 f   xerces-c_3:DOMDocumentImpl.cpp.obj
 0001:000499c0       ?getNodeImpl@DOMProcessingInstructionImpl@xercesc_3_2@@UAEPAVDOMNodeImpl@2@XZ 1004a9c0 f   xerces-c_3:DOMProcessingInstructionImpl.cpp.obj
 0001:000499c0       ?getNodeImpl@DOMTextImpl@xercesc_3_2@@UBEPBVDOMNodeImpl@2@XZ 1004a9c0 f   xerces-c_3:DOMTextImpl.cpp.obj
 0001:000499c0       ?getNodeImpl@DOMEntityImpl@xercesc_3_2@@UBEPBVDOMNodeImpl@2@XZ 1004a9c0 f   xerces-c_3:DOMEntityImpl.cpp.obj
 0001:000499c0       ?getNodeImpl@DOMDocumentImpl@xercesc_3_2@@UBEPBVDOMNodeImpl@2@XZ 1004a9c0 f   xerces-c_3:DOMDocumentImpl.cpp.obj
 0001:000499c0       ?getNodeImpl@DOMAttrImpl@xercesc_3_2@@UBEPBVDOMNodeImpl@2@XZ 1004a9c0 f   xerces-c_3:DOMAttrImpl.cpp.obj
 0001:000499c0       ?getNodeImpl@DOMTextImpl@xercesc_3_2@@UAEPAVDOMNodeImpl@2@XZ 1004a9c0 f   xerces-c_3:DOMTextImpl.cpp.obj
 0001:000499c0       ?getNodeImpl@DOMDocumentFragmentImpl@xercesc_3_2@@UBEPBVDOMNodeImpl@2@XZ 1004a9c0 f   xerces-c_3:DOMDocumentFragmentImpl.cpp.obj
 0001:000499c0       ?getNodeImpl@DOMCDATASectionImpl@xercesc_3_2@@UBEPBVDOMNodeImpl@2@XZ 1004a9c0 f   xerces-c_3:DOMCDATASectionImpl.cpp.obj
 0001:000499c0       ?getNodeImpl@DOMEntityImpl@xercesc_3_2@@UAEPAVDOMNodeImpl@2@XZ 1004a9c0 f   xerces-c_3:DOMEntityImpl.cpp.obj
 0001:000499d0       ?getNodeIterators@DOMDocumentImpl@xercesc_3_2@@UBEPAV?$RefVectorOf@VDOMNodeIteratorImpl@xercesc_3_2@@@2@XZ 1004a9d0 f   xerces-c_3:DOMDocumentImpl.cpp.obj
 0001:000499e0       ?getNodeName@DOMDocumentImpl@xercesc_3_2@@UBEPB_WXZ 1004a9e0 f   xerces-c_3:DOMDocumentImpl.cpp.obj
 0001:000499f0       ?getNodeType@DOMDocumentImpl@xercesc_3_2@@UBE?AW4NodeType@DOMNode@2@XZ 1004a9f0 f   xerces-c_3:DOMDocumentImpl.cpp.obj
 0001:00049a00       ?getParentNodeImpl@DOMDocumentFragmentImpl@xercesc_3_2@@UBEPBVDOMParentNode@2@XZ 1004aa00 f   xerces-c_3:DOMDocumentFragmentImpl.cpp.obj
 0001:00049a00       ?getChildNodeImpl@DOMTextImpl@xercesc_3_2@@UBEPBVDOMChildNode@2@XZ 1004aa00 f   xerces-c_3:DOMTextImpl.cpp.obj
 0001:00049a00       ?getChildNodeImpl@DOMCommentImpl@xercesc_3_2@@UAEPAVDOMChildNode@2@XZ 1004aa00 f   xerces-c_3:DOMCommentImpl.cpp.obj
 0001:00049a00       ?getParentNodeImpl@DOMAttrImpl@xercesc_3_2@@UAEPAVDOMParentNode@2@XZ 1004aa00 f   xerces-c_3:DOMAttrImpl.cpp.obj
 0001:00049a00       ?getChildNodeImpl@DOMCDATASectionImpl@xercesc_3_2@@UBEPBVDOMChildNode@2@XZ 1004aa00 f   xerces-c_3:DOMCDATASectionImpl.cpp.obj
 0001:00049a00       ?getParentNodeImpl@DOMAttrImpl@xercesc_3_2@@UBEPBVDOMParentNode@2@XZ 1004aa00 f   xerces-c_3:DOMAttrImpl.cpp.obj
 0001:00049a00       ?getChildNodeImpl@DOMCDATASectionImpl@xercesc_3_2@@UAEPAVDOMChildNode@2@XZ 1004aa00 f   xerces-c_3:DOMCDATASectionImpl.cpp.obj
 0001:00049a00       ?getChildNodeImpl@DOMProcessingInstructionImpl@xercesc_3_2@@UAEPAVDOMChildNode@2@XZ 1004aa00 f   xerces-c_3:DOMProcessingInstructionImpl.cpp.obj
 0001:00049a00       ?getParentNodeImpl@DOMDocumentImpl@xercesc_3_2@@UBEPBVDOMParentNode@2@XZ 1004aa00 f   xerces-c_3:DOMDocumentImpl.cpp.obj
 0001:00049a00       ?getChildNodeImpl@DOMTextImpl@xercesc_3_2@@UAEPAVDOMChildNode@2@XZ 1004aa00 f   xerces-c_3:DOMTextImpl.cpp.obj
 0001:00049a00       ?getParentNodeImpl@DOMEntityImpl@xercesc_3_2@@UAEPAVDOMParentNode@2@XZ 1004aa00 f   xerces-c_3:DOMEntityImpl.cpp.obj
 0001:00049a00       ?getChildNodeImpl@DOMCommentImpl@xercesc_3_2@@UBEPBVDOMChildNode@2@XZ 1004aa00 f   xerces-c_3:DOMCommentImpl.cpp.obj
 0001:00049a00       ?getChildNodes@DOMParentNode@xercesc_3_2@@QBEPAVDOMNodeList@2@XZ 1004aa00 f   xerces-c_3:DOMParentNode.cpp.obj
 0001:00049a00       ?getParentNodeImpl@DOMDocumentFragmentImpl@xercesc_3_2@@UAEPAVDOMParentNode@2@XZ 1004aa00 f   xerces-c_3:DOMDocumentFragmentImpl.cpp.obj
 0001:00049a00       ?getParentNodeImpl@DOMDocumentImpl@xercesc_3_2@@UAEPAVDOMParentNode@2@XZ 1004aa00 f   xerces-c_3:DOMDocumentImpl.cpp.obj
 0001:00049a00       ?getChildNodeImpl@DOMProcessingInstructionImpl@xercesc_3_2@@UBEPBVDOMChildNode@2@XZ 1004aa00 f   xerces-c_3:DOMProcessingInstructionImpl.cpp.obj
 0001:00049a00       ?getParentNodeImpl@DOMEntityImpl@xercesc_3_2@@UBEPBVDOMParentNode@2@XZ 1004aa00 f   xerces-c_3:DOMEntityImpl.cpp.obj
 0001:00049a10       ?getRanges@DOMDocumentImpl@xercesc_3_2@@UBEPAV?$RefVectorOf@VDOMRangeImpl@xercesc_3_2@@@2@XZ 1004aa10 f   xerces-c_3:DOMDocumentImpl.cpp.obj
 0001:00049a20       ?getStrictErrorChecking@DOMDocumentImpl@xercesc_3_2@@UBE_NXZ 1004aa20 f   xerces-c_3:DOMDocumentImpl.cpp.obj
 0001:00049a30       ?getTextContent@DOMAttrImpl@xercesc_3_2@@UBEPB_WXZ 1004aa30 f   xerces-c_3:DOMAttrImpl.cpp.obj
 0001:00049a30       ?getTextContent@DOMDocumentImpl@xercesc_3_2@@UBEPB_WXZ 1004aa30 f   xerces-c_3:DOMDocumentImpl.cpp.obj
 0001:00049a30       ?getTextContent@DOMTextImpl@xercesc_3_2@@UBEPB_WXZ 1004aa30 f   xerces-c_3:DOMTextImpl.cpp.obj
 0001:00049a30       ?getTextContent@DOMDocumentFragmentImpl@xercesc_3_2@@UBEPB_WXZ 1004aa30 f   xerces-c_3:DOMDocumentFragmentImpl.cpp.obj
 0001:00049a30       ?getTextContent@DOMEntityImpl@xercesc_3_2@@UBEPB_WXZ 1004aa30 f   xerces-c_3:DOMEntityImpl.cpp.obj
 0001:00049a30       ?getTextContent@DOMCDATASectionImpl@xercesc_3_2@@UBEPB_WXZ 1004aa30 f   xerces-c_3:DOMCDATASectionImpl.cpp.obj
 0001:00049a30       ?getTextContent@DOMCommentImpl@xercesc_3_2@@UBEPB_WXZ 1004aa30 f   xerces-c_3:DOMCommentImpl.cpp.obj
 0001:00049a30       ?getTextContent@DOMProcessingInstructionImpl@xercesc_3_2@@UBEPB_WXZ 1004aa30 f   xerces-c_3:DOMProcessingInstructionImpl.cpp.obj
 0001:00049a40       ?getType@EmptyStackException@xercesc_3_2@@UBEPB_WXZ 1004aa40 f i xerces-c_3:DOMDocumentImpl.cpp.obj
 0001:00049a50       ?getType@NoSuchElementException@xercesc_3_2@@UBEPB_WXZ 1004aa50 f i xerces-c_3:DOMDocumentImpl.cpp.obj
 0001:00049a60       ?getType@NullPointerException@xercesc_3_2@@UBEPB_WXZ 1004aa60 f i xerces-c_3:DOMDocumentImpl.cpp.obj
 0001:00049a70       ?getUserData@DOMDocumentImpl@xercesc_3_2@@QBEPAXPBVDOMNodeImpl@2@PB_W@Z 1004aa70 f   xerces-c_3:DOMDocumentImpl.cpp.obj
 0001:00049ab0       ?getUserData@DOMCommentImpl@xercesc_3_2@@UBEPAXPB_W@Z 1004aab0 f   xerces-c_3:DOMCommentImpl.cpp.obj
 0001:00049ab0       ?getUserData@DOMEntityImpl@xercesc_3_2@@UBEPAXPB_W@Z 1004aab0 f   xerces-c_3:DOMEntityImpl.cpp.obj
 0001:00049ab0       ?getUserData@DOMAttrImpl@xercesc_3_2@@UBEPAXPB_W@Z 1004aab0 f   xerces-c_3:DOMAttrImpl.cpp.obj
 0001:00049ab0       ?getUserData@DOMDocumentFragmentImpl@xercesc_3_2@@UBEPAXPB_W@Z 1004aab0 f   xerces-c_3:DOMDocumentFragmentImpl.cpp.obj
 0001:00049ab0       ?getUserData@DOMTextImpl@xercesc_3_2@@UBEPAXPB_W@Z 1004aab0 f   xerces-c_3:DOMTextImpl.cpp.obj
 0001:00049ab0       ?getUserData@DOMProcessingInstructionImpl@xercesc_3_2@@UBEPAXPB_W@Z 1004aab0 f   xerces-c_3:DOMProcessingInstructionImpl.cpp.obj
 0001:00049ab0       ?getUserData@DOMCDATASectionImpl@xercesc_3_2@@UBEPAXPB_W@Z 1004aab0 f   xerces-c_3:DOMCDATASectionImpl.cpp.obj
 0001:00049ab0       ?getUserData@DOMDocumentImpl@xercesc_3_2@@UBEPAXPB_W@Z 1004aab0 f   xerces-c_3:DOMDocumentImpl.cpp.obj
 0001:00049ac0       ?getXmlStandalone@DOMDocumentImpl@xercesc_3_2@@UBE_NXZ 1004aac0 f   xerces-c_3:DOMDocumentImpl.cpp.obj
 0001:00049ad0       ?getXmlVersion@DOMEntityImpl@xercesc_3_2@@UBEPB_WXZ 1004aad0 f   xerces-c_3:DOMEntityImpl.cpp.obj
 0001:00049ad0       ?getMaxExclusive@AbstractNumericFacetValidator@xercesc_3_2@@QBEPAVXMLNumber@2@XZ 1004aad0 f   xerces-c_3:AbstractNumericFacetValidator.cpp.obj
 0001:00049ad0       ?getLocalName@DOMElementNSImpl@xercesc_3_2@@UBEPB_WXZ 1004aad0 f   xerces-c_3:DOMElementNSImpl.cpp.obj
 0001:00049ad0       ?getPublicId@DOMDocumentTypeImpl@xercesc_3_2@@UBEPB_WXZ 1004aad0 f   xerces-c_3:DOMDocumentTypeImpl.cpp.obj
 0001:00049ad0       ?getXmlVersion@DOMDocumentImpl@xercesc_3_2@@UBEPB_WXZ 1004aad0 f   xerces-c_3:DOMDocumentImpl.cpp.obj
 0001:00049ad0       ?getAttDefList@ComplexTypeInfo@xercesc_3_2@@QBEAAVXMLAttDefList@2@XZ 1004aad0 f   xerces-c_3:ComplexTypeInfo.cpp.obj
 0001:00049ae0       ?hasChildNodes@DOMCommentImpl@xercesc_3_2@@UBE_NXZ 1004aae0 f   xerces-c_3:DOMCommentImpl.cpp.obj
 0001:00049ae0       ?hasAttributes@DOMTextImpl@xercesc_3_2@@UBE_NXZ 1004aae0 f   xerces-c_3:DOMTextImpl.cpp.obj
 0001:00049ae0       ?hasAttributes@DOMEntityImpl@xercesc_3_2@@UBE_NXZ 1004aae0 f   xerces-c_3:DOMEntityImpl.cpp.obj
 0001:00049ae0       ?hasAttributes@DOMProcessingInstructionImpl@xercesc_3_2@@UBE_NXZ 1004aae0 f   xerces-c_3:DOMProcessingInstructionImpl.cpp.obj
 0001:00049ae0       ?hasChildNodes@DOMTextImpl@xercesc_3_2@@UBE_NXZ 1004aae0 f   xerces-c_3:DOMTextImpl.cpp.obj
 0001:00049ae0       ?hasAttributes@DOMCDATASectionImpl@xercesc_3_2@@UBE_NXZ 1004aae0 f   xerces-c_3:DOMCDATASectionImpl.cpp.obj
 0001:00049ae0       ?hasAttributes@DOMAttrImpl@xercesc_3_2@@UBE_NXZ 1004aae0 f   xerces-c_3:DOMAttrImpl.cpp.obj
 0001:00049ae0       ?hasChildNodes@DOMProcessingInstructionImpl@xercesc_3_2@@UBE_NXZ 1004aae0 f   xerces-c_3:DOMProcessingInstructionImpl.cpp.obj
 0001:00049ae0       ?hasAttributes@DOMCommentImpl@xercesc_3_2@@UBE_NXZ 1004aae0 f   xerces-c_3:DOMCommentImpl.cpp.obj
 0001:00049ae0       ?hasChildNodes@DOMCDATASectionImpl@xercesc_3_2@@UBE_NXZ 1004aae0 f   xerces-c_3:DOMCDATASectionImpl.cpp.obj
 0001:00049ae0       ?hasAttributes@DOMDocumentFragmentImpl@xercesc_3_2@@UBE_NXZ 1004aae0 f   xerces-c_3:DOMDocumentFragmentImpl.cpp.obj
 0001:00049ae0       ?hasAttributes@DOMDocumentImpl@xercesc_3_2@@UBE_NXZ 1004aae0 f   xerces-c_3:DOMDocumentImpl.cpp.obj
 0001:00049af0       ?hasChildNodes@DOMDocumentImpl@xercesc_3_2@@UBE_NXZ 1004aaf0 f   xerces-c_3:DOMDocumentImpl.cpp.obj
 0001:00049af0       ?hasChildNodes@DOMAttrImpl@xercesc_3_2@@UBE_NXZ 1004aaf0 f   xerces-c_3:DOMAttrImpl.cpp.obj
 0001:00049af0       ?hasChildNodes@DOMDocumentFragmentImpl@xercesc_3_2@@UBE_NXZ 1004aaf0 f   xerces-c_3:DOMDocumentFragmentImpl.cpp.obj
 0001:00049b00       ?hasMoreElements@?$RefHashTableOfEnumerator@VXMLRefInfo@xercesc_3_2@@UStringHasher@2@@xercesc_3_2@@UBE_NXZ 1004ab00 f i xerces-c_3:XMLScanner.cpp.obj
 0001:00049b00       ?hasMoreElements@?$RefHashTableOfEnumerator@VXercesAttGroupInfo@xercesc_3_2@@UStringHasher@2@@xercesc_3_2@@UBE_NXZ 1004ab00 f i xerces-c_3:XSModel.cpp.obj
 0001:00049b00       ?hasMoreElements@?$RefHashTableOfEnumerator@VXercesGroupInfo@xercesc_3_2@@UStringHasher@2@@xercesc_3_2@@UBE_NXZ 1004ab00 f i xerces-c_3:XSModel.cpp.obj
 0001:00049b00       ?hasMoreElements@?$RefHash2KeysTableOfEnumerator@V?$KeyRefPair@XVDOMUserDataHandler@xercesc_3_2@@@xercesc_3_2@@UPtrHasher@2@@xercesc_3_2@@UBE_NXZ 1004ab00 f i xerces-c_3:DOMDocumentImpl.cpp.obj
 0001:00049b00       ?hasMoreElements@?$RefHashTableOfEnumerator@_WUStringHasher@xercesc_3_2@@@xercesc_3_2@@UBE_NXZ 1004ab00 f i xerces-c_3:DOMNormalizer.cpp.obj
 0001:00049b00       ?hasMoreElements@?$RefHashTableOfEnumerator@VXMLAttDef@xercesc_3_2@@UStringHasher@2@@xercesc_3_2@@UBE_NXZ 1004ab00 f i xerces-c_3:XSModel.cpp.obj
 0001:00049b00       ?hasMoreElements@?$RefHash2KeysTableOfEnumerator@VSchemaAttDef@xercesc_3_2@@UStringHasher@2@@xercesc_3_2@@UBE_NXZ 1004ab00 f i xerces-c_3:XTemplateSerializer.cpp.obj
 0001:00049b00       ?hasMoreElements@?$RefHashTableOfEnumerator@VFieldValueMap@xercesc_3_2@@UICValueHasher@2@@xercesc_3_2@@UBE_NXZ 1004ab00 f i xerces-c_3:ValueStore.cpp.obj
 0001:00049b00       ?hasMoreElements@?$RefHashTableOfEnumerator@VValueStore@xercesc_3_2@@UPtrHasher@2@@xercesc_3_2@@UBE_NXZ 1004ab00 f i xerces-c_3:ValueStoreCache.cpp.obj
 0001:00049b00       ?hasMoreElements@?$RefHashTableOfEnumerator@VKVStringPair@xercesc_3_2@@UStringHasher@2@@xercesc_3_2@@UBE_NXZ 1004ab00 f i xerces-c_3:DOMXPathNSResolverImpl.cpp.obj
 0001:00049b00       ?hasMoreElements@?$RefHashTableOfEnumerator@VComplexTypeInfo@xercesc_3_2@@UStringHasher@2@@xercesc_3_2@@UBE_NXZ 1004ab00 f i xerces-c_3:XSModel.cpp.obj
 0001:00049b00       ?hasMoreElements@?$RefHashTableOfEnumerator@VGrammar@xercesc_3_2@@UStringHasher@2@@xercesc_3_2@@UBE_NXZ 1004ab00 f i xerces-c_3:GrammarResolver.cpp.obj
 0001:00049b00       ?hasMoreElements@?$RefHash2KeysTableOfEnumerator@VSchemaInfo@xercesc_3_2@@UStringHasher@2@@xercesc_3_2@@UBE_NXZ 1004ab00 f i xerces-c_3:SGXMLScanner.cpp.obj
 0001:00049b00       ?hasMoreElements@?$RefHashTableOfEnumerator@VDatatypeValidator@xercesc_3_2@@UStringHasher@2@@xercesc_3_2@@UBE_NXZ 1004ab00 f i xerces-c_3:XSModel.cpp.obj
 0001:00049b00       ?hasMoreElements@?$RefHash2KeysTableOfEnumerator@V?$ValueVectorOf@PAVSchemaElementDecl@xercesc_3_2@@@xercesc_3_2@@UStringHasher@2@@xercesc_3_2@@UBE_NXZ 1004ab00 f i xerces-c_3:XTemplateSerializer.cpp.obj
 0001:00049b00       ?hasMoreElements@?$RefHashTableOfEnumerator@VDTDAttDef@xercesc_3_2@@UStringHasher@2@@xercesc_3_2@@UBE_NXZ 1004ab00 f i xerces-c_3:XTemplateSerializer.cpp.obj
 0001:00049b00       ?hasMoreElements@?$RefHashTableOfEnumerator@VXSAnnotation@xercesc_3_2@@UPtrHasher@2@@xercesc_3_2@@UBE_NXZ 1004ab00 f i xerces-c_3:XTemplateSerializer.cpp.obj
 0001:00049b20       ?hasMoreElements@?$ValueVectorEnumerator@H@xercesc_3_2@@UBE_NXZ 1004ab20 f i xerces-c_3:DOMDocumentImpl.cpp.obj
 0001:00049b30       ?importNode@DOMDocumentImpl@xercesc_3_2@@MAEPAVDOMNode@2@PBV32@_N1@Z 1004ab30 f   xerces-c_3:DOMDocumentImpl.cpp.obj
 0001:0004a360       ?importNode@DOMDocumentImpl@xercesc_3_2@@UAEPAVDOMNode@2@PBV32@_N@Z 1004b360 f   xerces-c_3:DOMDocumentImpl.cpp.obj
 0001:0004a380       ?insertBefore@DOMDocumentImpl@xercesc_3_2@@UAEPAVDOMNode@2@PAV32@0@Z 1004b380 f   xerces-c_3:DOMDocumentImpl.cpp.obj
 0001:0004a460       ?isDefaultNamespace@DOMEntityImpl@xercesc_3_2@@UBE_NPB_W@Z 1004b460 f   xerces-c_3:DOMEntityImpl.cpp.obj
 0001:0004a460       ?isDefaultNamespace@DOMCommentImpl@xercesc_3_2@@UBE_NPB_W@Z 1004b460 f   xerces-c_3:DOMCommentImpl.cpp.obj
 0001:0004a460       ?isDefaultNamespace@DOMTextImpl@xercesc_3_2@@UBE_NPB_W@Z 1004b460 f   xerces-c_3:DOMTextImpl.cpp.obj
 0001:0004a460       ?isDefaultNamespace@DOMAttrImpl@xercesc_3_2@@UBE_NPB_W@Z 1004b460 f   xerces-c_3:DOMAttrImpl.cpp.obj
 0001:0004a460       ?isDefaultNamespace@DOMDocumentFragmentImpl@xercesc_3_2@@UBE_NPB_W@Z 1004b460 f   xerces-c_3:DOMDocumentFragmentImpl.cpp.obj
 0001:0004a460       ?isDefaultNamespace@DOMCDATASectionImpl@xercesc_3_2@@UBE_NPB_W@Z 1004b460 f   xerces-c_3:DOMCDATASectionImpl.cpp.obj
 0001:0004a460       ?isDefaultNamespace@DOMProcessingInstructionImpl@xercesc_3_2@@UBE_NPB_W@Z 1004b460 f   xerces-c_3:DOMProcessingInstructionImpl.cpp.obj
 0001:0004a460       ?isDefaultNamespace@DOMDocumentImpl@xercesc_3_2@@UBE_NPB_W@Z 1004b460 f   xerces-c_3:DOMDocumentImpl.cpp.obj
 0001:0004a470       ?isEqualNode@DOMDocumentFragmentImpl@xercesc_3_2@@UBE_NPBVDOMNode@2@@Z 1004b470 f   xerces-c_3:DOMDocumentFragmentImpl.cpp.obj
 0001:0004a470       ?isEqualNode@DOMAttrImpl@xercesc_3_2@@UBE_NPBVDOMNode@2@@Z 1004b470 f   xerces-c_3:DOMAttrImpl.cpp.obj
 0001:0004a470       ?isEqualNode@DOMDocumentImpl@xercesc_3_2@@UBE_NPBVDOMNode@2@@Z 1004b470 f   xerces-c_3:DOMDocumentImpl.cpp.obj
 0001:0004a480       ?isKidOK@DOMDocumentImpl@xercesc_3_2@@SA_NPBVDOMNode@2@0@Z 1004b480 f   xerces-c_3:DOMDocumentImpl.cpp.obj
 0001:0004a620       ?isSameNode@DOMTextImpl@xercesc_3_2@@UBE_NPBVDOMNode@2@@Z 1004b620 f   xerces-c_3:DOMTextImpl.cpp.obj
 0001:0004a620       ?isSameNode@DOMAttrImpl@xercesc_3_2@@UBE_NPBVDOMNode@2@@Z 1004b620 f   xerces-c_3:DOMAttrImpl.cpp.obj
 0001:0004a620       ?isSameNode@DOMCDATASectionImpl@xercesc_3_2@@UBE_NPBVDOMNode@2@@Z 1004b620 f   xerces-c_3:DOMCDATASectionImpl.cpp.obj
 0001:0004a620       ?isSameNode@DOMCommentImpl@xercesc_3_2@@UBE_NPBVDOMNode@2@@Z 1004b620 f   xerces-c_3:DOMCommentImpl.cpp.obj
 0001:0004a620       ?isSameNode@DOMDocumentImpl@xercesc_3_2@@UBE_NPBVDOMNode@2@@Z 1004b620 f   xerces-c_3:DOMDocumentImpl.cpp.obj
 0001:0004a620       ?isSameNode@DOMProcessingInstructionImpl@xercesc_3_2@@UBE_NPBVDOMNode@2@@Z 1004b620 f   xerces-c_3:DOMProcessingInstructionImpl.cpp.obj
 0001:0004a620       ?isSameNode@DOMEntityImpl@xercesc_3_2@@UBE_NPBVDOMNode@2@@Z 1004b620 f   xerces-c_3:DOMEntityImpl.cpp.obj
 0001:0004a620       ?isSameNode@DOMDocumentFragmentImpl@xercesc_3_2@@UBE_NPBVDOMNode@2@@Z 1004b620 f   xerces-c_3:DOMDocumentFragmentImpl.cpp.obj
 0001:0004a630       ?isSupported@DOMDocumentImpl@xercesc_3_2@@UBE_NPB_W0@Z 1004b630 f   xerces-c_3:DOMDocumentImpl.cpp.obj
 0001:0004a730       ?isXMLName@DOMDocumentImpl@xercesc_3_2@@QAE_NPB_W@Z 1004b730 f   xerces-c_3:DOMDocumentImpl.cpp.obj
 0001:0004a760       ?lookupNamespaceURI@DOMCommentImpl@xercesc_3_2@@UBEPB_WPB_W@Z 1004b760 f   xerces-c_3:DOMCommentImpl.cpp.obj
 0001:0004a760       ?lookupNamespaceURI@DOMAttrImpl@xercesc_3_2@@UBEPB_WPB_W@Z 1004b760 f   xerces-c_3:DOMAttrImpl.cpp.obj
 0001:0004a760       ?lookupNamespaceURI@DOMCDATASectionImpl@xercesc_3_2@@UBEPB_WPB_W@Z 1004b760 f   xerces-c_3:DOMCDATASectionImpl.cpp.obj
 0001:0004a760       ?lookupNamespaceURI@DOMTextImpl@xercesc_3_2@@UBEPB_WPB_W@Z 1004b760 f   xerces-c_3:DOMTextImpl.cpp.obj
 0001:0004a760       ?lookupNamespaceURI@DOMEntityImpl@xercesc_3_2@@UBEPB_WPB_W@Z 1004b760 f   xerces-c_3:DOMEntityImpl.cpp.obj
 0001:0004a760       ?lookupNamespaceURI@DOMProcessingInstructionImpl@xercesc_3_2@@UBEPB_WPB_W@Z 1004b760 f   xerces-c_3:DOMProcessingInstructionImpl.cpp.obj
 0001:0004a760       ?lookupNamespaceURI@DOMDocumentFragmentImpl@xercesc_3_2@@UBEPB_WPB_W@Z 1004b760 f   xerces-c_3:DOMDocumentFragmentImpl.cpp.obj
 0001:0004a760       ?lookupNamespaceURI@DOMDocumentImpl@xercesc_3_2@@UBEPB_WPB_W@Z 1004b760 f   xerces-c_3:DOMDocumentImpl.cpp.obj
 0001:0004a770       ?lookupPrefix@DOMEntityImpl@xercesc_3_2@@UBEPB_WPB_W@Z 1004b770 f   xerces-c_3:DOMEntityImpl.cpp.obj
 0001:0004a770       ?lookupPrefix@DOMDocumentImpl@xercesc_3_2@@UBEPB_WPB_W@Z 1004b770 f   xerces-c_3:DOMDocumentImpl.cpp.obj
 0001:0004a770       ?lookupPrefix@DOMCommentImpl@xercesc_3_2@@UBEPB_WPB_W@Z 1004b770 f   xerces-c_3:DOMCommentImpl.cpp.obj
 0001:0004a770       ?lookupPrefix@DOMAttrImpl@xercesc_3_2@@UBEPB_WPB_W@Z 1004b770 f   xerces-c_3:DOMAttrImpl.cpp.obj
 0001:0004a770       ?lookupPrefix@DOMCDATASectionImpl@xercesc_3_2@@UBEPB_WPB_W@Z 1004b770 f   xerces-c_3:DOMCDATASectionImpl.cpp.obj
 0001:0004a770       ?lookupPrefix@DOMProcessingInstructionImpl@xercesc_3_2@@UBEPB_WPB_W@Z 1004b770 f   xerces-c_3:DOMProcessingInstructionImpl.cpp.obj
 0001:0004a770       ?lookupPrefix@DOMDocumentFragmentImpl@xercesc_3_2@@UBEPB_WPB_W@Z 1004b770 f   xerces-c_3:DOMDocumentFragmentImpl.cpp.obj
 0001:0004a770       ?lookupPrefix@DOMTextImpl@xercesc_3_2@@UBEPB_WPB_W@Z 1004b770 f   xerces-c_3:DOMTextImpl.cpp.obj
 0001:0004a780       ?nextElement@?$RefHash2KeysTableOfEnumerator@V?$KeyRefPair@XVDOMUserDataHandler@xercesc_3_2@@@xercesc_3_2@@UPtrHasher@2@@xercesc_3_2@@UAEAAV?$KeyRefPair@XVDOMUserDataHandler@xercesc_3_2@@@2@XZ 1004b780 f i xerces-c_3:DOMDocumentImpl.cpp.obj
 0001:0004a7d0       ?nextElement@?$ValueVectorEnumerator@H@xercesc_3_2@@UAEAAHXZ 1004b7d0 f i xerces-c_3:DOMDocumentImpl.cpp.obj
 0001:0004a820       ?normalize@DOMAttrImpl@xercesc_3_2@@UAEXXZ 1004b820 f   xerces-c_3:DOMAttrImpl.cpp.obj
 0001:0004a820       ?normalize@DOMDocumentImpl@xercesc_3_2@@UAEXXZ 1004b820 f   xerces-c_3:DOMDocumentImpl.cpp.obj
 0001:0004a820       ?normalize@DOMDocumentFragmentImpl@xercesc_3_2@@UAEXXZ 1004b820 f   xerces-c_3:DOMDocumentFragmentImpl.cpp.obj
 0001:0004a830       ?normalizeDocument@DOMDocumentImpl@xercesc_3_2@@UAEXXZ 1004b830 f   xerces-c_3:DOMDocumentImpl.cpp.obj
 0001:0004a8c0       ?orphanElementAt@?$BaseRefVectorOf@VDOMBuffer@xercesc_3_2@@@xercesc_3_2@@QAEPAVDOMBuffer@2@I@Z 1004b8c0 f i xerces-c_3:DOMDocumentImpl.cpp.obj
 0001:0004a960       ?popBuffer@DOMDocumentImpl@xercesc_3_2@@QAEPAVDOMBuffer@2@I@Z 1004b960 f   xerces-c_3:DOMDocumentImpl.cpp.obj
 0001:0004a9f0       ?put@?$DOMDeepNodeListPool@VDOMDeepNodeListImpl@xercesc_3_2@@UPtrHasher@2@@xercesc_3_2@@QAEIPAXPA_W1QAVDOMDeepNodeListImpl@2@@Z 1004b9f0 f i xerces-c_3:DOMDocumentImpl.cpp.obj
 0001:0004ac80       ?put@?$RefHash2KeysTableOf@V?$KeyRefPair@XVDOMUserDataHandler@xercesc_3_2@@@xercesc_3_2@@UPtrHasher@2@@xercesc_3_2@@QAEXPAXHQAV?$KeyRefPair@XVDOMUserDataHandler@xercesc_3_2@@@2@@Z 1004bc80 f i xerces-c_3:DOMDocumentImpl.cpp.obj
 0001:0004ae10       ?release@DOMDocumentImpl@xercesc_3_2@@UAEXPAVDOMNode@2@W4NodeObjectType@DOMMemoryManager@2@@Z 1004be10 f   xerces-c_3:DOMDocumentImpl.cpp.obj
 0001:0004b060       ?release@DOMDocumentImpl@xercesc_3_2@@UAEXPAX@Z 1004c060 f   xerces-c_3:DOMDocumentImpl.cpp.obj
 0001:0004b0a0       ?release@DOMDocumentImpl@xercesc_3_2@@UAEXXZ 1004c0a0 f   xerces-c_3:DOMDocumentImpl.cpp.obj
 0001:0004b120       ?releaseBuffer@DOMDocumentImpl@xercesc_3_2@@QAEXPAVDOMBuffer@2@@Z 1004c120 f   xerces-c_3:DOMDocumentImpl.cpp.obj
 0001:0004b270       ?releaseDocNotifyUserData@DOMDocumentImpl@xercesc_3_2@@QAEXPAVDOMNode@2@@Z 1004c270 f   xerces-c_3:DOMDocumentImpl.cpp.obj
 0001:0004b340       ?removeAllElements@?$BaseRefVectorOf@VDOMBuffer@xercesc_3_2@@@xercesc_3_2@@UAEXXZ 1004c340 f i xerces-c_3:DOMDocumentImpl.cpp.obj
 0001:0004b390       ?removeChild@DOMDocumentImpl@xercesc_3_2@@UAEPAVDOMNode@2@PAV32@@Z 1004c390 f   xerces-c_3:DOMDocumentImpl.cpp.obj
 0001:0004b3e0       ?removeElementAt@?$BaseRefVectorOf@VDOMBuffer@xercesc_3_2@@@xercesc_3_2@@UAEXI@Z 1004c3e0 f i xerces-c_3:DOMDocumentImpl.cpp.obj
 0001:0004b490       ?removeLastElement@?$BaseRefVectorOf@VDOMBuffer@xercesc_3_2@@@xercesc_3_2@@UAEXXZ 1004c490 f i xerces-c_3:DOMDocumentImpl.cpp.obj
 0001:0004b4c0       ?removeNodeIterator@DOMDocumentImpl@xercesc_3_2@@UAEXPAVDOMNodeIteratorImpl@2@@Z 1004c4c0 f   xerces-c_3:DOMDocumentImpl.cpp.obj
 0001:0004b500       ?removeRange@DOMDocumentImpl@xercesc_3_2@@UAEXPAVDOMRangeImpl@2@@Z 1004c500 f   xerces-c_3:DOMDocumentImpl.cpp.obj
 0001:0004b540       ?renameNode@DOMDocumentImpl@xercesc_3_2@@UAEPAVDOMNode@2@PAV32@PB_W1@Z 1004c540 f   xerces-c_3:DOMDocumentImpl.cpp.obj
 0001:0004b5f0       ?replaceChild@DOMDocumentImpl@xercesc_3_2@@UAEPAVDOMNode@2@PAV32@0@Z 1004c5f0 f   xerces-c_3:DOMDocumentImpl.cpp.obj
 0001:0004b6f0       ?setDocumentType@DOMDocumentImpl@xercesc_3_2@@QAEXPAVDOMDocumentType@2@@Z 1004c6f0 f   xerces-c_3:DOMDocumentImpl.cpp.obj
 0001:0004b770       ?setDocumentURI@DOMDocumentImpl@xercesc_3_2@@UAEXPB_W@Z 1004c770 f   xerces-c_3:DOMDocumentImpl.cpp.obj
 0001:0004b7d0       ?setElementAt@?$BaseRefVectorOf@VDOMBuffer@xercesc_3_2@@@xercesc_3_2@@UAEXQAVDOMBuffer@2@I@Z 1004c7d0 f i xerces-c_3:DOMDocumentImpl.cpp.obj
 0001:0004b840       ?setInputEncoding@DOMDocumentImpl@xercesc_3_2@@QAEXPB_W@Z 1004c840 f   xerces-c_3:DOMDocumentImpl.cpp.obj
 0001:0004b860       ?setMemoryAllocationBlockSize@DOMDocumentImpl@xercesc_3_2@@UAEXI@Z 1004c860 f   xerces-c_3:DOMDocumentImpl.cpp.obj
 0001:0004b880       ?setNodeValue@DOMDocumentImpl@xercesc_3_2@@UAEXPB_W@Z 1004c880 f   xerces-c_3:DOMDocumentImpl.cpp.obj
 0001:0004b880       ?setNodeValue@DOMDocumentFragmentImpl@xercesc_3_2@@UAEXPB_W@Z 1004c880 f   xerces-c_3:DOMDocumentFragmentImpl.cpp.obj
 0001:0004b880       ?setNodeValue@DOMEntityImpl@xercesc_3_2@@UAEXPB_W@Z 1004c880 f   xerces-c_3:DOMEntityImpl.cpp.obj
 0001:0004b890       ?setPrefix@DOMCommentImpl@xercesc_3_2@@UAEXPB_W@Z 1004c890 f   xerces-c_3:DOMCommentImpl.cpp.obj
 0001:0004b890       ?setPrefix@DOMDocumentFragmentImpl@xercesc_3_2@@UAEXPB_W@Z 1004c890 f   xerces-c_3:DOMDocumentFragmentImpl.cpp.obj
 0001:0004b890       ?setPrefix@DOMProcessingInstructionImpl@xercesc_3_2@@UAEXPB_W@Z 1004c890 f   xerces-c_3:DOMProcessingInstructionImpl.cpp.obj
 0001:0004b890       ?setPrefix@DOMAttrImpl@xercesc_3_2@@UAEXPB_W@Z 1004c890 f   xerces-c_3:DOMAttrImpl.cpp.obj
 0001:0004b890       ?setPrefix@DOMEntityImpl@xercesc_3_2@@UAEXPB_W@Z 1004c890 f   xerces-c_3:DOMEntityImpl.cpp.obj
 0001:0004b890       ?setPrefix@DOMDocumentImpl@xercesc_3_2@@UAEXPB_W@Z 1004c890 f   xerces-c_3:DOMDocumentImpl.cpp.obj
 0001:0004b890       ?setPrefix@DOMTextImpl@xercesc_3_2@@UAEXPB_W@Z 1004c890 f   xerces-c_3:DOMTextImpl.cpp.obj
 0001:0004b890       ?setPrefix@DOMCDATASectionImpl@xercesc_3_2@@UAEXPB_W@Z 1004c890 f   xerces-c_3:DOMCDATASectionImpl.cpp.obj
 0001:0004b8a0       ?setStrictErrorChecking@DOMDocumentImpl@xercesc_3_2@@UAEX_N@Z 1004c8a0 f   xerces-c_3:DOMDocumentImpl.cpp.obj
 0001:0004b8b0       ?setTextContent@DOMEntityImpl@xercesc_3_2@@UAEXPB_W@Z 1004c8b0 f   xerces-c_3:DOMEntityImpl.cpp.obj
 0001:0004b8b0       ?setTextContent@DOMProcessingInstructionImpl@xercesc_3_2@@UAEXPB_W@Z 1004c8b0 f   xerces-c_3:DOMProcessingInstructionImpl.cpp.obj
 0001:0004b8b0       ?setTextContent@DOMCommentImpl@xercesc_3_2@@UAEXPB_W@Z 1004c8b0 f   xerces-c_3:DOMCommentImpl.cpp.obj
 0001:0004b8b0       ?setTextContent@DOMCDATASectionImpl@xercesc_3_2@@UAEXPB_W@Z 1004c8b0 f   xerces-c_3:DOMCDATASectionImpl.cpp.obj
 0001:0004b8b0       ?setTextContent@DOMDocumentFragmentImpl@xercesc_3_2@@UAEXPB_W@Z 1004c8b0 f   xerces-c_3:DOMDocumentFragmentImpl.cpp.obj
 0001:0004b8b0       ?setTextContent@DOMDocumentImpl@xercesc_3_2@@UAEXPB_W@Z 1004c8b0 f   xerces-c_3:DOMDocumentImpl.cpp.obj
 0001:0004b8b0       ?setTextContent@DOMAttrImpl@xercesc_3_2@@UAEXPB_W@Z 1004c8b0 f   xerces-c_3:DOMAttrImpl.cpp.obj
 0001:0004b8b0       ?setTextContent@DOMTextImpl@xercesc_3_2@@UAEXPB_W@Z 1004c8b0 f   xerces-c_3:DOMTextImpl.cpp.obj
 0001:0004b8c0       ?setUserData@DOMDocumentImpl@xercesc_3_2@@QAEPAXPAVDOMNodeImpl@2@PB_WPAXPAVDOMUserDataHandler@2@@Z 1004c8c0 f   xerces-c_3:DOMDocumentImpl.cpp.obj
 0001:0004bb70       ?setUserData@DOMAttrImpl@xercesc_3_2@@UAEPAXPB_WPAXPAVDOMUserDataHandler@2@@Z 1004cb70 f   xerces-c_3:DOMAttrImpl.cpp.obj
 0001:0004bb70       ?setUserData@DOMProcessingInstructionImpl@xercesc_3_2@@UAEPAXPB_WPAXPAVDOMUserDataHandler@2@@Z 1004cb70 f   xerces-c_3:DOMProcessingInstructionImpl.cpp.obj
 0001:0004bb70       ?setUserData@DOMEntityImpl@xercesc_3_2@@UAEPAXPB_WPAXPAVDOMUserDataHandler@2@@Z 1004cb70 f   xerces-c_3:DOMEntityImpl.cpp.obj
 0001:0004bb70       ?setUserData@DOMDocumentImpl@xercesc_3_2@@UAEPAXPB_WPAXPAVDOMUserDataHandler@2@@Z 1004cb70 f   xerces-c_3:DOMDocumentImpl.cpp.obj
 0001:0004bb70       ?setUserData@DOMTextImpl@xercesc_3_2@@UAEPAXPB_WPAXPAVDOMUserDataHandler@2@@Z 1004cb70 f   xerces-c_3:DOMTextImpl.cpp.obj
 0001:0004bb70       ?setUserData@DOMCDATASectionImpl@xercesc_3_2@@UAEPAXPB_WPAXPAVDOMUserDataHandler@2@@Z 1004cb70 f   xerces-c_3:DOMCDATASectionImpl.cpp.obj
 0001:0004bb70       ?setUserData@DOMCommentImpl@xercesc_3_2@@UAEPAXPB_WPAXPAVDOMUserDataHandler@2@@Z 1004cb70 f   xerces-c_3:DOMCommentImpl.cpp.obj
 0001:0004bb70       ?setUserData@DOMDocumentFragmentImpl@xercesc_3_2@@UAEPAXPB_WPAXPAVDOMUserDataHandler@2@@Z 1004cb70 f   xerces-c_3:DOMDocumentFragmentImpl.cpp.obj
 0001:0004bb80       ?setXmlEncoding@DOMDocumentImpl@xercesc_3_2@@QAEXPB_W@Z 1004cb80 f   xerces-c_3:DOMDocumentImpl.cpp.obj
 0001:0004bba0       ?setXmlStandalone@DOMDocumentImpl@xercesc_3_2@@UAEX_N@Z 1004cba0 f   xerces-c_3:DOMDocumentImpl.cpp.obj
 0001:0004bbb0       ?setXmlVersion@DOMDocumentImpl@xercesc_3_2@@UAEXPB_W@Z 1004cbb0 f   xerces-c_3:DOMDocumentImpl.cpp.obj
 0001:0004bc90       ?transferUserData@DOMDocumentImpl@xercesc_3_2@@QAEXPAVDOMNodeImpl@2@0@Z 1004cc90 f   xerces-c_3:DOMDocumentImpl.cpp.obj
 0001:0004bdd0       ??0OutOfMemoryException@xercesc_3_2@@QAE@ABV01@@Z 1004cdd0 f i xerces-c_3:MemoryManagerImpl.cpp.obj
 0001:0004bde0       ?allocate@MemoryManagerImpl@xercesc_3_2@@UAEPAXI@Z 1004cde0 f   xerces-c_3:MemoryManagerImpl.cpp.obj
 0001:0004be60       ?deallocate@MemoryManagerImpl@xercesc_3_2@@UAEXPAX@Z 1004ce60 f   xerces-c_3:MemoryManagerImpl.cpp.obj
 0001:0004be80       ??0WindowsFileMgr@xercesc_3_2@@QAE@XZ 1004ce80 f   xerces-c_3:WindowsFileMgr.cpp.obj
 0001:0004bee0       ??0XMLPlatformUtilsException@xercesc_3_2@@QAE@QBD_KW4Codes@XMLExcepts@1@QB_W333PAVMemoryManager@1@@Z 1004cee0 f i xerces-c_3:WindowsFileMgr.cpp.obj
 0001:0004bf60       ??_EWindowsFileMgr@xercesc_3_2@@UAEPAXI@Z 1004cf60 f i xerces-c_3:WindowsFileMgr.cpp.obj
 0001:0004bf60       ??_GWindowsFileMgr@xercesc_3_2@@UAEPAXI@Z 1004cf60 f i xerces-c_3:WindowsFileMgr.cpp.obj
 0001:0004bfa0       ??_EXMLFileMgr@xercesc_3_2@@UAEPAXI@Z 1004cfa0 f i xerces-c_3:WindowsFileMgr.cpp.obj
 0001:0004bfa0       ??_GXMLFileMgr@xercesc_3_2@@UAEPAXI@Z 1004cfa0 f i xerces-c_3:WindowsFileMgr.cpp.obj
 0001:0004bfe0       ?curPos@WindowsFileMgr@xercesc_3_2@@UAE_KPAXQAVMemoryManager@2@@Z 1004cfe0 f   xerces-c_3:WindowsFileMgr.cpp.obj
 0001:0004c080       ?fileClose@WindowsFileMgr@xercesc_3_2@@UAEXPAXQAVMemoryManager@2@@Z 1004d080 f   xerces-c_3:WindowsFileMgr.cpp.obj
 0001:0004c100       ?fileOpen@WindowsFileMgr@xercesc_3_2@@UAEPAXPBD_NQAVMemoryManager@2@@Z 1004d100 f   xerces-c_3:WindowsFileMgr.cpp.obj
 0001:0004c180       ?fileOpen@WindowsFileMgr@xercesc_3_2@@UAEPAXPB_W_NQAVMemoryManager@2@@Z 1004d180 f   xerces-c_3:WindowsFileMgr.cpp.obj
 0001:0004c360       ?fileRead@WindowsFileMgr@xercesc_3_2@@UAEIPAXIPAEQAVMemoryManager@2@@Z 1004d360 f   xerces-c_3:WindowsFileMgr.cpp.obj
 0001:0004c400       ?fileReset@WindowsFileMgr@xercesc_3_2@@UAEXPAXQAVMemoryManager@2@@Z 1004d400 f   xerces-c_3:WindowsFileMgr.cpp.obj
 0001:0004c480       ?fileSize@WindowsFileMgr@xercesc_3_2@@UAE_KPAXQAVMemoryManager@2@@Z 1004d480 f   xerces-c_3:WindowsFileMgr.cpp.obj
 0001:0004c520       ?fileWrite@WindowsFileMgr@xercesc_3_2@@UAEXPAXIPBEQAVMemoryManager@2@@Z 1004d520 f   xerces-c_3:WindowsFileMgr.cpp.obj
 0001:0004c5e0       ?getCurrentDirectory@WindowsFileMgr@xercesc_3_2@@UAEPA_WQAVMemoryManager@2@@Z 1004d5e0 f   xerces-c_3:WindowsFileMgr.cpp.obj
 0001:0004c6d0       ?getFullPath@WindowsFileMgr@xercesc_3_2@@UAEPA_WQB_WQAVMemoryManager@2@@Z 1004d6d0 f   xerces-c_3:WindowsFileMgr.cpp.obj
 0001:0004c810       ?isRelative@WindowsFileMgr@xercesc_3_2@@UAE_NQB_WQAVMemoryManager@2@@Z 1004d810 f   xerces-c_3:WindowsFileMgr.cpp.obj
 0001:0004c860       ?openStdIn@WindowsFileMgr@xercesc_3_2@@UAEPAXQAVMemoryManager@2@@Z 1004d860 f   xerces-c_3:WindowsFileMgr.cpp.obj
 0001:0004c930       ??0StdMutexMgr@xercesc_3_2@@QAE@XZ 1004d930 f   xerces-c_3:StdMutexMgr.cpp.obj
 0001:0004c940       ??_EStdMutexMgr@xercesc_3_2@@UAEPAXI@Z 1004d940 f i xerces-c_3:StdMutexMgr.cpp.obj
 0001:0004c940       ??_GStdMutexMgr@xercesc_3_2@@UAEPAXI@Z 1004d940 f i xerces-c_3:StdMutexMgr.cpp.obj
 0001:0004c940       ??_EXMLMutexMgr@xercesc_3_2@@UAEPAXI@Z 1004d940 f i xerces-c_3:StdMutexMgr.cpp.obj
 0001:0004c940       ??_GXMLMutexMgr@xercesc_3_2@@UAEPAXI@Z 1004d940 f i xerces-c_3:StdMutexMgr.cpp.obj
 0001:0004c980       ?_Check_C_return@std@@YAHH@Z 1004d980 f i xerces-c_3:StdMutexMgr.cpp.obj
 0001:0004c990       ?create@StdMutexMgr@xercesc_3_2@@UAEPAXQAVMemoryManager@2@@Z 1004d990 f   xerces-c_3:StdMutexMgr.cpp.obj
 0001:0004c9d0       ?destroy@StdMutexMgr@xercesc_3_2@@UAEXPAXQAVMemoryManager@2@@Z 1004d9d0 f   xerces-c_3:StdMutexMgr.cpp.obj
 0001:0004c9f0       ?lock@StdMutexMgr@xercesc_3_2@@UAEXPAX@Z 1004d9f0 f   xerces-c_3:StdMutexMgr.cpp.obj
 0001:0004ca10       ?unlock@StdMutexMgr@xercesc_3_2@@UAEXPAX@Z 1004da10 f   xerces-c_3:StdMutexMgr.cpp.obj
 0001:0004ca30       ?setLocale@XMLMsgLoader@xercesc_3_2@@SAXQBD@Z 1004da30 f   xerces-c_3:XMLMsgLoader.cpp.obj
 0001:0004caa0       ?setNLSHome@XMLMsgLoader@xercesc_3_2@@SAXQBD@Z 1004daa0 f   xerces-c_3:XMLMsgLoader.cpp.obj
 0001:0004cae0       ??0InMemMsgLoader@xercesc_3_2@@QAE@QB_W@Z 1004dae0 f   xerces-c_3:InMemMsgLoader.cpp.obj
 0001:0004ccc0       ??1XMLMsgLoader@xercesc_3_2@@UAE@XZ 1004dcc0 f i xerces-c_3:InMemMsgLoader.cpp.obj
 0001:0004ccd0       ??_EInMemMsgLoader@xercesc_3_2@@UAEPAXI@Z 1004dcd0 f i xerces-c_3:InMemMsgLoader.cpp.obj
 0001:0004ccd0       ??_GInMemMsgLoader@xercesc_3_2@@UAEPAXI@Z 1004dcd0 f i xerces-c_3:InMemMsgLoader.cpp.obj
 0001:0004cd60       ??_EXMLMsgLoader@xercesc_3_2@@UAEPAXI@Z 1004dd60 f i xerces-c_3:InMemMsgLoader.cpp.obj
 0001:0004cd60       ??_GXMLMsgLoader@xercesc_3_2@@UAEPAXI@Z 1004dd60 f i xerces-c_3:InMemMsgLoader.cpp.obj
 0001:0004cda0       ?loadMsg@InMemMsgLoader@xercesc_3_2@@UAE_NIQA_WI@Z 1004dda0 f   xerces-c_3:InMemMsgLoader.cpp.obj
 0001:0004cf60       ?loadMsg@InMemMsgLoader@xercesc_3_2@@UAE_NIQA_WIQBD111QAVMemoryManager@2@@Z 1004df60 f   xerces-c_3:InMemMsgLoader.cpp.obj
 0001:0004d040       ?loadMsg@InMemMsgLoader@xercesc_3_2@@UAE_NIQA_WIQB_W111QAVMemoryManager@2@@Z 1004e040 f   xerces-c_3:InMemMsgLoader.cpp.obj
 0001:0004d090       ??0?$ArrayJanitor@E@xercesc_3_2@@QAE@QAEQAVMemoryManager@1@@Z 1004e090 f i xerces-c_3:JanitorExports.cpp.obj
 0001:0004d090       ??0EndOfEntityException@xercesc_3_2@@QAE@PAVXMLEntityDecl@1@I@Z 1004e090 f i xerces-c_3:ReaderMgr.cpp.obj
 0001:0004d090       ??0?$ArrayJanitor@_W@xercesc_3_2@@QAE@QA_WQAVMemoryManager@1@@Z 1004e090 f i xerces-c_3:JanitorExports.cpp.obj
 0001:0004d0b0       ??0?$ArrayJanitor@_W@xercesc_3_2@@QAE@QA_W@Z 1004e0b0 f i xerces-c_3:JanitorExports.cpp.obj
 0001:0004d0d0       ?reset@?$ArrayJanitor@_W@xercesc_3_2@@QAEXPA_WQAVMemoryManager@2@@Z 1004e0d0 f i xerces-c_3:JanitorExports.cpp.obj
 0001:0004d110       ??0TranscodingException@xercesc_3_2@@QAE@QBD_KW4Codes@XMLExcepts@1@QB_W333PAVMemoryManager@1@@Z 1004e110 f i xerces-c_3:Win32TransService.cpp.obj
 0001:0004d190       ??0Win32TransService@xercesc_3_2@@QAE@PAVMemoryManager@1@@Z 1004e190 f   xerces-c_3:Win32TransService.cpp.obj
 0001:0004d780       ??_EWin32LCPTranscoder@xercesc_3_2@@UAEPAXI@Z 1004e780 f i xerces-c_3:Win32TransService.cpp.obj
 0001:0004d780       ??_GWin32LCPTranscoder@xercesc_3_2@@UAEPAXI@Z 1004e780 f i xerces-c_3:Win32TransService.cpp.obj
 0001:0004d7c0       ??_GWin32TransService@xercesc_3_2@@UAEPAXI@Z 1004e7c0 f i xerces-c_3:Win32TransService.cpp.obj
 0001:0004d7c0       ??_EWin32TransService@xercesc_3_2@@UAEPAXI@Z 1004e7c0 f i xerces-c_3:Win32TransService.cpp.obj
 0001:0004d8e0       ??_EWin32Transcoder@xercesc_3_2@@UAEPAXI@Z 1004e8e0 f i xerces-c_3:Win32TransService.cpp.obj
 0001:0004d8e0       ??_GWin32Transcoder@xercesc_3_2@@UAEPAXI@Z 1004e8e0 f i xerces-c_3:Win32TransService.cpp.obj
 0001:0004d920       ?calcRequiredSize@Win32LCPTranscoder@xercesc_3_2@@UAEIQBDQAVMemoryManager@2@@Z 1004e920 f   xerces-c_3:Win32TransService.cpp.obj
 0001:0004d940       ?calcRequiredSize@Win32LCPTranscoder@xercesc_3_2@@UAEIQB_WQAVMemoryManager@2@@Z 1004e940 f   xerces-c_3:Win32TransService.cpp.obj
 0001:0004d970       ?canTranscodeTo@Win32Transcoder@xercesc_3_2@@UAE_NI@Z 1004e970 f   xerces-c_3:Win32TransService.cpp.obj
 0001:0004da20       ?compareIString@Win32TransService@xercesc_3_2@@UAEHQB_W0@Z 1004ea20 f   xerces-c_3:Win32TransService.cpp.obj
 0001:0004da40       ?compareNIString@Win32TransService@xercesc_3_2@@UAEHQB_W0I@Z 1004ea40 f   xerces-c_3:Win32TransService.cpp.obj
 0001:0004da60       ?getId@Win32TransService@xercesc_3_2@@UBEPB_WXZ 1004ea60 f   xerces-c_3:Win32TransService.cpp.obj
 0001:0004da70       ?lowerCase@Win32TransService@xercesc_3_2@@UAEXQA_W@Z 1004ea70 f   xerces-c_3:Win32TransService.cpp.obj
 0001:0004da80       ?makeNewLCPTranscoder@Win32TransService@xercesc_3_2@@UAEPAVXMLLCPTranscoder@2@PAVMemoryManager@2@@Z 1004ea80 f   xerces-c_3:Win32TransService.cpp.obj
 0001:0004db00       ?makeNewXMLTranscoder@Win32TransService@xercesc_3_2@@MAEPAVXMLTranscoder@2@QB_WAAW4Codes@XMLTransService@2@IQAVMemoryManager@2@@Z 1004eb00 f   xerces-c_3:Win32TransService.cpp.obj
 0001:0004dca0       ?put@?$RefHashTableOf@VCPMapEntry@xercesc_3_2@@UStringHasher@2@@xercesc_3_2@@QAEXPAXQAVCPMapEntry@2@@Z 1004eca0 f i xerces-c_3:Win32TransService.cpp.obj
 0001:0004de60       ?isSerializable@YearDatatypeValidator@xercesc_3_2@@UBE_NXZ 1004ee60 f   xerces-c_3:YearDatatypeValidator.cpp.obj
 0001:0004de60       ?isSerializable@ENTITYDatatypeValidator@xercesc_3_2@@UBE_NXZ 1004ee60 f   xerces-c_3:ENTITYDatatypeValidator.cpp.obj
 0001:0004de60       ?isSerializable@SchemaAttDefList@xercesc_3_2@@UBE_NXZ 1004ee60 f   xerces-c_3:SchemaAttDefList.cpp.obj
 0001:0004de60       ?isSerializable@XMLRefInfo@xercesc_3_2@@UBE_NXZ 1004ee60 f   xerces-c_3:XMLRefInfo.cpp.obj
 0001:0004de60       ?isSerializable@DTDAttDefList@xercesc_3_2@@UBE_NXZ 1004ee60 f   xerces-c_3:DTDAttDefList.cpp.obj
 0001:0004de60       ?isSerializable@DTDGrammar@xercesc_3_2@@UBE_NXZ 1004ee60 f   xerces-c_3:DTDGrammar.cpp.obj
 0001:0004de60       ?isSerializable@KVStringPair@xercesc_3_2@@UBE_NXZ 1004ee60 f   xerces-c_3:KVStringPair.cpp.obj
 0001:0004de60       ?isSerializable@IDDatatypeValidator@xercesc_3_2@@UBE_NXZ 1004ee60 f   xerces-c_3:IDDatatypeValidator.cpp.obj
 0001:0004de60       ?isSerializable@XSAnnotation@xercesc_3_2@@UBE_NXZ 1004ee60 f   xerces-c_3:XSAnnotation.cpp.obj
 0001:0004de60       ?isSerializable@XercesStep@xercesc_3_2@@UBE_NXZ 1004ee60 f   xerces-c_3:XercesXPath.cpp.obj
 0001:0004de60       ?isSerializable@XMLBigDecimal@xercesc_3_2@@UBE_NXZ 1004ee60 f   xerces-c_3:XMLBigDecimal.cpp.obj
 0001:0004de60       ?isRepeatableLeaf@CMRepeatingLeaf@xercesc_3_2@@UBE_NXZ 1004ee60 f   xerces-c_3:DFAContentModel.cpp.obj
 0001:0004de60       ?isSerializable@DTDEntityDecl@xercesc_3_2@@UBE_NXZ 1004ee60 f   xerces-c_3:DTDEntityDecl.cpp.obj
 0001:0004de60       ?isSerializable@MonthDayDatatypeValidator@xercesc_3_2@@UBE_NXZ 1004ee60 f   xerces-c_3:MonthDayDatatypeValidator.cpp.obj
 0001:0004de60       ?isSerializable@Base64BinaryDatatypeValidator@xercesc_3_2@@UBE_NXZ 1004ee60 f   xerces-c_3:Base64BinaryDatatypeValidator.cpp.obj
 0001:0004de60       ?SweepWaitNode@SingleWaitBlock@details@Concurrency@@UAE_NXZ 1004ee60 f   libconcrt:event.obj
 0001:0004de60       ?isSerializable@IC_Key@xercesc_3_2@@UBE_NXZ 1004ee60 f   xerces-c_3:IC_Key.cpp.obj
 0001:0004de60       ?isSerializable@QName@xercesc_3_2@@UBE_NXZ 1004ee60 f   xerces-c_3:QName.cpp.obj
 0001:0004de60       ?isSerializable@IC_Field@xercesc_3_2@@UBE_NXZ 1004ee60 f   xerces-c_3:IC_Field.cpp.obj
 0001:0004de60       ?isSerializable@XMLDTDDescription@xercesc_3_2@@UBE_NXZ 1004ee60 f   xerces-c_3:XMLDTDDescription.cpp.obj
 0001:0004de60       ?isSerializable@AnyURIDatatypeValidator@xercesc_3_2@@UBE_NXZ 1004ee60 f   xerces-c_3:AnyURIDatatypeValidator.cpp.obj
 0001:0004de60       ?isSerializable@AbstractNumericFacetValidator@xercesc_3_2@@UBE_NXZ 1004ee60 f   xerces-c_3:AbstractNumericFacetValidator.cpp.obj
 0001:0004de60       ?isSerializable@XMLGrammarDescription@xercesc_3_2@@UBE_NXZ 1004ee60 f   xerces-c_3:XMLGrammarDescription.cpp.obj
 0001:0004de60       ?isSerializable@DateTimeValidator@xercesc_3_2@@UBE_NXZ 1004ee60 f   xerces-c_3:DateTimeValidator.cpp.obj
 0001:0004de60       ?isSerializable@XMLEntityDecl@xercesc_3_2@@UBE_NXZ 1004ee60 f   xerces-c_3:XMLEntityDecl.cpp.obj
 0001:0004de60       ?isSerializable@QNameDatatypeValidator@xercesc_3_2@@UBE_NXZ 1004ee60 f   xerces-c_3:QNameDatatypeValidator.cpp.obj
 0001:0004de60       ?isSerializable@NOTATIONDatatypeValidator@xercesc_3_2@@UBE_NXZ 1004ee60 f   xerces-c_3:NOTATIONDatatypeValidator.cpp.obj
 0001:0004de60       ?isSerializable@DatatypeValidator@xercesc_3_2@@UBE_NXZ 1004ee60 f   xerces-c_3:DatatypeValidator.cpp.obj
 0001:0004de60       ?isSerializable@MonthDatatypeValidator@xercesc_3_2@@UBE_NXZ 1004ee60 f   xerces-c_3:MonthDatatypeValidator.cpp.obj
 0001:0004de60       ?isSerializable@DayDatatypeValidator@xercesc_3_2@@UBE_NXZ 1004ee60 f   xerces-c_3:DayDatatypeValidator.cpp.obj
 0001:0004de60       ?isSerializable@XercesGroupInfo@xercesc_3_2@@UBE_NXZ 1004ee60 f   xerces-c_3:XercesGroupInfo.cpp.obj
 0001:0004de60       ?isSerializable@ContentSpecNode@xercesc_3_2@@UBE_NXZ 1004ee60 f   xerces-c_3:ContentSpecNode.cpp.obj
 0001:0004de60       ?isSerializable@AbstractNumericValidator@xercesc_3_2@@UBE_NXZ 1004ee60 f   xerces-c_3:AbstractNumericValidator.cpp.obj
 0001:0004de60       ?isSerializable@HexBinaryDatatypeValidator@xercesc_3_2@@UBE_NXZ 1004ee60 f   xerces-c_3:HexBinaryDatatypeValidator.cpp.obj
 0001:0004de60       ?isSerializable@IC_Selector@xercesc_3_2@@UBE_NXZ 1004ee60 f   xerces-c_3:IC_Selector.cpp.obj
 0001:0004de60       ?AllowGeneralFetchOfReservedContexts@SchedulerBase@details@Concurrency@@MAE_NXZ 1004ee60 f   libconcrt:SchedulerBase.obj
 0001:0004de60       ?isSerializable@XMLUri@xercesc_3_2@@UBE_NXZ 1004ee60 f   xerces-c_3:XMLUri.cpp.obj
 0001:0004de60       ?handlesDTD@DTDValidator@xercesc_3_2@@UBE_NXZ 1004ee60 f   xerces-c_3:DTDValidator.cpp.obj
 0001:0004de60       ?isSerializable@XercesLocationPath@xercesc_3_2@@UBE_NXZ 1004ee60 f   xerces-c_3:XercesXPath.cpp.obj
 0001:0004de60       ?isSerializable@IDREFDatatypeValidator@xercesc_3_2@@UBE_NXZ 1004ee60 f   xerces-c_3:IDREFDatatypeValidator.cpp.obj
 0001:0004de60       ?isSerializable@DateDatatypeValidator@xercesc_3_2@@UBE_NXZ 1004ee60 f   xerces-c_3:DateDatatypeValidator.cpp.obj
 0001:0004de60       ?isSerializable@DTDElementDecl@xercesc_3_2@@UBE_NXZ 1004ee60 f   xerces-c_3:DTDElementDecl.cpp.obj
 0001:0004de60       ?isSerializable@NCNameDatatypeValidator@xercesc_3_2@@UBE_NXZ 1004ee60 f   xerces-c_3:NCNameDatatypeValidator.cpp.obj
 0001:0004de60       ?isSerializable@XMLSchemaDescriptionImpl@xercesc_3_2@@UBE_NXZ 1004ee60 f   xerces-c_3:XMLSchemaDescriptionImpl.cpp.obj
 0001:0004de60       ?isSerializable@IdentityConstraint@xercesc_3_2@@UBE_NXZ 1004ee60 f   xerces-c_3:IdentityConstraint.cpp.obj
 0001:0004de60       ?isSerializable@DTDAttDef@xercesc_3_2@@UBE_NXZ 1004ee60 f   xerces-c_3:DTDAttDef.cpp.obj
 0001:0004de60       ?isSerializable@XMLElementDecl@xercesc_3_2@@UBE_NXZ 1004ee60 f   xerces-c_3:XMLElementDecl.cpp.obj
 0001:0004de60       ?isSerializable@XercesNodeTest@xercesc_3_2@@UBE_NXZ 1004ee60 f   xerces-c_3:XercesXPath.cpp.obj
 0001:0004de60       ?isSerializable@DecimalDatatypeValidator@xercesc_3_2@@UBE_NXZ 1004ee60 f   xerces-c_3:DecimalDatatypeValidator.cpp.obj
 0001:0004de60       ?isSerializable@IC_Unique@xercesc_3_2@@UBE_NXZ 1004ee60 f   xerces-c_3:IC_Unique.cpp.obj
 0001:0004de60       ?isSerializable@IC_KeyRef@xercesc_3_2@@UBE_NXZ 1004ee60 f   xerces-c_3:IC_KeyRef.cpp.obj
 0001:0004de60       ?isSerializable@XercesAttGroupInfo@xercesc_3_2@@UBE_NXZ 1004ee60 f   xerces-c_3:XercesAttGroupInfo.cpp.obj
 0001:0004de60       ?isSerializable@XercesXPath@xercesc_3_2@@UBE_NXZ 1004ee60 f   xerces-c_3:XercesXPath.cpp.obj
 0001:0004de60       ?isSerializable@AbstractStringValidator@xercesc_3_2@@UBE_NXZ 1004ee60 f   xerces-c_3:AbstractStringValidator.cpp.obj
 0001:0004de60       ?isSerializable@FloatDatatypeValidator@xercesc_3_2@@UBE_NXZ 1004ee60 f   xerces-c_3:FloatDatatypeValidator.cpp.obj
 0001:0004de60       ?supportsSrcOfs@Win32TransService@xercesc_3_2@@UBE_NXZ 1004ee60 f   xerces-c_3:Win32TransService.cpp.obj
 0001:0004de60       ?isSerializable@DatatypeValidatorFactory@xercesc_3_2@@UBE_NXZ 1004ee60 f   xerces-c_3:DatatypeValidatorFactory.cpp.obj
 0001:0004de60       ?isSerializable@DoubleDatatypeValidator@xercesc_3_2@@UBE_NXZ 1004ee60 f   xerces-c_3:DoubleDatatypeValidator.cpp.obj
 0001:0004de60       ?isSerializable@ComplexTypeInfo@xercesc_3_2@@UBE_NXZ 1004ee60 f   xerces-c_3:ComplexTypeInfo.cpp.obj
 0001:0004de60       ?isAtomic@DatatypeValidator@xercesc_3_2@@UBE_NXZ 1004ee60 f   xerces-c_3:DatatypeValidatorFactory.cpp.obj
 0001:0004de60       ?isSerializable@YearMonthDatatypeValidator@xercesc_3_2@@UBE_NXZ 1004ee60 f   xerces-c_3:YearMonthDatatypeValidator.cpp.obj
 0001:0004de60       ?isSerializable@ListDatatypeValidator@xercesc_3_2@@UBE_NXZ 1004ee60 f   xerces-c_3:ListDatatypeValidator.cpp.obj
 0001:0004de60       ?isSerializable@XMLNumber@xercesc_3_2@@UBE_NXZ 1004ee60 f   xerces-c_3:XMLNumber.cpp.obj
 0001:0004de60       ?isSerializable@XMLAttDef@xercesc_3_2@@UBE_NXZ 1004ee60 f   xerces-c_3:XMLAttDef.cpp.obj
 0001:0004de60       ?isSerializable@XMLNotationDecl@xercesc_3_2@@UBE_NXZ 1004ee60 f   xerces-c_3:XMLNotationDecl.cpp.obj
 0001:0004de60       ?isSerializable@XMLFloat@xercesc_3_2@@UBE_NXZ 1004ee60 f   xerces-c_3:XMLFloat.cpp.obj
 0001:0004de60       ?isSerializable@StringDatatypeValidator@xercesc_3_2@@UBE_NXZ 1004ee60 f   xerces-c_3:StringDatatypeValidator.cpp.obj
 0001:0004de60       ?isSerializable@XMLSchemaDescription@xercesc_3_2@@UBE_NXZ 1004ee60 f   xerces-c_3:XMLSchemaDescription.cpp.obj
 0001:0004de60       ?isSerializable@XMLDateTime@xercesc_3_2@@UBE_NXZ 1004ee60 f   xerces-c_3:XMLDateTime.cpp.obj
 0001:0004de60       ?isSerializable@AnySimpleTypeDatatypeValidator@xercesc_3_2@@UBE_NXZ 1004ee60 f   xerces-c_3:AnySimpleTypeDatatypeValidator.cpp.obj
 0001:0004de60       ?isSerializable@SchemaGrammar@xercesc_3_2@@UBE_NXZ 1004ee60 f   xerces-c_3:SchemaGrammar.cpp.obj
 0001:0004de60       ?isSerializable@NameDatatypeValidator@xercesc_3_2@@UBE_NXZ 1004ee60 f   xerces-c_3:NameDatatypeValidator.cpp.obj
 0001:0004de60       ?isSerializable@UnionDatatypeValidator@xercesc_3_2@@UBE_NXZ 1004ee60 f   xerces-c_3:UnionDatatypeValidator.cpp.obj
 0001:0004de60       ?isSerializable@XMLDouble@xercesc_3_2@@UBE_NXZ 1004ee60 f   xerces-c_3:XMLDouble.cpp.obj
 0001:0004de60       ?isSerializable@XMLDTDDescriptionImpl@xercesc_3_2@@UBE_NXZ 1004ee60 f   xerces-c_3:XMLDTDDescriptionImpl.cpp.obj
 0001:0004de60       ?isSerializable@XMLStringPool@xercesc_3_2@@UBE_NXZ 1004ee60 f   xerces-c_3:StringPool.cpp.obj
 0001:0004de60       ?handlesSchema@SchemaValidator@xercesc_3_2@@UBE_NXZ 1004ee60 f   xerces-c_3:SchemaValidator.cpp.obj
 0001:0004de60       ?isSerializable@DateTimeDatatypeValidator@xercesc_3_2@@UBE_NXZ 1004ee60 f   xerces-c_3:DateTimeDatatypeValidator.cpp.obj
 0001:0004de60       ?isSerializable@XMLAbstractDoubleFloat@xercesc_3_2@@UBE_NXZ 1004ee60 f   xerces-c_3:XMLAbstractDoubleFloat.cpp.obj
 0001:0004de60       ?requiresNamespaces@SchemaValidator@xercesc_3_2@@UBE_NXZ 1004ee60 f   xerces-c_3:SchemaValidator.cpp.obj
 0001:0004de60       ?isSerializable@BooleanDatatypeValidator@xercesc_3_2@@UBE_NXZ 1004ee60 f   xerces-c_3:BooleanDatatypeValidator.cpp.obj
 0001:0004de60       ?isSerializable@SchemaElementDecl@xercesc_3_2@@UBE_NXZ 1004ee60 f   xerces-c_3:SchemaElementDecl.cpp.obj
 0001:0004de60       ?isSerializable@SchemaAttDef@xercesc_3_2@@UBE_NXZ 1004ee60 f   xerces-c_3:SchemaAttDef.cpp.obj
 0001:0004de60       ?isSerializable@TimeDatatypeValidator@xercesc_3_2@@UBE_NXZ 1004ee60 f   xerces-c_3:TimeDatatypeValidator.cpp.obj
 0001:0004de60       ?isSerializable@DurationDatatypeValidator@xercesc_3_2@@UBE_NXZ 1004ee60 f   xerces-c_3:DurationDatatypeValidator.cpp.obj
 0001:0004de60       ___acrt_uninitialize_command_line 1004ee60 f   libucrt:argv_data.obj
 0001:0004de70       ?transcode@Win32LCPTranscoder@xercesc_3_2@@UAEPADQB_WQAVMemoryManager@2@@Z 1004ee70 f   xerces-c_3:Win32TransService.cpp.obj
 0001:0004dee0       ?transcode@Win32LCPTranscoder@xercesc_3_2@@UAEPA_WQBDQAVMemoryManager@2@@Z 1004eee0 f   xerces-c_3:Win32TransService.cpp.obj
 0001:0004df70       ?transcode@Win32LCPTranscoder@xercesc_3_2@@UAE_NQBDQA_WIQAVMemoryManager@2@@Z 1004ef70 f   xerces-c_3:Win32TransService.cpp.obj
 0001:0004dfb0       ?transcode@Win32LCPTranscoder@xercesc_3_2@@UAE_NQB_WQADIQAVMemoryManager@2@@Z 1004efb0 f   xerces-c_3:Win32TransService.cpp.obj
 0001:0004e010       ?transcodeFrom@Win32Transcoder@xercesc_3_2@@UAEIQBEIQA_WIAAIQAE@Z 1004f010 f   xerces-c_3:Win32TransService.cpp.obj
 0001:0004e180       ?transcodeTo@Win32Transcoder@xercesc_3_2@@UAEIQB_WIQAEIAAIW4UnRepOpts@XMLTranscoder@2@@Z 1004f180 f   xerces-c_3:Win32TransService.cpp.obj
 0001:0004e2a0       ?upperCase@Win32TransService@xercesc_3_2@@UAEXQA_W@Z 1004f2a0 f   xerces-c_3:Win32TransService.cpp.obj
 0001:0004e2b0       ??0RuntimeException@xercesc_3_2@@QAE@QBD_KW4Codes@XMLExcepts@1@QB_W333PAVMemoryManager@1@@Z 1004f2b0 f i xerces-c_3:XMLReader.cpp.obj
 0001:0004e330       ??0XMLReader@xercesc_3_2@@QAE@QB_W0QAVBinInputStream@1@0W4RefFrom@01@W4Types@01@W4Sources@01@_N5IW4XMLVersion@01@QAVMemoryManager@1@@Z 1004f330 f   xerces-c_3:XMLReader.cpp.obj
 0001:0004e7d0       ??0XMLReader@xercesc_3_2@@QAE@QB_W0QAVBinInputStream@1@W4Encodings@XMLRecognizer@1@W4RefFrom@01@W4Types@01@W4Sources@01@_N6IW4XMLVersion@01@QAVMemoryManager@1@@Z 1004f7d0 f   xerces-c_3:XMLReader.cpp.obj
 0001:0004eb40       ??0XMLReader@xercesc_3_2@@QAE@QB_W0QAVBinInputStream@1@W4RefFrom@01@W4Types@01@W4Sources@01@_N5IW4XMLVersion@01@QAVMemoryManager@1@@Z 1004fb40 f   xerces-c_3:XMLReader.cpp.obj
 0001:0004edc0       ??1XMLReader@xercesc_3_2@@QAE@XZ 1004fdc0 f   xerces-c_3:XMLReader.cpp.obj
 0001:0004ee50       ?containsWhiteSpace@XMLReader@xercesc_3_2@@QBE_NQB_WI@Z 1004fe50 f   xerces-c_3:XMLReader.cpp.obj
 0001:0004ee90       ?doInitDecode@XMLReader@xercesc_3_2@@AAEXXZ 1004fe90 f   xerces-c_3:XMLReader.cpp.obj
 0001:0004f730       ?getNCName@XMLReader@xercesc_3_2@@QAE_NAAVXMLBuffer@2@@Z 10050730 f   xerces-c_3:XMLReader.cpp.obj
 0001:0004f930       ?getName@XMLReader@xercesc_3_2@@QAE_NAAVXMLBuffer@2@_N@Z 10050930 f   xerces-c_3:XMLReader.cpp.obj
 0001:0004fb40       ?getQName@XMLReader@xercesc_3_2@@QAE_NAAVXMLBuffer@2@PAH@Z 10050b40 f   xerces-c_3:XMLReader.cpp.obj
 0001:0004fbe0       ?getSpaces@XMLReader@xercesc_3_2@@QAE_NAAVXMLBuffer@2@@Z 10050be0 f   xerces-c_3:XMLReader.cpp.obj
 0001:0004fc90       ?getSrcOffset@XMLReader@xercesc_3_2@@QBE_KXZ 10050c90 f   xerces-c_3:XMLReader.cpp.obj
 0001:0004fd40       ?getUpToCharOrWS@XMLReader@xercesc_3_2@@QAE_NAAVXMLBuffer@2@_W@Z 10050d40 f   xerces-c_3:XMLReader.cpp.obj
 0001:0004fe00       ?handleEOL@XMLReader@xercesc_3_2@@AAEXAA_W_N@Z 10050e00 f   xerces-c_3:XMLReader.cpp.obj
 0001:0004ff90       ?isAllSpaces@XMLReader@xercesc_3_2@@QBE_NQB_WI@Z 10050f90 f   xerces-c_3:XMLReader.cpp.obj
 0001:0004ffd0       ?isPublicIdChar@XMLReader@xercesc_3_2@@QBE_N_W@Z 10050fd0 f   xerces-c_3:XMLReader.cpp.obj
 0001:00050000       ?peekString@XMLReader@xercesc_3_2@@QAE_NQB_W@Z 10051000 f   xerces-c_3:XMLReader.cpp.obj
 0001:000500c0       ?refreshCharBuffer@XMLReader@xercesc_3_2@@QAE_NXZ 100510c0 f   xerces-c_3:XMLReader.cpp.obj
 0001:00050380       ?refreshRawBuffer@XMLReader@xercesc_3_2@@AAEXXZ 10051380 f   xerces-c_3:XMLReader.cpp.obj
 0001:00050430       ?setEncoding@XMLReader@xercesc_3_2@@QAE_NQB_W@Z 10051430 f   xerces-c_3:XMLReader.cpp.obj
 0001:00050aa0       ?skipIfQuote@XMLReader@xercesc_3_2@@QAE_NAA_W@Z 10051aa0 f   xerces-c_3:XMLReader.cpp.obj
 0001:00050af0       ?skipSpaces@XMLReader@xercesc_3_2@@QAE_NAA_N_N@Z 10051af0 f   xerces-c_3:XMLReader.cpp.obj
 0001:00050b80       ?skippedChar@XMLReader@xercesc_3_2@@QAE_N_W@Z 10051b80 f   xerces-c_3:XMLReader.cpp.obj
 0001:00050bd0       ?skippedSpace@XMLReader@xercesc_3_2@@QAE_NXZ 10051bd0 f   xerces-c_3:XMLReader.cpp.obj
 0001:00050c40       ?skippedString@XMLReader@xercesc_3_2@@QAE_NQB_W@Z 10051c40 f   xerces-c_3:XMLReader.cpp.obj
 0001:00050d10       ?skippedStringLong@XMLReader@xercesc_3_2@@QAE_NPB_W@Z 10051d10 f   xerces-c_3:XMLReader.cpp.obj
 0001:00050e50       ??0?$RefHashTableOfEnumerator@VGrammar@xercesc_3_2@@UStringHasher@2@@xercesc_3_2@@QAE@QAV?$RefHashTableOf@VGrammar@xercesc_3_2@@UStringHasher@2@@1@_NQAVMemoryManager@1@@Z 10051e50 f i xerces-c_3:GrammarResolver.cpp.obj
 0001:00050f30       ??0GrammarResolver@xercesc_3_2@@QAE@QAVXMLGrammarPool@1@QAVMemoryManager@1@@Z 10051f30 f   xerces-c_3:GrammarResolver.cpp.obj
 0001:00051150       ??0XMLBuffer@xercesc_3_2@@QAE@IQAVMemoryManager@1@@Z 10052150 f i xerces-c_3:GrammarResolver.cpp.obj
 0001:000511a0       ??1?$RefHashTableOfEnumerator@VGrammar@xercesc_3_2@@UStringHasher@2@@xercesc_3_2@@UAE@XZ 100521a0 f i xerces-c_3:GrammarResolver.cpp.obj
 0001:00051220       ??1?$XMLEnumerator@VGrammar@xercesc_3_2@@@xercesc_3_2@@UAE@XZ 10052220 f i xerces-c_3:GrammarResolver.cpp.obj
 0001:00051230       ??1GrammarResolver@xercesc_3_2@@QAE@XZ 10052230 f   xerces-c_3:GrammarResolver.cpp.obj
 0001:00051330       ??1XMLBuffer@xercesc_3_2@@QAE@XZ 10052330 f i xerces-c_3:GrammarResolver.cpp.obj
 0001:00051370       ??_G?$RefHashTableOfEnumerator@VGrammar@xercesc_3_2@@UStringHasher@2@@xercesc_3_2@@UAEPAXI@Z 10052370 f i xerces-c_3:GrammarResolver.cpp.obj
 0001:00051370       ??_E?$RefHashTableOfEnumerator@VGrammar@xercesc_3_2@@UStringHasher@2@@xercesc_3_2@@UAEPAXI@Z 10052370 f i xerces-c_3:GrammarResolver.cpp.obj
 0001:00051410       ??_G?$XMLEnumerator@VGrammar@xercesc_3_2@@@xercesc_3_2@@UAEPAXI@Z 10052410 f i xerces-c_3:GrammarResolver.cpp.obj
 0001:00051410       ??_E?$XMLEnumerator@VGrammar@xercesc_3_2@@@xercesc_3_2@@UAEPAXI@Z 10052410 f i xerces-c_3:GrammarResolver.cpp.obj
 0001:00051440       ?Reset@?$RefHashTableOfEnumerator@VDTDAttDef@xercesc_3_2@@UStringHasher@2@@xercesc_3_2@@UAEXXZ 10052440 f i xerces-c_3:XTemplateSerializer.cpp.obj
 0001:00051440       ?Reset@?$RefHashTableOfEnumerator@VDatatypeValidator@xercesc_3_2@@UStringHasher@2@@xercesc_3_2@@UAEXXZ 10052440 f i xerces-c_3:XSModel.cpp.obj
 0001:00051440       ?Reset@?$RefHashTableOfEnumerator@VComplexTypeInfo@xercesc_3_2@@UStringHasher@2@@xercesc_3_2@@UAEXXZ 10052440 f i xerces-c_3:XSModel.cpp.obj
 0001:00051440       ?Reset@?$RefHashTableOfEnumerator@VKVStringPair@xercesc_3_2@@UStringHasher@2@@xercesc_3_2@@UAEXXZ 10052440 f i xerces-c_3:DOMXPathNSResolverImpl.cpp.obj
 0001:00051440       ?Reset@?$RefHashTableOfEnumerator@VXercesAttGroupInfo@xercesc_3_2@@UStringHasher@2@@xercesc_3_2@@UAEXXZ 10052440 f i xerces-c_3:XSModel.cpp.obj
 0001:00051440       ?Reset@?$RefHashTableOfEnumerator@VFieldValueMap@xercesc_3_2@@UICValueHasher@2@@xercesc_3_2@@UAEXXZ 10052440 f i xerces-c_3:ValueStore.cpp.obj
 0001:00051440       ?Reset@?$RefHashTableOfEnumerator@_WUStringHasher@xercesc_3_2@@@xercesc_3_2@@UAEXXZ 10052440 f i xerces-c_3:DOMNormalizer.cpp.obj
 0001:00051440       ?Reset@?$RefHashTableOfEnumerator@VXSAnnotation@xercesc_3_2@@UPtrHasher@2@@xercesc_3_2@@UAEXXZ 10052440 f i xerces-c_3:XTemplateSerializer.cpp.obj
 0001:00051440       ?Reset@?$RefHashTableOfEnumerator@VGrammar@xercesc_3_2@@UStringHasher@2@@xercesc_3_2@@UAEXXZ 10052440 f i xerces-c_3:GrammarResolver.cpp.obj
 0001:00051440       ?Reset@?$RefHashTableOfEnumerator@VXMLRefInfo@xercesc_3_2@@UStringHasher@2@@xercesc_3_2@@UAEXXZ 10052440 f i xerces-c_3:XMLScanner.cpp.obj
 0001:00051440       ?Reset@?$RefHashTableOfEnumerator@VXMLAttDef@xercesc_3_2@@UStringHasher@2@@xercesc_3_2@@UAEXXZ 10052440 f i xerces-c_3:XSModel.cpp.obj
 0001:00051440       ?Reset@?$RefHashTableOfEnumerator@VXercesGroupInfo@xercesc_3_2@@UStringHasher@2@@xercesc_3_2@@UAEXXZ 10052440 f i xerces-c_3:XSModel.cpp.obj
 0001:00051440       ?Reset@?$RefHashTableOfEnumerator@VValueStore@xercesc_3_2@@UPtrHasher@2@@xercesc_3_2@@UAEXXZ 10052440 f i xerces-c_3:ValueStoreCache.cpp.obj
 0001:00051490       ?cacheGrammarFromParse@GrammarResolver@xercesc_3_2@@QAEX_N@Z 10052490 f   xerces-c_3:GrammarResolver.cpp.obj
 0001:000514d0       ?cacheGrammars@GrammarResolver@xercesc_3_2@@QAEXXZ 100524d0 f   xerces-c_3:GrammarResolver.cpp.obj
 0001:000517e0       ?containsKey@?$RefHashTableOf@VKVStringPair@xercesc_3_2@@UStringHasher@2@@xercesc_3_2@@QBE_NQBX@Z 100527e0 f i xerces-c_3:TraverseSchema.cpp.obj
 0001:000517e0       ?containsKey@?$RefHashTableOf@VXercesAttGroupInfo@xercesc_3_2@@UStringHasher@2@@xercesc_3_2@@QBE_NQBX@Z 100527e0 f i xerces-c_3:TraverseSchema.cpp.obj
 0001:000517e0       ?containsKey@?$RefHashTableOf@VGrammar@xercesc_3_2@@UStringHasher@2@@xercesc_3_2@@QBE_NQBX@Z 100527e0 f i xerces-c_3:GrammarResolver.cpp.obj
 0001:000517e0       ?containsKey@?$RefHashTableOf@VXercesGroupInfo@xercesc_3_2@@UStringHasher@2@@xercesc_3_2@@QBE_NQBX@Z 100527e0 f i xerces-c_3:TraverseSchema.cpp.obj
 0001:000517e0       ?containsKey@?$RefHashTableOf@VXMLAttDef@xercesc_3_2@@UStringHasher@2@@xercesc_3_2@@QBE_NQBX@Z 100527e0 f i xerces-c_3:TraverseSchema.cpp.obj
 0001:000517e0       ?containsKey@?$RefHashTableOf@VRangeTokenElemMap@xercesc_3_2@@UStringHasher@2@@xercesc_3_2@@QBE_NQBX@Z 100527e0 f i xerces-c_3:RangeTokenMap.cpp.obj
 0001:000517e0       ?containsKey@?$RefHashTableOf@VDatatypeValidator@xercesc_3_2@@UStringHasher@2@@xercesc_3_2@@QBE_NQBX@Z 100527e0 f i xerces-c_3:GrammarResolver.cpp.obj
 0001:00051890       ?findNext@?$RefHashTableOfEnumerator@VDatatypeValidator@xercesc_3_2@@UStringHasher@2@@xercesc_3_2@@AAEXXZ 10052890 f i xerces-c_3:XSModel.cpp.obj
 0001:00051890       ?findNext@?$RefHashTableOfEnumerator@VFieldValueMap@xercesc_3_2@@UICValueHasher@2@@xercesc_3_2@@AAEXXZ 10052890 f i xerces-c_3:ValueStore.cpp.obj
 0001:00051890       ?findNext@?$RefHashTableOfEnumerator@VXMLRefInfo@xercesc_3_2@@UStringHasher@2@@xercesc_3_2@@AAEXXZ 10052890 f i xerces-c_3:XMLScanner.cpp.obj
 0001:00051890       ?findNext@?$RefHashTableOfEnumerator@VKVStringPair@xercesc_3_2@@UStringHasher@2@@xercesc_3_2@@AAEXXZ 10052890 f i xerces-c_3:DOMXPathNSResolverImpl.cpp.obj
 0001:00051890       ?findNext@?$RefHashTableOfEnumerator@VGrammar@xercesc_3_2@@UStringHasher@2@@xercesc_3_2@@AAEXXZ 10052890 f i xerces-c_3:GrammarResolver.cpp.obj
 0001:00051890       ?findNext@?$RefHashTableOfEnumerator@VXercesGroupInfo@xercesc_3_2@@UStringHasher@2@@xercesc_3_2@@AAEXXZ 10052890 f i xerces-c_3:XSModel.cpp.obj
 0001:00051890       ?findNext@?$RefHashTableOfEnumerator@VValueStore@xercesc_3_2@@UPtrHasher@2@@xercesc_3_2@@AAEXXZ 10052890 f i xerces-c_3:ValueStoreCache.cpp.obj
 0001:00051890       ?findNext@?$RefHashTableOfEnumerator@VComplexTypeInfo@xercesc_3_2@@UStringHasher@2@@xercesc_3_2@@AAEXXZ 10052890 f i xerces-c_3:XSModel.cpp.obj
 0001:00051890       ?findNext@?$RefHashTableOfEnumerator@VXSAnnotation@xercesc_3_2@@UPtrHasher@2@@xercesc_3_2@@AAEXXZ 10052890 f i xerces-c_3:XTemplateSerializer.cpp.obj
 0001:00051890       ?findNext@?$RefHashTableOfEnumerator@_WUStringHasher@xercesc_3_2@@@xercesc_3_2@@AAEXXZ 10052890 f i xerces-c_3:DOMNormalizer.cpp.obj
 0001:00051890       ?findNext@?$RefHashTableOfEnumerator@VXercesAttGroupInfo@xercesc_3_2@@UStringHasher@2@@xercesc_3_2@@AAEXXZ 10052890 f i xerces-c_3:XSModel.cpp.obj
 0001:00051890       ?findNext@?$RefHashTableOfEnumerator@VXMLAttDef@xercesc_3_2@@UStringHasher@2@@xercesc_3_2@@AAEXXZ 10052890 f i xerces-c_3:XSModel.cpp.obj
 0001:00051890       ?findNext@?$RefHashTableOfEnumerator@VDTDAttDef@xercesc_3_2@@UStringHasher@2@@xercesc_3_2@@AAEXXZ 10052890 f i xerces-c_3:XTemplateSerializer.cpp.obj
 0001:000518f0       ?get@?$RefHashTableOf@VXMLAttDef@xercesc_3_2@@UStringHasher@2@@xercesc_3_2@@QAEPAVXMLAttDef@2@QBX@Z 100528f0 f i xerces-c_3:SGXMLScanner.cpp.obj
 0001:000518f0       ?get@?$RefHashTableOf@VXSObject@xercesc_3_2@@UStringHasher@2@@xercesc_3_2@@QAEPAVXSObject@2@QBX@Z 100528f0 f i xerces-c_3:XSNamespaceItem.cpp.obj
 0001:000518f0       ?get@?$RefHashTableOf@VDatatypeValidator@xercesc_3_2@@UStringHasher@2@@xercesc_3_2@@QAEPAVDatatypeValidator@2@QBX@Z 100528f0 f i xerces-c_3:GrammarResolver.cpp.obj
 0001:000519b0       ?getDatatypeValidator@DatatypeValidatorFactory@xercesc_3_2@@QBEPAVDatatypeValidator@2@QB_W@Z 100529b0 f i xerces-c_3:GrammarResolver.cpp.obj
 0001:00051a00       ?getDatatypeValidator@GrammarResolver@xercesc_3_2@@QAEPAVDatatypeValidator@2@QB_W0@Z 10052a00 f   xerces-c_3:GrammarResolver.cpp.obj
 0001:00051d40       ?getGrammar@GrammarResolver@xercesc_3_2@@QAEPAVGrammar@2@QAVXMLGrammarDescription@2@@Z 10052d40 f   xerces-c_3:GrammarResolver.cpp.obj
 0001:00051dd0       ?getGrammar@GrammarResolver@xercesc_3_2@@QAEPAVGrammar@2@QB_W@Z 10052dd0 f   xerces-c_3:GrammarResolver.cpp.obj
 0001:00051eb0       ?getGrammarEnumerator@GrammarResolver@xercesc_3_2@@QBE?AV?$RefHashTableOfEnumerator@VGrammar@xercesc_3_2@@UStringHasher@2@@2@XZ 10052eb0 f   xerces-c_3:GrammarResolver.cpp.obj
 0001:00051ed0       ?getXSModel@GrammarResolver@xercesc_3_2@@QAEPAVXSModel@2@XZ 10052ed0 f   xerces-c_3:GrammarResolver.cpp.obj
 0001:00052270       ?nextElement@?$RefHashTableOfEnumerator@VValueStore@xercesc_3_2@@UPtrHasher@2@@xercesc_3_2@@UAEAAVValueStore@2@XZ 10053270 f i xerces-c_3:ValueStoreCache.cpp.obj
 0001:00052270       ?nextElement@?$RefHashTableOfEnumerator@VXMLAttDef@xercesc_3_2@@UStringHasher@2@@xercesc_3_2@@UAEAAVXMLAttDef@2@XZ 10053270 f i xerces-c_3:XSModel.cpp.obj
 0001:00052270       ?nextElement@?$RefHashTableOfEnumerator@VFieldValueMap@xercesc_3_2@@UICValueHasher@2@@xercesc_3_2@@UAEAAVFieldValueMap@2@XZ 10053270 f i xerces-c_3:ValueStore.cpp.obj
 0001:00052270       ?nextElement@?$RefHashTableOfEnumerator@VGrammar@xercesc_3_2@@UStringHasher@2@@xercesc_3_2@@UAEAAVGrammar@2@XZ 10053270 f i xerces-c_3:GrammarResolver.cpp.obj
 0001:00052270       ?nextElement@?$RefHashTableOfEnumerator@VComplexTypeInfo@xercesc_3_2@@UStringHasher@2@@xercesc_3_2@@UAEAAVComplexTypeInfo@2@XZ 10053270 f i xerces-c_3:XSModel.cpp.obj
 0001:00052270       ?nextElement@?$RefHashTableOfEnumerator@VXercesAttGroupInfo@xercesc_3_2@@UStringHasher@2@@xercesc_3_2@@UAEAAVXercesAttGroupInfo@2@XZ 10053270 f i xerces-c_3:XSModel.cpp.obj
 0001:00052270       ?nextElement@?$RefHashTableOfEnumerator@VDatatypeValidator@xercesc_3_2@@UStringHasher@2@@xercesc_3_2@@UAEAAVDatatypeValidator@2@XZ 10053270 f i xerces-c_3:XSModel.cpp.obj
 0001:00052270       ?nextElement@?$RefHashTableOfEnumerator@VXMLRefInfo@xercesc_3_2@@UStringHasher@2@@xercesc_3_2@@UAEAAVXMLRefInfo@2@XZ 10053270 f i xerces-c_3:XMLScanner.cpp.obj
 0001:00052270       ?nextElement@?$RefHashTableOfEnumerator@_WUStringHasher@xercesc_3_2@@@xercesc_3_2@@UAEAA_WXZ 10053270 f i xerces-c_3:DOMNormalizer.cpp.obj
 0001:00052270       ?nextElement@?$RefHashTableOfEnumerator@VXercesGroupInfo@xercesc_3_2@@UStringHasher@2@@xercesc_3_2@@UAEAAVXercesGroupInfo@2@XZ 10053270 f i xerces-c_3:XSModel.cpp.obj
 0001:00052270       ?nextElement@?$RefHashTableOfEnumerator@VKVStringPair@xercesc_3_2@@UStringHasher@2@@xercesc_3_2@@UAEAAVKVStringPair@2@XZ 10053270 f i xerces-c_3:DOMXPathNSResolverImpl.cpp.obj
 0001:00052270       ?nextElement@?$RefHashTableOfEnumerator@VXSAnnotation@xercesc_3_2@@UPtrHasher@2@@xercesc_3_2@@UAEAAVXSAnnotation@2@XZ 10053270 f i xerces-c_3:XTemplateSerializer.cpp.obj
 0001:00052270       ?nextElement@?$RefHashTableOfEnumerator@VDTDAttDef@xercesc_3_2@@UStringHasher@2@@xercesc_3_2@@UAEAAVDTDAttDef@2@XZ 10053270 f i xerces-c_3:XTemplateSerializer.cpp.obj
 0001:000522c0       ?orphanGrammar@GrammarResolver@xercesc_3_2@@QAEPAVGrammar@2@QB_W@Z 100532c0 f   xerces-c_3:GrammarResolver.cpp.obj
 0001:00052330       ?orphanKey@?$RefHashTableOf@VGrammar@xercesc_3_2@@UStringHasher@2@@xercesc_3_2@@QAEPAVGrammar@2@QBX@Z 10053330 f i xerces-c_3:GrammarResolver.cpp.obj
 0001:00052470       ?putGrammar@GrammarResolver@xercesc_3_2@@QAEXQAVGrammar@2@@Z 10053470 f   xerces-c_3:GrammarResolver.cpp.obj
 0001:000524d0       ?removeAll@?$RefHashTableOf@VDTDEntityDecl@xercesc_3_2@@UStringHasher@2@@xercesc_3_2@@QAEXXZ 100534d0 f i xerces-c_3:DTDGrammar.cpp.obj
 0001:000524d0       ?removeAll@?$RefHashTableOf@VDatatypeValidator@xercesc_3_2@@UStringHasher@2@@xercesc_3_2@@QAEXXZ 100534d0 f i xerces-c_3:DatatypeValidatorFactory.cpp.obj
 0001:000524d0       ?removeAll@?$RefHashTableOf@VDTDElementDecl@xercesc_3_2@@UStringHasher@2@@xercesc_3_2@@QAEXXZ 100534d0 f i xerces-c_3:DTDGrammar.cpp.obj
 0001:000524d0       ?removeAll@?$RefHashTableOf@VXMLNotationDecl@xercesc_3_2@@UStringHasher@2@@xercesc_3_2@@QAEXXZ 100534d0 f i xerces-c_3:DTDGrammar.cpp.obj
 0001:000524d0       ?removeAll@?$RefHashTableOf@VXMLRefInfo@xercesc_3_2@@UStringHasher@2@@xercesc_3_2@@QAEXXZ 100534d0 f i xerces-c_3:XMLScanner.cpp.obj
 0001:000524d0       ?removeAll@?$RefHashTableOf@VGrammar@xercesc_3_2@@UStringHasher@2@@xercesc_3_2@@QAEXXZ 100534d0 f i xerces-c_3:GrammarResolver.cpp.obj
 0001:000524d0       ?removeAll@?$RefHashTableOf@VXSAnnotation@xercesc_3_2@@UPtrHasher@2@@xercesc_3_2@@QAEXXZ 100534d0 f i xerces-c_3:XTemplateSerializer.cpp.obj
 0001:000524d0       ?removeAll@?$RefHashTableOf@VXMLElementDecl@xercesc_3_2@@UStringHasher@2@@xercesc_3_2@@QAEXXZ 100534d0 f i xerces-c_3:WFXMLScanner.cpp.obj
 0001:00052530       ?removeKey@?$RefHashTableOf@VGrammar@xercesc_3_2@@UStringHasher@2@@xercesc_3_2@@QAEXQBX@Z 10053530 f i xerces-c_3:GrammarResolver.cpp.obj
 0001:00052530       ?removeKey@?$RefHashTableOf@VKVStringPair@xercesc_3_2@@UStringHasher@2@@xercesc_3_2@@QAEXQBX@Z 10053530 f i xerces-c_3:DatatypeValidatorFactory.cpp.obj
 0001:00052680       ?resetCachedGrammar@GrammarResolver@xercesc_3_2@@QAEXXZ 10053680 f   xerces-c_3:GrammarResolver.cpp.obj
 0001:000526a0       ?set@XMLBuffer@xercesc_3_2@@QAEXQB_W@Z 100536a0 f i xerces-c_3:GrammarResolver.cpp.obj
 0001:00052700       ??0?$RefVectorOf@VXMLAttr@xercesc_3_2@@@xercesc_3_2@@QAE@I_NQAVMemoryManager@1@@Z 10053700 f i xerces-c_3:XMLScanner.cpp.obj
 0001:00052770       ??0MalformedURLException@xercesc_3_2@@QAE@ABV01@@Z 10053770 f i xerces-c_3:XMLScanner.cpp.obj
 0001:00052790       ??0MalformedURLException@xercesc_3_2@@QAE@QBD_KW4Codes@XMLExcepts@1@PAVMemoryManager@1@@Z 10053790 f i xerces-c_3:XMLScanner.cpp.obj
 0001:00052800       ??0UnexpectedEOFException@xercesc_3_2@@QAE@ABV01@@Z 10053800 f i xerces-c_3:XMLScanner.cpp.obj
 0001:00052820       ??0UnexpectedEOFException@xercesc_3_2@@QAE@QBD_KW4Codes@XMLExcepts@1@PAVMemoryManager@1@@Z 10053820 f i xerces-c_3:XMLScanner.cpp.obj
 0001:00052890       ??0XMLScanner@xercesc_3_2@@QAE@QAVXMLValidator@1@QAVGrammarResolver@1@QAVMemoryManager@1@@Z 10053890 f   xerces-c_3:XMLScanner.cpp.obj
 0001:00052cc0       ??1?$RefHashTableOfEnumerator@VXMLRefInfo@xercesc_3_2@@UStringHasher@2@@xercesc_3_2@@UAE@XZ 10053cc0 f i xerces-c_3:XMLScanner.cpp.obj
 0001:00052db0       ??1?$RefVectorOf@VXMLAttr@xercesc_3_2@@@xercesc_3_2@@UAE@XZ 10053db0 f i xerces-c_3:XMLScanner.cpp.obj
 0001:00052e50       ??1?$XMLEnumerator@VXMLRefInfo@xercesc_3_2@@@xercesc_3_2@@UAE@XZ 10053e50 f i xerces-c_3:XMLScanner.cpp.obj
 0001:00052e60       ??1MalformedURLException@xercesc_3_2@@UAE@XZ 10053e60 f i xerces-c_3:XMLScanner.cpp.obj
 0001:00052e70       ??1ThrowEOEJanitor@xercesc_3_2@@QAE@XZ 10053e70 f i xerces-c_3:XMLScanner.cpp.obj
 0001:00052e80       ??1UnexpectedEOFException@xercesc_3_2@@UAE@XZ 10053e80 f i xerces-c_3:XMLScanner.cpp.obj
 0001:00052e90       ??1XMLBufferFullHandler@xercesc_3_2@@UAE@XZ 10053e90 f i xerces-c_3:XMLScanner.cpp.obj
 0001:00052ea0       ??1XMLScanner@xercesc_3_2@@UAE@XZ 10053ea0 f   xerces-c_3:XMLScanner.cpp.obj
 0001:00052fb0       ??_G?$BaseRefVectorOf@VXMLAttr@xercesc_3_2@@@xercesc_3_2@@UAEPAXI@Z 10053fb0 f i xerces-c_3:XMLScanner.cpp.obj
 0001:00052fb0       ??_E?$BaseRefVectorOf@VXMLAttr@xercesc_3_2@@@xercesc_3_2@@UAEPAXI@Z 10053fb0 f i xerces-c_3:XMLScanner.cpp.obj
 0001:00052ff0       ??_E?$RefHashTableOfEnumerator@VXMLRefInfo@xercesc_3_2@@UStringHasher@2@@xercesc_3_2@@UAEPAXI@Z 10053ff0 f i xerces-c_3:XMLScanner.cpp.obj
 0001:00052ff0       ??_G?$RefHashTableOfEnumerator@VXMLRefInfo@xercesc_3_2@@UStringHasher@2@@xercesc_3_2@@UAEPAXI@Z 10053ff0 f i xerces-c_3:XMLScanner.cpp.obj
 0001:00053030       ??_E?$RefVectorOf@VXMLAttr@xercesc_3_2@@@xercesc_3_2@@UAEPAXI@Z 10054030 f i xerces-c_3:XMLScanner.cpp.obj
 0001:00053030       ??_G?$RefVectorOf@VXMLAttr@xercesc_3_2@@@xercesc_3_2@@UAEPAXI@Z 10054030 f i xerces-c_3:XMLScanner.cpp.obj
 0001:000530f0       ??_G?$XMLEnumerator@VXMLRefInfo@xercesc_3_2@@@xercesc_3_2@@UAEPAXI@Z 100540f0 f i xerces-c_3:XMLScanner.cpp.obj
 0001:000530f0       ??_E?$XMLEnumerator@VXMLRefInfo@xercesc_3_2@@@xercesc_3_2@@UAEPAXI@Z 100540f0 f i xerces-c_3:XMLScanner.cpp.obj
 0001:00053120       ??_EMalformedURLException@xercesc_3_2@@UAEPAXI@Z 10054120 f i xerces-c_3:XMLScanner.cpp.obj
 0001:00053120       ??_GMalformedURLException@xercesc_3_2@@UAEPAXI@Z 10054120 f i xerces-c_3:XMLScanner.cpp.obj
 0001:00053160       ??_EUnexpectedEOFException@xercesc_3_2@@UAEPAXI@Z 10054160 f i xerces-c_3:XMLScanner.cpp.obj
 0001:00053160       ??_GUnexpectedEOFException@xercesc_3_2@@UAEPAXI@Z 10054160 f i xerces-c_3:XMLScanner.cpp.obj
 0001:000531a0       ??_EXMLBufferFullHandler@xercesc_3_2@@UAEPAXI@Z 100541a0 f i xerces-c_3:XMLScanner.cpp.obj
 0001:000531a0       ??_GXMLBufferFullHandler@xercesc_3_2@@UAEPAXI@Z 100541a0 f i xerces-c_3:XMLScanner.cpp.obj
 0001:000531d0       ??_GXMLScanner@xercesc_3_2@@UAEPAXI@Z 100541d0 f i xerces-c_3:XMLScanner.cpp.obj
 0001:000531d0       ??_EXMLScanner@xercesc_3_2@@UAEPAXI@Z 100541d0 f i xerces-c_3:XMLScanner.cpp.obj
 0001:00053310       ?bufferFull@XMLScanner@xercesc_3_2@@UAE_NAAVXMLBuffer@2@@Z 10054310 f i xerces-c_3:XMLScanner.cpp.obj
 0001:00053320       ?checkIDRefs@XMLScanner@xercesc_3_2@@IAEXXZ 10054320 f   xerces-c_3:XMLScanner.cpp.obj
 0001:00053580       ?checkInternalDTD@XMLScanner@xercesc_3_2@@IAEX_NQB_W1@Z 10054580 f   xerces-c_3:XMLScanner.cpp.obj
 0001:00053670       ?checkXMLDecl@XMLScanner@xercesc_3_2@@QAE_N_N@Z 10054670 f   xerces-c_3:XMLScanner.cpp.obj
 0001:00053800       ?cleanUp@XMLScanner@xercesc_3_2@@AAEXXZ 10054800 f   xerces-c_3:XMLScanner.cpp.obj
 0001:00053980       ?cleanup@?$BaseRefVectorOf@VXMLAttr@xercesc_3_2@@@xercesc_3_2@@UAEXXZ 10054980 f i xerces-c_3:XMLScanner.cpp.obj
 0001:00053a00       ?commonInit@XMLScanner@xercesc_3_2@@AAEXXZ 10054a00 f   xerces-c_3:XMLScanner.cpp.obj
 0001:00053bf0       ?duplicate@MalformedURLException@xercesc_3_2@@UBEPAVXMLException@2@XZ 10054bf0 f i xerces-c_3:XMLScanner.cpp.obj
 0001:00053c70       ?duplicate@UnexpectedEOFException@xercesc_3_2@@UBEPAVXMLException@2@XZ 10054c70 f i xerces-c_3:XMLScanner.cpp.obj
 0001:00053cf0       ?emitError@XMLScanner@xercesc_3_2@@QAEXW4Codes@XMLErrs@2@@Z 10054cf0 f   xerces-c_3:XMLScanner.cpp.obj
 0001:00053e00       ?emitError@XMLScanner@xercesc_3_2@@QAEXW4Codes@XMLErrs@2@QBD111@Z 10054e00 f   xerces-c_3:XMLScanner.cpp.obj
 0001:00053f50       ?emitError@XMLScanner@xercesc_3_2@@QAEXW4Codes@XMLErrs@2@QB_W111@Z 10054f50 f   xerces-c_3:XMLScanner.cpp.obj
 0001:000540a0       ?emitError@XMLScanner@xercesc_3_2@@QAEXW4Codes@XMLErrs@2@W43XMLExcepts@2@QB_W222@Z 100550a0 f   xerces-c_3:XMLScanner.cpp.obj
 0001:000541f0       ?emitErrorWillThrowException@XMLScanner@xercesc_3_2@@QAE_NW4Codes@XMLErrs@2@@Z 100551f0 f   xerces-c_3:XMLScanner.cpp.obj
 0001:00054220       ?getNodeType@DOMAttrImpl@xercesc_3_2@@UBE?AW4NodeType@DOMNode@2@XZ 10055220 f i xerces-c_3:DOMAttrImpl.cpp.obj
 0001:00054220       ?size@ConcatToken@xercesc_3_2@@UBEIXZ 10055220 f i xerces-c_3:ConcatToken.cpp.obj
 0001:00054220       ?getType@IC_KeyRef@xercesc_3_2@@UBEFXZ 10055220 f i xerces-c_3:IC_KeyRef.cpp.obj
 0001:00054220       ?getCurrentGrammarType@XMLScanner@xercesc_3_2@@UBE?AW4GrammarType@Grammar@2@XZ 10055220 f i xerces-c_3:XMLScanner.cpp.obj
 0001:00054230       ?getErrorType@XMLException@xercesc_3_2@@QBE?AW4ErrTypes@XMLErrorReporter@2@XZ 10055230 f i xerces-c_3:XMLScanner.cpp.obj
 0001:00054270       ?getNewUIntPtr@XMLScanner@xercesc_3_2@@IAEPAIXZ 10055270 f   xerces-c_3:XMLScanner.cpp.obj
 0001:00054350       ?getType@MalformedURLException@xercesc_3_2@@UBEPB_WXZ 10055350 f i xerces-c_3:XMLScanner.cpp.obj
 0001:00054360       ?getType@UnexpectedEOFException@xercesc_3_2@@UBEPB_WXZ 10055360 f i xerces-c_3:XMLScanner.cpp.obj
 0001:00054370       ?getURIText@XMLScanner@xercesc_3_2@@QBEPB_WI@Z 10055370 f   xerces-c_3:XMLScanner.cpp.obj
 0001:000543b0       ?getURIText@XMLScanner@xercesc_3_2@@QBE_NIAAVXMLBuffer@2@@Z 100553b0 f   xerces-c_3:XMLScanner.cpp.obj
 0001:00054430       ?initValidator@XMLScanner@xercesc_3_2@@IAEXPAVXMLValidator@2@@Z 10055430 f   xerces-c_3:XMLScanner.cpp.obj
 0001:00054460       ?initializeXMLScanner@XMLInitializer@xercesc_3_2@@CAXXZ 10055460 f   xerces-c_3:XMLScanner.cpp.obj
 0001:00054500       ?isLegalToken@XMLScanner@xercesc_3_2@@IAE_NABVXMLPScanToken@2@@Z 10055500 f   xerces-c_3:XMLScanner.cpp.obj
 0001:00054520       ?loadGrammar@XMLScanner@xercesc_3_2@@QAEPAVGrammar@2@QBDF_N@Z 10055520 f   xerces-c_3:XMLScanner.cpp.obj
 0001:000545a0       ?loadGrammar@XMLScanner@xercesc_3_2@@QAEPAVGrammar@2@QB_WF_N@Z 100555a0 f   xerces-c_3:XMLScanner.cpp.obj
 0001:00054860       ?recreateUIntPool@XMLScanner@xercesc_3_2@@IAEXXZ 10055860 f   xerces-c_3:XMLScanner.cpp.obj
 0001:00054900       ?removeAllElements@?$BaseRefVectorOf@VXMLAttr@xercesc_3_2@@@xercesc_3_2@@UAEXXZ 10055900 f i xerces-c_3:XMLScanner.cpp.obj
 0001:000549a0       ?removeElementAt@?$BaseRefVectorOf@VXMLAttr@xercesc_3_2@@@xercesc_3_2@@UAEXI@Z 100559a0 f i xerces-c_3:XMLScanner.cpp.obj
 0001:00054a80       ?removeLastElement@?$BaseRefVectorOf@VXMLAttr@xercesc_3_2@@@xercesc_3_2@@UAEXXZ 10055a80 f i xerces-c_3:XMLScanner.cpp.obj
 0001:00054af0       ?resetUIntPool@XMLScanner@xercesc_3_2@@IAEXXZ 10055af0 f   xerces-c_3:XMLScanner.cpp.obj
 0001:00054b20       ?resolvePrefix@XMLScanner@xercesc_3_2@@IAEIQB_WW4MapModes@ElemStack@2@@Z 10055b20 f   xerces-c_3:XMLScanner.cpp.obj
 0001:00054c20       ?resolveQName@XMLScanner@xercesc_3_2@@QAEIQB_WAAVXMLBuffer@2@W4MapModes@ElemStack@2@AAH@Z 10055c20 f   xerces-c_3:XMLScanner.cpp.obj
 0001:00054c90       ?resolveQNameWithColon@XMLScanner@xercesc_3_2@@IAEIQB_WAAVXMLBuffer@2@W4MapModes@ElemStack@2@H@Z 10055c90 f   xerces-c_3:XMLScanner.cpp.obj
 0001:00054cf0       ?scanCharRef@XMLScanner@xercesc_3_2@@IAE_NAA_W0@Z 10055cf0 f   xerces-c_3:XMLScanner.cpp.obj
 0001:00054ee0       ?scanComment@XMLScanner@xercesc_3_2@@IAEXXZ 10055ee0 f   xerces-c_3:XMLScanner.cpp.obj
 0001:00055170       ?scanDocument@XMLScanner@xercesc_3_2@@QAEXQBD@Z 10056170 f   xerces-c_3:XMLScanner.cpp.obj
 0001:000551f0       ?scanDocument@XMLScanner@xercesc_3_2@@QAEXQB_W@Z 100561f0 f   xerces-c_3:XMLScanner.cpp.obj
 0001:00055470       ?scanEq@XMLScanner@xercesc_3_2@@IAE_N_N@Z 10056470 f   xerces-c_3:XMLScanner.cpp.obj
 0001:000554e0       ?scanMiscellaneous@XMLScanner@xercesc_3_2@@IAEXXZ 100564e0 f   xerces-c_3:XMLScanner.cpp.obj
 0001:000556a0       ?scanPI@XMLScanner@xercesc_3_2@@IAEXXZ 100566a0 f   xerces-c_3:XMLScanner.cpp.obj
 0001:00055a50       ?scanProlog@XMLScanner@xercesc_3_2@@IAEXXZ 10056a50 f   xerces-c_3:XMLScanner.cpp.obj
 0001:00055cf0       ?scanXMLDecl@XMLScanner@xercesc_3_2@@IAEXW4DeclTypes@12@@Z 10056cf0 f   xerces-c_3:XMLScanner.cpp.obj
 0001:000565b0       ?senseNextToken@XMLScanner@xercesc_3_2@@IAE?AW4XMLTokens@12@AAI@Z 100575b0 f   xerces-c_3:XMLScanner.cpp.obj
 0001:00056760       ?setElementAt@?$BaseRefVectorOf@VXMLAttr@xercesc_3_2@@@xercesc_3_2@@UAEXQAVXMLAttr@2@I@Z 10057760 f i xerces-c_3:XMLScanner.cpp.obj
 0001:00056800       ?setParseSettings@XMLScanner@xercesc_3_2@@QAEXQAV12@@Z 10057800 f   xerces-c_3:XMLScanner.cpp.obj
 0001:000569a0       ?setURIStringPool@XMLScanner@xercesc_3_2@@QAEXQAVXMLStringPool@2@@Z 100579a0 f   xerces-c_3:XMLScanner.cpp.obj
 0001:00056a00       ?skipToChar@ReaderMgr@xercesc_3_2@@QAEX_W@Z 10057a00 f i xerces-c_3:WFXMLScanner.cpp.obj
 0001:00056a00       ?skipPastChar@ReaderMgr@xercesc_3_2@@QAEX_W@Z 10057a00 f i xerces-c_3:XMLScanner.cpp.obj
 0001:00056a30       ?terminateXMLScanner@XMLInitializer@xercesc_3_2@@CAXXZ 10057a30 f   xerces-c_3:XMLScanner.cpp.obj
 0001:00056a80       ?ensureCapacity@XMLBuffer@xercesc_3_2@@AAEXI@Z 10057a80 f   xerces-c_3:XMLBuffer.cpp.obj
 0001:00056b30       ?createObject@QName@xercesc_3_2@@SAPAVXSerializable@2@PAVMemoryManager@2@@Z 10057b30 f   xerces-c_3:QName.cpp.obj
 0001:00056b90       ??0QName@xercesc_3_2@@QAE@ABV01@@Z 10057b90 f   xerces-c_3:QName.cpp.obj
 0001:00056cc0       ??0QName@xercesc_3_2@@QAE@QAVMemoryManager@1@@Z 10057cc0 f   xerces-c_3:QName.cpp.obj
 0001:00056d10       ??0QName@xercesc_3_2@@QAE@QB_W0IQAVMemoryManager@1@@Z 10057d10 f   xerces-c_3:QName.cpp.obj
 0001:00056ea0       ??0QName@xercesc_3_2@@QAE@QB_WIQAVMemoryManager@1@@Z 10057ea0 f   xerces-c_3:QName.cpp.obj
 0001:00056f60       ??1QName@xercesc_3_2@@UAE@XZ 10057f60 f   xerces-c_3:QName.cpp.obj
 0001:00056fe0       ??1XSerializable@xercesc_3_2@@UAE@XZ 10057fe0 f i xerces-c_3:QName.cpp.obj
 0001:00056fe0       ??1Grammar@xercesc_3_2@@UAE@XZ 10057fe0 f i xerces-c_3:DTDGrammar.cpp.obj
 0001:00056fe0       ??1XMLAttDefList@xercesc_3_2@@UAE@XZ 10057fe0 f i xerces-c_3:SchemaAttDefList.cpp.obj
 0001:00056fe0       ??1XMLNumber@xercesc_3_2@@UAE@XZ 10057fe0 f i xerces-c_3:XMLNumber.cpp.obj
 0001:00056fe0       ??1XMLGrammarDescription@xercesc_3_2@@UAE@XZ 10057fe0 f i xerces-c_3:XMLGrammarDescription.cpp.obj
 0001:00056ff0       ??8QName@xercesc_3_2@@QBE_NABV01@@Z 10057ff0 f   xerces-c_3:QName.cpp.obj
 0001:000570e0       ??_GQName@xercesc_3_2@@UAEPAXI@Z 100580e0 f i xerces-c_3:QName.cpp.obj
 0001:000570e0       ??_EQName@xercesc_3_2@@UAEPAXI@Z 100580e0 f i xerces-c_3:QName.cpp.obj
 0001:000571a0       ??_GXSerializable@xercesc_3_2@@UAEPAXI@Z 100581a0 f i xerces-c_3:QName.cpp.obj
 0001:000571a0       ??_EXSerializable@xercesc_3_2@@UAEPAXI@Z 100581a0 f i xerces-c_3:QName.cpp.obj
 0001:000571d0       ?cleanUp@QName@xercesc_3_2@@QAEXXZ 100581d0 f   xerces-c_3:QName.cpp.obj
 0001:00057210       ?getProtoType@QName@xercesc_3_2@@UBEPAVXProtoType@2@XZ 10058210 f   xerces-c_3:QName.cpp.obj
 0001:00057220       ?getRawName@QName@xercesc_3_2@@QAEPA_WXZ 10058220 f   xerces-c_3:QName.cpp.obj
 0001:00057220       ?getRawName@QName@xercesc_3_2@@QBEPB_WXZ 10058220 f   xerces-c_3:QName.cpp.obj
 0001:000572e0       ?serialize@QName@xercesc_3_2@@UAEXAAVXSerializeEngine@2@@Z 100582e0 f   xerces-c_3:QName.cpp.obj
 0001:000573a0       ?setNPrefix@QName@xercesc_3_2@@QAEXPB_WI@Z 100583a0 f   xerces-c_3:QName.cpp.obj
 0001:00057400       ?setName@QName@xercesc_3_2@@QAEXQB_W0I@Z 10058400 f   xerces-c_3:QName.cpp.obj
 0001:00057500       ?setName@QName@xercesc_3_2@@QAEXQB_WI@Z 10058500 f   xerces-c_3:QName.cpp.obj
 0001:00057610       ?setValues@QName@xercesc_3_2@@QAEXABV12@@Z 10058610 f   xerces-c_3:QName.cpp.obj
 0001:00057700       ??0XMLAttr@xercesc_3_2@@QAE@IQB_W00W4AttTypes@XMLAttDef@1@_NQAVMemoryManager@1@PAVDatatypeValidator@1@2@Z 10058700 f   xerces-c_3:XMLAttr.cpp.obj
 0001:00057840       ??0XMLAttr@xercesc_3_2@@QAE@IQB_W0W4AttTypes@XMLAttDef@1@_NQAVMemoryManager@1@PAVDatatypeValidator@1@2@Z 10058840 f   xerces-c_3:XMLAttr.cpp.obj
 0001:00057980       ??0XMLAttr@xercesc_3_2@@QAE@QAVMemoryManager@1@@Z 10058980 f   xerces-c_3:XMLAttr.cpp.obj
 0001:00057a30       ?cleanUp@XMLAttr@xercesc_3_2@@AAEXXZ 10058a30 f   xerces-c_3:XMLAttr.cpp.obj
 0001:00057a50       ?getQName@XMLAttr@xercesc_3_2@@QBEPB_WXZ 10058a50 f   xerces-c_3:XMLAttr.cpp.obj
 0001:00057a60       ?setURIId@XMLAttr@xercesc_3_2@@QAEXI@Z 10058a60 f   xerces-c_3:XMLAttr.cpp.obj
 0001:00057a70       ?setValue@XMLAttr@xercesc_3_2@@QAEXQB_W@Z 10058a70 f   xerces-c_3:XMLAttr.cpp.obj
 0001:00057af0       ??0XMLBufferMgr@xercesc_3_2@@QAE@QAVMemoryManager@1@@Z 10058af0 f   xerces-c_3:XMLBufferMgr.cpp.obj
 0001:00057b40       ??1XMLBufferMgr@xercesc_3_2@@QAE@XZ 10058b40 f   xerces-c_3:XMLBufferMgr.cpp.obj
 0001:00057bc0       ?bidOnBuffer@XMLBufferMgr@xercesc_3_2@@QAEAAVXMLBuffer@2@XZ 10058bc0 f   xerces-c_3:XMLBufferMgr.cpp.obj
 0001:00057cd0       ?releaseBuffer@XMLBufferMgr@xercesc_3_2@@QAEXAAVXMLBuffer@2@@Z 10058cd0 f   xerces-c_3:XMLBufferMgr.cpp.obj
 0001:00057d30       ??0EndOfEntityException@xercesc_3_2@@QAE@ABV01@@Z 10058d30 f i xerces-c_3:ReaderMgr.cpp.obj
 0001:00057d50       ??0ReaderMgr@xercesc_3_2@@QAE@QAVMemoryManager@1@@Z 10058d50 f   xerces-c_3:ReaderMgr.cpp.obj
 0001:00057da0       ??1?$RefVectorOf@VXMLEntityDecl@xercesc_3_2@@@xercesc_3_2@@UAE@XZ 10058da0 f i xerces-c_3:ReaderMgr.cpp.obj
 0001:00057e20       ??1?$RefVectorOf@VXMLReader@xercesc_3_2@@@xercesc_3_2@@UAE@XZ 10058e20 f i xerces-c_3:ReaderMgr.cpp.obj
 0001:00057eb0       ??1ReaderMgr@xercesc_3_2@@UAE@XZ 10058eb0 f   xerces-c_3:ReaderMgr.cpp.obj
 0001:00057f10       ??_E?$BaseRefVectorOf@VXMLEntityDecl@xercesc_3_2@@@xercesc_3_2@@UAEPAXI@Z 10058f10 f i xerces-c_3:ReaderMgr.cpp.obj
 0001:00057f10       ??_G?$BaseRefVectorOf@VXMLEntityDecl@xercesc_3_2@@@xercesc_3_2@@UAEPAXI@Z 10058f10 f i xerces-c_3:ReaderMgr.cpp.obj
 0001:00057f50       ??_E?$BaseRefVectorOf@VXMLReader@xercesc_3_2@@@xercesc_3_2@@UAEPAXI@Z 10058f50 f i xerces-c_3:ReaderMgr.cpp.obj
 0001:00057f50       ??_G?$BaseRefVectorOf@VXMLReader@xercesc_3_2@@@xercesc_3_2@@UAEPAXI@Z 10058f50 f i xerces-c_3:ReaderMgr.cpp.obj
 0001:00057f90       ??_G?$RefVectorOf@VXMLEntityDecl@xercesc_3_2@@@xercesc_3_2@@UAEPAXI@Z 10058f90 f i xerces-c_3:ReaderMgr.cpp.obj
 0001:00057f90       ??_E?$RefVectorOf@VXMLEntityDecl@xercesc_3_2@@@xercesc_3_2@@UAEPAXI@Z 10058f90 f i xerces-c_3:ReaderMgr.cpp.obj
 0001:00057fd0       ??_E?$RefVectorOf@VXMLReader@xercesc_3_2@@@xercesc_3_2@@UAEPAXI@Z 10058fd0 f i xerces-c_3:ReaderMgr.cpp.obj
 0001:00057fd0       ??_G?$RefVectorOf@VXMLReader@xercesc_3_2@@@xercesc_3_2@@UAEPAXI@Z 10058fd0 f i xerces-c_3:ReaderMgr.cpp.obj
 0001:00058010       ??_ELocator@xercesc_3_2@@UAEPAXI@Z 10059010 f i xerces-c_3:ReaderMgr.cpp.obj
 0001:00058010       ??_GLocator@xercesc_3_2@@UAEPAXI@Z 10059010 f i xerces-c_3:ReaderMgr.cpp.obj
 0001:00058040       ??_EReaderMgr@xercesc_3_2@@UAEPAXI@Z 10059040 f i xerces-c_3:ReaderMgr.cpp.obj
 0001:00058040       ??_GReaderMgr@xercesc_3_2@@UAEPAXI@Z 10059040 f i xerces-c_3:ReaderMgr.cpp.obj
 0001:000580d0       ?atEOF@ReaderMgr@xercesc_3_2@@QBE_NXZ 100590d0 f   xerces-c_3:ReaderMgr.cpp.obj
 0001:000580f0       ?cleanStackBackTo@ReaderMgr@xercesc_3_2@@QAEXI@Z 100590f0 f   xerces-c_3:ReaderMgr.cpp.obj
 0001:00058180       ?cleanup@?$BaseRefVectorOf@VXMLReader@xercesc_3_2@@@xercesc_3_2@@UAEXXZ 10059180 f i xerces-c_3:ReaderMgr.cpp.obj
 0001:000581d0       ?createIntEntReader@ReaderMgr@xercesc_3_2@@QAEPAVXMLReader@2@QB_WW4RefFrom@32@W4Types@32@0I_N3I@Z 100591d0 f   xerces-c_3:ReaderMgr.cpp.obj
 0001:000582d0       ?createReader@ReaderMgr@xercesc_3_2@@QAEPAVXMLReader@2@ABVInputSource@2@_NW4RefFrom@32@W4Types@32@W4Sources@32@1I@Z 100592d0 f   xerces-c_3:ReaderMgr.cpp.obj
 0001:00058480       ?createReader@ReaderMgr@xercesc_3_2@@QAEPAVXMLReader@2@QB_W00_NW4RefFrom@32@W4Types@32@W4Sources@32@AAPAVInputSource@2@1I1@Z 10059480 f   xerces-c_3:ReaderMgr.cpp.obj
 0001:00058830       ?createReader@ReaderMgr@xercesc_3_2@@QAEPAVXMLReader@2@QB_W0_NW4RefFrom@32@W4Types@32@W4Sources@32@AAPAVInputSource@2@1I1@Z 10059830 f   xerces-c_3:ReaderMgr.cpp.obj
 0001:00058bf0       ?elementAt@?$RefStackOf@VXMLReader@xercesc_3_2@@@xercesc_3_2@@QBEPBVXMLReader@2@I@Z 10059bf0 f i xerces-c_3:ReaderMgr.cpp.obj
 0001:00058c40       ?getColumnNumber@ReaderMgr@xercesc_3_2@@UBE_KXZ 10059c40 f   xerces-c_3:ReaderMgr.cpp.obj
 0001:00058c70       ?getCurrentEncodingStr@ReaderMgr@xercesc_3_2@@QBEPB_WXZ 10059c70 f   xerces-c_3:ReaderMgr.cpp.obj
 0001:00058c90       ?getLastExtEntity@ReaderMgr@xercesc_3_2@@ABEPBVXMLReader@2@AAPBVXMLEntityDecl@2@@Z 10059c90 f   xerces-c_3:ReaderMgr.cpp.obj
 0001:00058d30       ?getLastExtEntityInfo@ReaderMgr@xercesc_3_2@@QBEXAAULastExtEntityInfo@12@@Z 10059d30 f   xerces-c_3:ReaderMgr.cpp.obj
 0001:00058db0       ?getLineNumber@ReaderMgr@xercesc_3_2@@UBE_KXZ 10059db0 f   xerces-c_3:ReaderMgr.cpp.obj
 0001:00058de0       ?getNextChar@ReaderMgr@xercesc_3_2@@QAE_WXZ 10059de0 f   xerces-c_3:ReaderMgr.cpp.obj
 0001:00058e20       ?getNextChar@XMLReader@xercesc_3_2@@QAE_NAA_W@Z 10059e20 f i xerces-c_3:ReaderMgr.cpp.obj
 0001:00058e90       ?getPublicId@ReaderMgr@xercesc_3_2@@UBEPB_WXZ 10059e90 f   xerces-c_3:ReaderMgr.cpp.obj
 0001:00058ec0       ?getReaderDepth@ReaderMgr@xercesc_3_2@@QBEIXZ 10059ec0 f   xerces-c_3:ReaderMgr.cpp.obj
 0001:00058ef0       ?getSpaces@ReaderMgr@xercesc_3_2@@QAEXAAVXMLBuffer@2@@Z 10059ef0 f   xerces-c_3:ReaderMgr.cpp.obj
 0001:00059020       ?getSystemId@ReaderMgr@xercesc_3_2@@UBEPB_WXZ 1005a020 f   xerces-c_3:ReaderMgr.cpp.obj
 0001:00059050       ?getUpToCharOrWS@ReaderMgr@xercesc_3_2@@QAEXAAVXMLBuffer@2@_W@Z 1005a050 f   xerces-c_3:ReaderMgr.cpp.obj
 0001:00059190       ?isScanningPERefOutOfLiteral@ReaderMgr@xercesc_3_2@@QBE_NXZ 1005a190 f   xerces-c_3:ReaderMgr.cpp.obj
 0001:000591c0       ?peekNextChar@ReaderMgr@xercesc_3_2@@QAE_WXZ 1005a1c0 f   xerces-c_3:ReaderMgr.cpp.obj
 0001:00059200       ?peekNextChar@XMLReader@xercesc_3_2@@QAE_NAA_W@Z 1005a200 f i xerces-c_3:ReaderMgr.cpp.obj
 0001:00059270       ?pop@?$RefStackOf@VXMLReader@xercesc_3_2@@@xercesc_3_2@@QAEPAVXMLReader@2@XZ 1005a270 f i xerces-c_3:ReaderMgr.cpp.obj
 0001:00059270       ?pop@?$RefStackOf@VXMLEntityDecl@xercesc_3_2@@@xercesc_3_2@@QAEPAVXMLEntityDecl@2@XZ 1005a270 f i xerces-c_3:ReaderMgr.cpp.obj
 0001:000592f0       ?popReader@ReaderMgr@xercesc_3_2@@AAE_NXZ 1005a2f0 f   xerces-c_3:ReaderMgr.cpp.obj
 0001:000593f0       ?pushReader@ReaderMgr@xercesc_3_2@@QAE_NQAVXMLReader@2@QAVXMLEntityDecl@2@@Z 1005a3f0 f   xerces-c_3:ReaderMgr.cpp.obj
 0001:00059770       ?removeAllElements@?$BaseRefVectorOf@VXMLReader@xercesc_3_2@@@xercesc_3_2@@UAEXXZ 1005a770 f i xerces-c_3:ReaderMgr.cpp.obj
 0001:000597d0       ?removeElementAt@?$BaseRefVectorOf@VXMLReader@xercesc_3_2@@@xercesc_3_2@@UAEXI@Z 1005a7d0 f i xerces-c_3:ReaderMgr.cpp.obj
 0001:00059880       ?removeLastElement@?$BaseRefVectorOf@VXMLReader@xercesc_3_2@@@xercesc_3_2@@UAEXXZ 1005a880 f i xerces-c_3:ReaderMgr.cpp.obj
 0001:000598b0       ?reset@ReaderMgr@xercesc_3_2@@QAEXXZ 1005a8b0 f   xerces-c_3:ReaderMgr.cpp.obj
 0001:00059900       ?setElementAt@?$BaseRefVectorOf@VXMLReader@xercesc_3_2@@@xercesc_3_2@@UAEXQAVXMLReader@2@I@Z 1005a900 f i xerces-c_3:ReaderMgr.cpp.obj
 0001:00059970       ?skipIfQuote@ReaderMgr@xercesc_3_2@@QAE_NAA_W@Z 1005a970 f   xerces-c_3:ReaderMgr.cpp.obj
 0001:00059ab0       ?skipPastSpaces@ReaderMgr@xercesc_3_2@@QAEXAA_N_N@Z 1005aab0 f   xerces-c_3:ReaderMgr.cpp.obj
 0001:00059bf0       ?skipPastSpaces@ReaderMgr@xercesc_3_2@@QAEXXZ 1005abf0 f   xerces-c_3:ReaderMgr.cpp.obj
 0001:00059d10       ?skipQuotedString@ReaderMgr@xercesc_3_2@@QAEX_W@Z 1005ad10 f   xerces-c_3:ReaderMgr.cpp.obj
 0001:00059d60       ?skipUntilIn@ReaderMgr@xercesc_3_2@@QAE_WQB_W@Z 1005ad60 f   xerces-c_3:ReaderMgr.cpp.obj
 0001:00059e00       ?skipUntilInOrWS@ReaderMgr@xercesc_3_2@@QAE_WQB_W@Z 1005ae00 f   xerces-c_3:ReaderMgr.cpp.obj
 0001:00059eb0       ?skippedChar@ReaderMgr@xercesc_3_2@@QAE_N_W@Z 1005aeb0 f   xerces-c_3:ReaderMgr.cpp.obj
 0001:00059ff0       ?skippedSpace@ReaderMgr@xercesc_3_2@@QAE_NXZ 1005aff0 f   xerces-c_3:ReaderMgr.cpp.obj
 0001:0005a130       ?getDefaultScanner@XMLScannerResolver@xercesc_3_2@@SAPAVXMLScanner@2@QAVXMLValidator@2@QAVGrammarResolver@2@QAVMemoryManager@2@@Z 1005b130 f   xerces-c_3:XMLScannerResolver.cpp.obj
 0001:0005a1b0       ?resolveScanner@XMLScannerResolver@xercesc_3_2@@SAPAVXMLScanner@2@QB_WQAVXMLValidator@2@QAVGrammarResolver@2@QAVMemoryManager@2@@Z 1005b1b0 f   xerces-c_3:XMLScannerResolver.cpp.obj
 0001:0005a400       ??0PSVIAttributeList@xercesc_3_2@@QAE@QAVMemoryManager@1@@Z 1005b400 f   xerces-c_3:PSVIAttributeList.cpp.obj
 0001:0005a520       ??_E?$BaseRefVectorOf@VPSVIAttributeStorage@xercesc_3_2@@@xercesc_3_2@@UAEPAXI@Z 1005b520 f i xerces-c_3:PSVIAttributeList.cpp.obj
 0001:0005a520       ??_G?$BaseRefVectorOf@VPSVIAttributeStorage@xercesc_3_2@@@xercesc_3_2@@UAEPAXI@Z 1005b520 f i xerces-c_3:PSVIAttributeList.cpp.obj
 0001:0005a560       ??_E?$RefVectorOf@VPSVIAttributeStorage@xercesc_3_2@@@xercesc_3_2@@UAEPAXI@Z 1005b560 f i xerces-c_3:PSVIAttributeList.cpp.obj
 0001:0005a560       ??_G?$RefVectorOf@VPSVIAttributeStorage@xercesc_3_2@@@xercesc_3_2@@UAEPAXI@Z 1005b560 f i xerces-c_3:PSVIAttributeList.cpp.obj
 0001:0005a610       ?cleanup@?$BaseRefVectorOf@VPSVIAttributeStorage@xercesc_3_2@@@xercesc_3_2@@UAEXXZ 1005b610 f i xerces-c_3:PSVIAttributeList.cpp.obj
 0001:0005a660       ?getAttributeNameAtIndex@PSVIAttributeList@xercesc_3_2@@QAEPB_WI@Z 1005b660 f   xerces-c_3:PSVIAttributeList.cpp.obj
 0001:0005a6c0       ?getAttributeNamespaceAtIndex@PSVIAttributeList@xercesc_3_2@@QAEPB_WI@Z 1005b6c0 f   xerces-c_3:PSVIAttributeList.cpp.obj
 0001:0005a720       ?getAttributePSVIAtIndex@PSVIAttributeList@xercesc_3_2@@QAEPAVPSVIAttribute@2@I@Z 1005b720 f   xerces-c_3:PSVIAttributeList.cpp.obj
 0001:0005a780       ?getAttributePSVIByName@PSVIAttributeList@xercesc_3_2@@QAEPAVPSVIAttribute@2@PB_W0@Z 1005b780 f   xerces-c_3:PSVIAttributeList.cpp.obj
 0001:0005a8b0       ?removeAllElements@?$BaseRefVectorOf@VPSVIAttributeStorage@xercesc_3_2@@@xercesc_3_2@@UAEXXZ 1005b8b0 f i xerces-c_3:PSVIAttributeList.cpp.obj
 0001:0005a910       ?removeElementAt@?$BaseRefVectorOf@VPSVIAttributeStorage@xercesc_3_2@@@xercesc_3_2@@UAEXI@Z 1005b910 f i xerces-c_3:PSVIAttributeList.cpp.obj
 0001:0005a9c0       ?removeLastElement@?$BaseRefVectorOf@VPSVIAttributeStorage@xercesc_3_2@@@xercesc_3_2@@UAEXXZ 1005b9c0 f i xerces-c_3:PSVIAttributeList.cpp.obj
 0001:0005aa00       ?setElementAt@?$BaseRefVectorOf@VPSVIAttributeStorage@xercesc_3_2@@@xercesc_3_2@@UAEXQAVPSVIAttributeStorage@2@I@Z 1005ba00 f i xerces-c_3:PSVIAttributeList.cpp.obj
 0001:0005aa70       ??0XSElementDeclaration@xercesc_3_2@@QAE@QAVSchemaElementDecl@1@QAVXSTypeDefinition@1@QAV01@QAVXSAnnotation@1@QAV?$XSNamedMap@VXSIDCDefinition@xercesc_3_2@@@1@QAVXSModel@1@W4SCOPE@XSConstants@1@QAVXSComplexTypeDefinition@1@QAVMemoryManager@1@@Z 1005ba70 f   xerces-c_3:XSElementDeclaration.cpp.obj
 0001:0005ab30       ??_EXSElementDeclaration@xercesc_3_2@@UAEPAXI@Z 1005bb30 f i xerces-c_3:XSElementDeclaration.cpp.obj
 0001:0005ab30       ??_GXSElementDeclaration@xercesc_3_2@@UAEPAXI@Z 1005bb30 f i xerces-c_3:XSElementDeclaration.cpp.obj
 0001:0005ac60       ?getName@XSElementDeclaration@xercesc_3_2@@UBEPB_WXZ 1005bc60 f   xerces-c_3:XSElementDeclaration.cpp.obj
 0001:0005ac70       ?getNamespace@XSElementDeclaration@xercesc_3_2@@UBEPB_WXZ 1005bc70 f   xerces-c_3:XSElementDeclaration.cpp.obj
 0001:0005ac90       ?getNamespaceItem@XSComplexTypeDefinition@xercesc_3_2@@UAEPAVXSNamespaceItem@2@XZ 1005bc90 f   xerces-c_3:XSComplexTypeDefinition.cpp.obj
 0001:0005ac90       ?getNamespaceItem@XSSimpleTypeDefinition@xercesc_3_2@@UAEPAVXSNamespaceItem@2@XZ 1005bc90 f   xerces-c_3:XSSimpleTypeDefinition.cpp.obj
 0001:0005ac90       ?getNamespaceItem@XSModelGroupDefinition@xercesc_3_2@@UAEPAVXSNamespaceItem@2@XZ 1005bc90 f   xerces-c_3:XSModelGroupDefinition.cpp.obj
 0001:0005ac90       ?getNamespaceItem@XSNotationDeclaration@xercesc_3_2@@UAEPAVXSNamespaceItem@2@XZ 1005bc90 f   xerces-c_3:XSNotationDeclaration.cpp.obj
 0001:0005ac90       ?getNamespaceItem@XSElementDeclaration@xercesc_3_2@@UAEPAVXSNamespaceItem@2@XZ 1005bc90 f   xerces-c_3:XSElementDeclaration.cpp.obj
 0001:0005ac90       ?getNamespaceItem@XSAttributeGroupDefinition@xercesc_3_2@@UAEPAVXSNamespaceItem@2@XZ 1005bc90 f   xerces-c_3:XSAttributeGroupDefinition.cpp.obj
 0001:0005ac90       ?getNamespaceItem@XSAttributeDeclaration@xercesc_3_2@@UAEPAVXSNamespaceItem@2@XZ 1005bc90 f   xerces-c_3:XSAttributeDeclaration.cpp.obj
 0001:0005ac90       ?getNamespaceItem@XSIDCDefinition@xercesc_3_2@@UAEPAVXSNamespaceItem@2@XZ 1005bc90 f   xerces-c_3:XSIDCDefinition.cpp.obj
 0001:0005acb0       ?getNillable@XSElementDeclaration@xercesc_3_2@@QBE_NXZ 1005bcb0 f   xerces-c_3:XSElementDeclaration.cpp.obj
 0001:0005acc0       ??0DOMException@xercesc_3_2@@QAE@ABV01@@Z 1005bcc0 f   xerces-c_3:DOMException.cpp.obj
 0001:0005ad50       ??0DOMException@xercesc_3_2@@QAE@FFQAVMemoryManager@1@@Z 1005bd50 f   xerces-c_3:DOMException.cpp.obj
 0001:0005ae30       ??1DOMException@xercesc_3_2@@UAE@XZ 1005be30 f   xerces-c_3:DOMException.cpp.obj
 0001:0005ae80       ??_GDOMException@xercesc_3_2@@UAEPAXI@Z 1005be80 f i xerces-c_3:DOMException.cpp.obj
 0001:0005ae80       ??_EDOMException@xercesc_3_2@@UAEPAXI@Z 1005be80 f i xerces-c_3:DOMException.cpp.obj
 0001:0005aeed       ??_EDOMImplementationImpl@xercesc_3_2@@W3AEPAXI@Z 1005beed f i xerces-c_3:DOMImplementationImpl.cpp.obj
 0001:0005af00       ??_GDOMImplementationImpl@xercesc_3_2@@UAEPAXI@Z 1005bf00 f i xerces-c_3:DOMImplementationImpl.cpp.obj
 0001:0005af00       ??_EDOMImplementationImpl@xercesc_3_2@@UAEPAXI@Z 1005bf00 f i xerces-c_3:DOMImplementationImpl.cpp.obj
 0001:0005af40       ??_EDOMImplementationLS@xercesc_3_2@@UAEPAXI@Z 1005bf40 f i xerces-c_3:DOMImplementationImpl.cpp.obj
 0001:0005af40       ??_GDOMImplementationLS@xercesc_3_2@@UAEPAXI@Z 1005bf40 f i xerces-c_3:DOMImplementationImpl.cpp.obj
 0001:0005af70       ??_EDOMImplementationSource@xercesc_3_2@@UAEPAXI@Z 1005bf70 f i xerces-c_3:DOMImplementationImpl.cpp.obj
 0001:0005af70       ??_GDOMImplementationSource@xercesc_3_2@@UAEPAXI@Z 1005bf70 f i xerces-c_3:DOMImplementationImpl.cpp.obj
 0001:0005afa0       ?createDocument@DOMImplementationImpl@xercesc_3_2@@UAEPAVDOMDocument@2@PB_W0PAVDOMDocumentType@2@QAVMemoryManager@2@@Z 1005bfa0 f   xerces-c_3:DOMImplementationImpl.cpp.obj
 0001:0005b020       ?createDocument@DOMImplementationImpl@xercesc_3_2@@UAEPAVDOMDocument@2@QAVMemoryManager@2@@Z 1005c020 f   xerces-c_3:DOMImplementationImpl.cpp.obj
 0001:0005b090       ?createDocumentType@DOMImplementationImpl@xercesc_3_2@@UAEPAVDOMDocumentType@2@PB_W00@Z 1005c090 f   xerces-c_3:DOMImplementationImpl.cpp.obj
 0001:0005b140       ?createLSInput@DOMImplementationImpl@xercesc_3_2@@UAEPAVDOMLSInput@2@QAVMemoryManager@2@@Z 1005c140 f   xerces-c_3:DOMImplementationImpl.cpp.obj
 0001:0005b1b0       ?createLSOutput@DOMImplementationImpl@xercesc_3_2@@UAEPAVDOMLSOutput@2@QAVMemoryManager@2@@Z 1005c1b0 f   xerces-c_3:DOMImplementationImpl.cpp.obj
 0001:0005b220       ?createLSParser@DOMImplementationImpl@xercesc_3_2@@UAEPAVDOMLSParser@2@W4DOMImplementationLSMode@DOMImplementationLS@2@QB_WQAVMemoryManager@2@QAVXMLGrammarPool@2@@Z 1005c220 f   xerces-c_3:DOMImplementationImpl.cpp.obj
 0001:0005b2c0       ?createLSSerializer@DOMImplementationImpl@xercesc_3_2@@UAEPAVDOMLSSerializer@2@QAVMemoryManager@2@@Z 1005c2c0 f   xerces-c_3:DOMImplementationImpl.cpp.obj
 0001:0005b330       ?getDOMImplementation@DOMImplementationImpl@xercesc_3_2@@UBEPAVDOMImplementation@2@PB_W@Z 1005c330 f   xerces-c_3:DOMImplementationImpl.cpp.obj
 0001:0005b400       ?getImplementation@DOMImplementation@xercesc_3_2@@SAPAV12@XZ 1005c400 f   xerces-c_3:DOMImplementationImpl.cpp.obj
 0001:0005b400       ?getDOMImplementationImpl@DOMImplementationImpl@xercesc_3_2@@SAPAV12@XZ 1005c400 f   xerces-c_3:DOMImplementationImpl.cpp.obj
 0001:0005b410       ?getDOMImplementationList@DOMImplementationImpl@xercesc_3_2@@UBEPAVDOMImplementationList@2@PB_W@Z 1005c410 f   xerces-c_3:DOMImplementationImpl.cpp.obj
 0001:0005b490       ?getMsgLoader4DOM@DOMImplementationImpl@xercesc_3_2@@SAPAVXMLMsgLoader@2@XZ 1005c490 f   xerces-c_3:DOMImplementationImpl.cpp.obj
 0001:0005b4a0       ?hasFeature@DOMImplementationImpl@xercesc_3_2@@UBE_NPB_W0@Z 1005c4a0 f   xerces-c_3:DOMImplementationImpl.cpp.obj
 0001:0005b680       ?initializeDOMImplementationImpl@XMLInitializer@xercesc_3_2@@CAXXZ 1005c680 f   xerces-c_3:DOMImplementationImpl.cpp.obj
 0001:0005b6e0       ?terminateDOMImplementationImpl@XMLInitializer@xercesc_3_2@@CAXXZ 1005c6e0 f   xerces-c_3:DOMImplementationImpl.cpp.obj
 0001:0005b720       ??_E?$BaseRefVectorOf@VDOMImplementationSource@xercesc_3_2@@@xercesc_3_2@@UAEPAXI@Z 1005c720 f i xerces-c_3:DOMImplementationRegistry.cpp.obj
 0001:0005b720       ??_G?$BaseRefVectorOf@VDOMImplementationSource@xercesc_3_2@@@xercesc_3_2@@UAEPAXI@Z 1005c720 f i xerces-c_3:DOMImplementationRegistry.cpp.obj
 0001:0005b760       ??_E?$RefVectorOf@VDOMImplementationSource@xercesc_3_2@@@xercesc_3_2@@UAEPAXI@Z 1005c760 f i xerces-c_3:DOMImplementationRegistry.cpp.obj
 0001:0005b760       ??_G?$RefVectorOf@VDOMImplementationSource@xercesc_3_2@@@xercesc_3_2@@UAEPAXI@Z 1005c760 f i xerces-c_3:DOMImplementationRegistry.cpp.obj
 0001:0005b800       ?getDOMImplementation@DOMImplementationRegistry@xercesc_3_2@@SAPAVDOMImplementation@2@PB_W@Z 1005c800 f   xerces-c_3:DOMImplementationRegistry.cpp.obj
 0001:0005b900       ?initializeDOMImplementationRegistry@XMLInitializer@xercesc_3_2@@CAXXZ 1005c900 f   xerces-c_3:DOMImplementationRegistry.cpp.obj
 0001:0005ba00       ?terminateDOMImplementationRegistry@XMLInitializer@xercesc_3_2@@CAXXZ 1005ca00 f   xerces-c_3:DOMImplementationRegistry.cpp.obj
 0001:0005ba50       ??0DOMNodeIDMap@xercesc_3_2@@QAE@IPAVDOMDocument@1@@Z 1005ca50 f   xerces-c_3:DOMNodeIDMap.cpp.obj
 0001:0005bb70       ?add@DOMNodeIDMap@xercesc_3_2@@QAEXPAVDOMAttr@2@@Z 1005cb70 f   xerces-c_3:DOMNodeIDMap.cpp.obj
 0001:0005bd30       ?find@DOMNodeIDMap@xercesc_3_2@@QAEPAVDOMAttr@2@PB_W@Z 1005cd30 f   xerces-c_3:DOMNodeIDMap.cpp.obj
 0001:0005be30       ?remove@DOMNodeIDMap@xercesc_3_2@@QAEXPAVDOMAttr@2@@Z 1005ce30 f   xerces-c_3:DOMNodeIDMap.cpp.obj
 0001:0005bed0       ??0DOMAttrImpl@xercesc_3_2@@QAE@ABV01@_N@Z 1005ced0 f   xerces-c_3:DOMAttrImpl.cpp.obj
 0001:0005bfd0       ??0DOMAttrImpl@xercesc_3_2@@QAE@PAVDOMDocument@1@PB_W@Z 1005cfd0 f   xerces-c_3:DOMAttrImpl.cpp.obj
 0001:0005c090       ??1DOMText@xercesc_3_2@@UAE@XZ 1005d090 f i xerces-c_3:DOMCDATASectionImpl.cpp.obj
 0001:0005c090       ??1DOMEntityReference@xercesc_3_2@@UAE@XZ 1005d090 f i xerces-c_3:DOMEntityReferenceImpl.cpp.obj
 0001:0005c090       ??1DOMDocumentType@xercesc_3_2@@UAE@XZ 1005d090 f i xerces-c_3:DOMDocumentTypeImpl.cpp.obj
 0001:0005c090       ??1DOMEntity@xercesc_3_2@@UAE@XZ 1005d090 f i xerces-c_3:DOMEntityImpl.cpp.obj
 0001:0005c090       ??1DOMCDATASection@xercesc_3_2@@UAE@XZ 1005d090 f i xerces-c_3:DOMCDATASectionImpl.cpp.obj
 0001:0005c090       ??1DOMAttr@xercesc_3_2@@UAE@XZ 1005d090 f i xerces-c_3:DOMAttrImpl.cpp.obj
 0001:0005c090       ??1DOMElement@xercesc_3_2@@UAE@XZ 1005d090 f i xerces-c_3:DOMElementImpl.cpp.obj
 0001:0005c090       ??1DOMProcessingInstruction@xercesc_3_2@@UAE@XZ 1005d090 f i xerces-c_3:DOMProcessingInstructionImpl.cpp.obj
 0001:0005c090       ??1DOMNotation@xercesc_3_2@@UAE@XZ 1005d090 f i xerces-c_3:DOMNotationImpl.cpp.obj
 0001:0005c090       ??1DOMDocumentFragment@xercesc_3_2@@UAE@XZ 1005d090 f i xerces-c_3:DOMDocumentFragmentImpl.cpp.obj
 0001:0005c090       ??1DOMComment@xercesc_3_2@@UAE@XZ 1005d090 f i xerces-c_3:DOMCommentImpl.cpp.obj
 0001:0005c0a0       ??1DOMAttrImpl@xercesc_3_2@@UAE@XZ 1005d0a0 f   xerces-c_3:DOMAttrImpl.cpp.obj
 0001:0005c0dd       ??_EDOMAttrImpl@xercesc_3_2@@W3AEPAXI@Z 1005d0dd f i xerces-c_3:DOMAttrImpl.cpp.obj
 0001:0005c0e5       ??_EDOMAttrImpl@xercesc_3_2@@W7AEPAXI@Z 1005d0e5 f i xerces-c_3:DOMAttrImpl.cpp.obj
 0001:0005c0f0       ??_EDOMAttrImpl@xercesc_3_2@@UAEPAXI@Z 1005d0f0 f i xerces-c_3:DOMAttrImpl.cpp.obj
 0001:0005c0f0       ??_GDOMAttrImpl@xercesc_3_2@@UAEPAXI@Z 1005d0f0 f i xerces-c_3:DOMAttrImpl.cpp.obj
 0001:0005c150       ?addAttrToIDNodeMap@DOMAttrImpl@xercesc_3_2@@UAEXXZ 1005d150 f i xerces-c_3:DOMAttrImpl.cpp.obj
 0001:0005c200       ?appendChild@DOMAttrImpl@xercesc_3_2@@UAEPAVDOMNode@2@PAV32@@Z 1005d200 f   xerces-c_3:DOMAttrImpl.cpp.obj
 0001:0005c200       ?appendChild@DOMDocumentFragmentImpl@xercesc_3_2@@UAEPAVDOMNode@2@PAV32@@Z 1005d200 f   xerces-c_3:DOMDocumentFragmentImpl.cpp.obj
 0001:0005c270       ?cloneNode@DOMAttrImpl@xercesc_3_2@@UBEPAVDOMNode@2@_N@Z 1005d270 f   xerces-c_3:DOMAttrImpl.cpp.obj
 0001:0005c3a0       ?getBaseURI@DOMCDATASectionImpl@xercesc_3_2@@UBEPB_WXZ 1005d3a0 f   xerces-c_3:DOMCDATASectionImpl.cpp.obj
 0001:0005c3a0       ?getBaseURI@DOMCommentImpl@xercesc_3_2@@UBEPB_WXZ 1005d3a0 f   xerces-c_3:DOMCommentImpl.cpp.obj
 0001:0005c3a0       ?getBaseURI@DOMDocumentFragmentImpl@xercesc_3_2@@UBEPB_WXZ 1005d3a0 f   xerces-c_3:DOMDocumentFragmentImpl.cpp.obj
 0001:0005c3a0       ?getBaseURI@DOMAttrImpl@xercesc_3_2@@UBEPB_WXZ 1005d3a0 f   xerces-c_3:DOMAttrImpl.cpp.obj
 0001:0005c3a0       ?getBaseURI@DOMTextImpl@xercesc_3_2@@UBEPB_WXZ 1005d3a0 f   xerces-c_3:DOMTextImpl.cpp.obj
